
mlogger.elf:     file format elf32-avr

Sections:
Idx Name          Size      VMA       LMA       File off  Algn
  0 .data         0000018c  00806000  00007e5a  00007f0e  2**0
                  CONTENTS, ALLOC, LOAD, DATA
  1 .text         00007e5a  00000000  00000000  000000b4  2**1
                  CONTENTS, ALLOC, LOAD, READONLY, CODE
  2 .bss          00000221  0080618c  0080618c  0000809a  2**0
                  ALLOC
  3 .eeprom       00000059  00810000  00810000  0000809a  2**0
                  CONTENTS, ALLOC, LOAD, DATA
  4 .comment      0000005c  00000000  00000000  000080f3  2**0
                  CONTENTS, READONLY
  5 .note.gnu.avr.deviceinfo 0000003c  00000000  00000000  00008150  2**2
                  CONTENTS, READONLY
  6 .debug_aranges 000005b8  00000000  00000000  00008190  2**3
                  CONTENTS, READONLY, DEBUGGING
  7 .debug_info   0000d6a8  00000000  00000000  00008748  2**0
                  CONTENTS, READONLY, DEBUGGING
  8 .debug_abbrev 00003649  00000000  00000000  00015df0  2**0
                  CONTENTS, READONLY, DEBUGGING
  9 .debug_line   00005400  00000000  00000000  00019439  2**0
                  CONTENTS, READONLY, DEBUGGING
 10 .debug_frame  00001478  00000000  00000000  0001e83c  2**2
                  CONTENTS, READONLY, DEBUGGING
 11 .debug_str    00003731  00000000  00000000  0001fcb4  2**0
                  CONTENTS, READONLY, DEBUGGING
 12 .debug_loc    0000816c  00000000  00000000  000233e5  2**0
                  CONTENTS, READONLY, DEBUGGING
 13 .debug_ranges 00000460  00000000  00000000  0002b551  2**0
                  CONTENTS, READONLY, DEBUGGING

Disassembly of section .text:

00000000 <__vectors>:
       0:	0c 94 50 01 	jmp	0x2a0	; 0x2a0 <__ctors_end>
       4:	0c 94 6d 01 	jmp	0x2da	; 0x2da <__bad_interrupt>
       8:	0c 94 6d 01 	jmp	0x2da	; 0x2da <__bad_interrupt>
       c:	0c 94 6d 01 	jmp	0x2da	; 0x2da <__bad_interrupt>
      10:	0c 94 59 22 	jmp	0x44b2	; 0x44b2 <__vector_4>
      14:	0c 94 6d 01 	jmp	0x2da	; 0x2da <__bad_interrupt>
      18:	0c 94 bc 27 	jmp	0x4f78	; 0x4f78 <__vector_6>
      1c:	0c 94 32 22 	jmp	0x4464	; 0x4464 <__vector_7>
      20:	0c 94 6d 01 	jmp	0x2da	; 0x2da <__bad_interrupt>
      24:	0c 94 6d 01 	jmp	0x2da	; 0x2da <__bad_interrupt>
      28:	0c 94 6d 01 	jmp	0x2da	; 0x2da <__bad_interrupt>
      2c:	0c 94 6d 01 	jmp	0x2da	; 0x2da <__bad_interrupt>
      30:	0c 94 6d 01 	jmp	0x2da	; 0x2da <__bad_interrupt>
      34:	0c 94 6d 01 	jmp	0x2da	; 0x2da <__bad_interrupt>
      38:	0c 94 6d 01 	jmp	0x2da	; 0x2da <__bad_interrupt>
      3c:	0c 94 6d 01 	jmp	0x2da	; 0x2da <__bad_interrupt>
      40:	0c 94 6d 01 	jmp	0x2da	; 0x2da <__bad_interrupt>
      44:	0c 94 6d 01 	jmp	0x2da	; 0x2da <__bad_interrupt>
      48:	0c 94 6d 01 	jmp	0x2da	; 0x2da <__bad_interrupt>
      4c:	0c 94 bd 21 	jmp	0x437a	; 0x437a <__vector_19>
      50:	0c 94 6d 01 	jmp	0x2da	; 0x2da <__bad_interrupt>
      54:	0c 94 6d 01 	jmp	0x2da	; 0x2da <__bad_interrupt>
      58:	0c 94 6d 01 	jmp	0x2da	; 0x2da <__bad_interrupt>
      5c:	0c 94 6d 01 	jmp	0x2da	; 0x2da <__bad_interrupt>
      60:	0c 94 6d 01 	jmp	0x2da	; 0x2da <__bad_interrupt>
      64:	0c 94 6d 01 	jmp	0x2da	; 0x2da <__bad_interrupt>
      68:	0c 94 6d 01 	jmp	0x2da	; 0x2da <__bad_interrupt>
      6c:	0c 94 6d 01 	jmp	0x2da	; 0x2da <__bad_interrupt>
      70:	0c 94 6d 01 	jmp	0x2da	; 0x2da <__bad_interrupt>
      74:	0c 94 6d 01 	jmp	0x2da	; 0x2da <__bad_interrupt>
      78:	0c 94 6d 01 	jmp	0x2da	; 0x2da <__bad_interrupt>
      7c:	0c 94 6d 01 	jmp	0x2da	; 0x2da <__bad_interrupt>
      80:	0c 94 6d 01 	jmp	0x2da	; 0x2da <__bad_interrupt>
      84:	0c 94 6d 01 	jmp	0x2da	; 0x2da <__bad_interrupt>
      88:	0c 94 6d 01 	jmp	0x2da	; 0x2da <__bad_interrupt>
      8c:	0c 94 6d 01 	jmp	0x2da	; 0x2da <__bad_interrupt>
      90:	0c 94 6d 01 	jmp	0x2da	; 0x2da <__bad_interrupt>
      94:	0c 94 6d 01 	jmp	0x2da	; 0x2da <__bad_interrupt>
      98:	0c 94 6d 01 	jmp	0x2da	; 0x2da <__bad_interrupt>
      9c:	0c 94 6d 01 	jmp	0x2da	; 0x2da <__bad_interrupt>
      a0:	0c 94 6d 01 	jmp	0x2da	; 0x2da <__bad_interrupt>
      a4:	0c 94 6d 01 	jmp	0x2da	; 0x2da <__bad_interrupt>
      a8:	0c 94 6d 01 	jmp	0x2da	; 0x2da <__bad_interrupt>
      ac:	0c 94 6d 01 	jmp	0x2da	; 0x2da <__bad_interrupt>
      b0:	64 18       	sub	r6, r4
      b2:	6f 18       	sub	r6, r15
      b4:	94 1b       	sub	r25, r20
      b6:	ec 18       	sub	r14, r12
      b8:	8c 19       	sub	r24, r12
      ba:	94 1b       	sub	r25, r20
      bc:	94 1b       	sub	r25, r20
      be:	54 1a       	sub	r5, r20
      c0:	94 1b       	sub	r25, r20
      c2:	94 1b       	sub	r25, r20
      c4:	94 1b       	sub	r25, r20
      c6:	94 1b       	sub	r25, r20
      c8:	94 1b       	sub	r25, r20
      ca:	94 1b       	sub	r25, r20
      cc:	94 1b       	sub	r25, r20
      ce:	94 1b       	sub	r25, r20
      d0:	94 1b       	sub	r25, r20
      d2:	94 1b       	sub	r25, r20
      d4:	94 1b       	sub	r25, r20
      d6:	94 1b       	sub	r25, r20
      d8:	94 1b       	sub	r25, r20
      da:	94 1b       	sub	r25, r20
      dc:	94 1b       	sub	r25, r20
      de:	94 1b       	sub	r25, r20
      e0:	94 1b       	sub	r25, r20
      e2:	94 1b       	sub	r25, r20
      e4:	94 1b       	sub	r25, r20
      e6:	94 1b       	sub	r25, r20
      e8:	94 1b       	sub	r25, r20
      ea:	94 1b       	sub	r25, r20
      ec:	94 1b       	sub	r25, r20
      ee:	94 1b       	sub	r25, r20
      f0:	94 1b       	sub	r25, r20
      f2:	94 1b       	sub	r25, r20
      f4:	94 1b       	sub	r25, r20
      f6:	94 1b       	sub	r25, r20
      f8:	94 1b       	sub	r25, r20
      fa:	94 1b       	sub	r25, r20
      fc:	94 1b       	sub	r25, r20
      fe:	94 1b       	sub	r25, r20
     100:	94 1b       	sub	r25, r20
     102:	94 1b       	sub	r25, r20
     104:	94 1b       	sub	r25, r20
     106:	94 1b       	sub	r25, r20
     108:	94 1b       	sub	r25, r20
     10a:	94 1b       	sub	r25, r20
     10c:	94 1b       	sub	r25, r20
     10e:	94 1b       	sub	r25, r20
     110:	94 1b       	sub	r25, r20
     112:	94 1b       	sub	r25, r20
     114:	e3 19       	sub	r30, r3
     116:	e9 19       	sub	r30, r9
     118:	01 1a       	sub	r0, r17
     11a:	19 1a       	sub	r1, r25
     11c:	39 1a       	sub	r3, r25
     11e:	5d 1a       	sub	r5, r29
     120:	cf 1a       	sub	r12, r31
     122:	3d 1b       	sub	r19, r29
     124:	07 63       	ori	r16, 0x37	; 55
     126:	42 36       	cpi	r20, 0x62	; 98
     128:	b7 9b       	sbis	0x16, 7	; 22
     12a:	d8 a7       	std	Y+40, r29	; 0x28
     12c:	1a 39       	cpi	r17, 0x9A	; 154
     12e:	68 56       	subi	r22, 0x68	; 104
     130:	18 ae       	std	Y+56, r1	; 0x38
     132:	ba ab       	std	Y+50, r27	; 0x32
     134:	55 8c       	ldd	r5, Z+29	; 0x1d
     136:	1d 3c       	cpi	r17, 0xCD	; 205
     138:	b7 cc       	rjmp	.-1682   	; 0xfffffaa8 <__eeprom_end+0xff7efa4f>
     13a:	57 63       	ori	r21, 0x37	; 55
     13c:	bd 6d       	ori	r27, 0xDD	; 221
     13e:	ed fd       	.word	0xfded	; ????
     140:	75 3e       	cpi	r23, 0xE5	; 229
     142:	f6 17       	cp	r31, r22
     144:	72 31       	cpi	r23, 0x12	; 18
     146:	bf 00       	.word	0x00bf	; ????
     148:	00 00       	nop
     14a:	80 3f       	cpi	r24, 0xF0	; 240
     14c:	08 00       	.word	0x0008	; ????
     14e:	00 00       	nop
     150:	be 92       	st	-X, r11
     152:	24 49       	sbci	r18, 0x94	; 148
     154:	12 3e       	cpi	r17, 0xE2	; 226
     156:	ab aa       	std	Y+51, r10	; 0x33
     158:	aa 2a       	or	r10, r26
     15a:	be cd       	rjmp	.-1156   	; 0xfffffcd8 <__eeprom_end+0xff7efc7f>
     15c:	cc cc       	rjmp	.-1640   	; 0xfffffaf6 <__eeprom_end+0xff7efa9d>
     15e:	4c 3e       	cpi	r20, 0xEC	; 236
     160:	00 00       	nop
     162:	00 80       	ld	r0, Z
     164:	be ab       	std	Y+54, r27	; 0x36
     166:	aa aa       	std	Y+50, r10	; 0x32
     168:	aa 3e       	cpi	r26, 0xEA	; 234
     16a:	00 00       	nop
     16c:	00 00       	nop
     16e:	bf 00       	.word	0x00bf	; ????
     170:	00 00       	nop
     172:	80 3f       	cpi	r24, 0xF0	; 240
     174:	00 00       	nop
     176:	00 00       	nop
     178:	00 08       	sbc	r0, r0
     17a:	41 78       	andi	r20, 0x81	; 129
     17c:	d3 bb       	out	0x13, r29	; 19
     17e:	43 87       	std	Z+11, r20	; 0x0b
     180:	d1 13       	cpse	r29, r17
     182:	3d 19       	sub	r19, r13
     184:	0e 3c       	cpi	r16, 0xCE	; 206
     186:	c3 bd       	out	0x23, r28	; 35
     188:	42 82       	std	Z+2, r4	; 0x02
     18a:	ad 2b       	or	r26, r29
     18c:	3e 68       	ori	r19, 0x8E	; 142
     18e:	ec 82       	std	Y+4, r14	; 0x04
     190:	76 be       	out	0x36, r7	; 54
     192:	d9 8f       	std	Y+25, r29	; 0x19
     194:	e1 a9       	ldd	r30, Z+49	; 0x31
     196:	3e 4c       	sbci	r19, 0xCE	; 206
     198:	80 ef       	ldi	r24, 0xF0	; 240
     19a:	ff be       	out	0x3f, r15	; 63
     19c:	01 c4       	rjmp	.+2050   	; 0x9a0 <sync_window+0x12>
     19e:	ff 7f       	andi	r31, 0xFF	; 255
     1a0:	3f 00       	.word	0x003f	; ????
     1a2:	00 00       	nop
	...

000001a6 <__trampolines_end>:
     1a6:	00 40       	sbci	r16, 0x00	; 0
     1a8:	7a 10       	cpse	r7, r10
     1aa:	f3 5a       	subi	r31, 0xA3	; 163
     1ac:	00 a0       	ldd	r0, Z+32	; 0x20
     1ae:	72 4e       	sbci	r23, 0xE2	; 226
     1b0:	18 09       	sbc	r17, r8
     1b2:	00 10       	cpse	r0, r0
     1b4:	a5 d4       	rcall	.+2378   	; 0xb00 <check_fs+0x42>
     1b6:	e8 00       	.word	0x00e8	; ????
     1b8:	00 e8       	ldi	r16, 0x80	; 128
     1ba:	76 48       	sbci	r23, 0x86	; 134
     1bc:	17 00       	.word	0x0017	; ????
     1be:	00 e4       	ldi	r16, 0x40	; 64
     1c0:	0b 54       	subi	r16, 0x4B	; 75
     1c2:	02 00       	.word	0x0002	; ????
     1c4:	00 ca       	rjmp	.-3072   	; 0xfffff5c6 <__eeprom_end+0xff7ef56d>
     1c6:	9a 3b       	cpi	r25, 0xBA	; 186
     1c8:	00 00       	nop
     1ca:	00 e1       	ldi	r16, 0x10	; 16
     1cc:	f5 05       	cpc	r31, r5
     1ce:	00 00       	nop
     1d0:	80 96       	adiw	r24, 0x20	; 32
     1d2:	98 00       	.word	0x0098	; ????
     1d4:	00 00       	nop
     1d6:	40 42       	sbci	r20, 0x20	; 32
     1d8:	0f 00       	.word	0x000f	; ????
     1da:	00 00       	nop
     1dc:	a0 86       	std	Z+8, r10	; 0x08
     1de:	01 00       	.word	0x0001	; ????
     1e0:	00 00       	nop
     1e2:	10 27       	eor	r17, r16
     1e4:	00 00       	nop
     1e6:	00 00       	nop
     1e8:	e8 03       	fmulsu	r22, r16
     1ea:	00 00       	nop
     1ec:	00 00       	nop
     1ee:	64 00       	.word	0x0064	; ????
     1f0:	00 00       	nop
     1f2:	00 00       	nop
     1f4:	0a 00       	.word	0x000a	; ????
     1f6:	00 00       	nop
     1f8:	00 00       	nop
     1fa:	01 00       	.word	0x0001	; ????
     1fc:	00 00       	nop
     1fe:	00 00       	nop
     200:	2c 76       	andi	r18, 0x6C	; 108
     202:	d8 88       	ldd	r13, Y+16	; 0x10
     204:	dc 67       	ori	r29, 0x7C	; 124
     206:	4f 08       	sbc	r4, r15
     208:	23 df       	rcall	.-442    	; 0x50 <__SREG__+0x11>
     20a:	c1 df       	rcall	.-126    	; 0x18e <__SREG__+0x14f>
     20c:	ae 59       	subi	r26, 0x9E	; 158
     20e:	e1 b1       	in	r30, 0x01	; 1
     210:	b7 96       	adiw	r30, 0x27	; 39
     212:	e5 e3       	ldi	r30, 0x35	; 53
     214:	e4 53       	subi	r30, 0x34	; 52
     216:	c6 3a       	cpi	r28, 0xA6	; 166
     218:	e6 51       	subi	r30, 0x16	; 22
     21a:	99 76       	andi	r25, 0x69	; 105
     21c:	96 e8       	ldi	r25, 0x86	; 134
     21e:	e6 c2       	rjmp	.+1484   	; 0x7ec <create_name+0x148>
     220:	84 26       	eor	r8, r20
     222:	eb 89       	ldd	r30, Y+19	; 0x13
     224:	8c 9b       	sbis	0x11, 4	; 17
     226:	62 ed       	ldi	r22, 0xD2	; 210
     228:	40 7c       	andi	r20, 0xC0	; 192
     22a:	6f fc       	.word	0xfc6f	; ????
     22c:	ef bc       	out	0x2f, r14	; 47
     22e:	9c 9f       	mul	r25, r28
     230:	40 f2       	brcs	.-112    	; 0x1c2 <__trampolines_end+0x1c>
     232:	ba a5       	ldd	r27, Y+42	; 0x2a
     234:	6f a5       	ldd	r22, Y+47	; 0x2f
     236:	f4 90       	lpm	r15, Z
     238:	05 5a       	subi	r16, 0xA5	; 165
     23a:	2a f7       	brpl	.-54     	; 0x206 <__EEPROM_REGION_LENGTH__+0x6>
     23c:	5c 93       	st	X, r21
     23e:	6b 6c       	ori	r22, 0xCB	; 203
     240:	f9 67       	ori	r31, 0x79	; 121
     242:	6d c1       	rjmp	.+730    	; 0x51e <mem_cmp+0x24>
     244:	1b fc       	.word	0xfc1b	; ????
     246:	e0 e4       	ldi	r30, 0x40	; 64
     248:	0d 47       	sbci	r16, 0x7D	; 125
     24a:	fe f5       	brtc	.+126    	; 0x2ca <.do_clear_bss_loop>
     24c:	20 e6       	ldi	r18, 0x60	; 96
     24e:	b5 00       	.word	0x00b5	; ????
     250:	d0 ed       	ldi	r29, 0xD0	; 208
     252:	90 2e       	mov	r9, r16
     254:	03 00       	.word	0x0003	; ????
     256:	94 35       	cpi	r25, 0x54	; 84
     258:	77 05       	cpc	r23, r7
     25a:	00 80       	ld	r0, Z
     25c:	84 1e       	adc	r8, r20
     25e:	08 00       	.word	0x0008	; ????
     260:	00 20       	and	r0, r0
     262:	4e 0a       	sbc	r4, r30
     264:	00 00       	nop
     266:	00 c8       	rjmp	.-4096   	; 0xfffff268 <__eeprom_end+0xff7ef20f>
     268:	0c 33       	cpi	r16, 0x3C	; 60
     26a:	33 33       	cpi	r19, 0x33	; 51
     26c:	33 0f       	add	r19, r19
     26e:	98 6e       	ori	r25, 0xE8	; 232
     270:	12 83       	std	Z+2, r17	; 0x02
     272:	11 41       	sbci	r17, 0x11	; 17
     274:	ef 8d       	ldd	r30, Y+31	; 0x1f
     276:	21 14       	cp	r2, r1
     278:	89 3b       	cpi	r24, 0xB9	; 185
     27a:	e6 55       	subi	r30, 0x56	; 86
     27c:	16 cf       	rjmp	.-468    	; 0xaa <__SREG__+0x6b>
     27e:	fe e6       	ldi	r31, 0x6E	; 110
     280:	db 18       	sub	r13, r11
     282:	d1 84       	ldd	r13, Z+9	; 0x09
     284:	4b 38       	cpi	r20, 0x8B	; 139
     286:	1b f7       	brvc	.-58     	; 0x24e <__EEPROM_REGION_LENGTH__+0x4e>
     288:	7c 1d       	adc	r23, r12
     28a:	90 1d       	adc	r25, r0
     28c:	a4 bb       	out	0x14, r26	; 20
     28e:	e4 24       	eor	r14, r4
     290:	20 32       	cpi	r18, 0x20	; 32
     292:	84 72       	andi	r24, 0x24	; 36
     294:	5e 22       	and	r5, r30
     296:	81 00       	.word	0x0081	; ????
     298:	c9 f1       	breq	.+114    	; 0x30c <gmtime_r+0x2e>
     29a:	24 ec       	ldi	r18, 0xC4	; 196
     29c:	a1 e5       	ldi	r26, 0x51	; 81
     29e:	3d 27       	eor	r19, r29

000002a0 <__ctors_end>:
     2a0:	11 24       	eor	r1, r1
     2a2:	1f be       	out	0x3f, r1	; 63
     2a4:	cf ef       	ldi	r28, 0xFF	; 255
     2a6:	cd bf       	out	0x3d, r28	; 61
     2a8:	df e7       	ldi	r29, 0x7F	; 127
     2aa:	de bf       	out	0x3e, r29	; 62

000002ac <__do_copy_data>:
     2ac:	11 e6       	ldi	r17, 0x61	; 97
     2ae:	a0 e0       	ldi	r26, 0x00	; 0
     2b0:	b0 e6       	ldi	r27, 0x60	; 96
     2b2:	ea e5       	ldi	r30, 0x5A	; 90
     2b4:	fe e7       	ldi	r31, 0x7E	; 126
     2b6:	02 c0       	rjmp	.+4      	; 0x2bc <__do_copy_data+0x10>
     2b8:	05 90       	lpm	r0, Z+
     2ba:	0d 92       	st	X+, r0
     2bc:	ac 38       	cpi	r26, 0x8C	; 140
     2be:	b1 07       	cpc	r27, r17
     2c0:	d9 f7       	brne	.-10     	; 0x2b8 <__do_copy_data+0xc>

000002c2 <__do_clear_bss>:
     2c2:	23 e6       	ldi	r18, 0x63	; 99
     2c4:	ac e8       	ldi	r26, 0x8C	; 140
     2c6:	b1 e6       	ldi	r27, 0x61	; 97
     2c8:	01 c0       	rjmp	.+2      	; 0x2cc <.do_clear_bss_start>

000002ca <.do_clear_bss_loop>:
     2ca:	1d 92       	st	X+, r1

000002cc <.do_clear_bss_start>:
     2cc:	ad 3a       	cpi	r26, 0xAD	; 173
     2ce:	b2 07       	cpc	r27, r18
     2d0:	e1 f7       	brne	.-8      	; 0x2ca <.do_clear_bss_loop>
     2d2:	0e 94 1d 21 	call	0x423a	; 0x423a <main>
     2d6:	0c 94 2b 3f 	jmp	0x7e56	; 0x7e56 <_exit>

000002da <__bad_interrupt>:
     2da:	0c 94 00 00 	jmp	0	; 0x0 <__vectors>

000002de <gmtime_r>:
     2de:	a8 e0       	ldi	r26, 0x08	; 8
     2e0:	b0 e0       	ldi	r27, 0x00	; 0
     2e2:	e5 e7       	ldi	r30, 0x75	; 117
     2e4:	f1 e0       	ldi	r31, 0x01	; 1
     2e6:	0c 94 fb 3e 	jmp	0x7df6	; 0x7df6 <__prologue_saves__+0x14>
     2ea:	8b 01       	movw	r16, r22
     2ec:	fc 01       	movw	r30, r24
     2ee:	60 81       	ld	r22, Z
     2f0:	71 81       	ldd	r23, Z+1	; 0x01
     2f2:	82 81       	ldd	r24, Z+2	; 0x02
     2f4:	93 81       	ldd	r25, Z+3	; 0x03
     2f6:	20 e8       	ldi	r18, 0x80	; 128
     2f8:	31 e5       	ldi	r19, 0x51	; 81
     2fa:	41 e0       	ldi	r20, 0x01	; 1
     2fc:	50 e0       	ldi	r21, 0x00	; 0
     2fe:	0e 94 36 37 	call	0x6e6c	; 0x6e6c <__udivmodsi4>
     302:	69 01       	movw	r12, r18
     304:	7a 01       	movw	r14, r20
     306:	2c e3       	ldi	r18, 0x3C	; 60
     308:	30 e0       	ldi	r19, 0x00	; 0
     30a:	40 e0       	ldi	r20, 0x00	; 0
     30c:	50 e0       	ldi	r21, 0x00	; 0
     30e:	0e 94 d2 3e 	call	0x7da4	; 0x7da4 <__divmodsi4>
     312:	29 83       	std	Y+1, r18	; 0x01
     314:	3a 83       	std	Y+2, r19	; 0x02
     316:	4b 83       	std	Y+3, r20	; 0x03
     318:	5c 83       	std	Y+4, r21	; 0x04
     31a:	89 81       	ldd	r24, Y+1	; 0x01
     31c:	9a 81       	ldd	r25, Y+2	; 0x02
     31e:	ab 81       	ldd	r26, Y+3	; 0x03
     320:	bc 81       	ldd	r27, Y+4	; 0x04
     322:	f8 01       	movw	r30, r16
     324:	60 83       	st	Z, r22
     326:	6c e3       	ldi	r22, 0x3C	; 60
     328:	70 e0       	ldi	r23, 0x00	; 0
     32a:	0e 94 be 3e 	call	0x7d7c	; 0x7d7c <__divmodhi4>
     32e:	dc 01       	movw	r26, r24
     330:	cb 01       	movw	r24, r22
     332:	f8 01       	movw	r30, r16
     334:	a1 83       	std	Z+1, r26	; 0x01
     336:	82 83       	std	Z+2, r24	; 0x02
     338:	c6 01       	movw	r24, r12
     33a:	06 96       	adiw	r24, 0x06	; 6
     33c:	67 e0       	ldi	r22, 0x07	; 7
     33e:	70 e0       	ldi	r23, 0x00	; 0
     340:	0e 94 aa 3e 	call	0x7d54	; 0x7d54 <__udivmodhi4>
     344:	84 83       	std	Z+4, r24	; 0x04
     346:	2d ea       	ldi	r18, 0xAD	; 173
     348:	3e e8       	ldi	r19, 0x8E	; 142
     34a:	40 e0       	ldi	r20, 0x00	; 0
     34c:	50 e0       	ldi	r21, 0x00	; 0
     34e:	c7 01       	movw	r24, r14
     350:	b6 01       	movw	r22, r12
     352:	0e 94 d2 3e 	call	0x7da4	; 0x7da4 <__divmodsi4>
     356:	29 83       	std	Y+1, r18	; 0x01
     358:	3a 83       	std	Y+2, r19	; 0x02
     35a:	6d 83       	std	Y+5, r22	; 0x05
     35c:	7e 83       	std	Y+6, r23	; 0x06
     35e:	8f 83       	std	Y+7, r24	; 0x07
     360:	98 87       	std	Y+8, r25	; 0x08
     362:	89 81       	ldd	r24, Y+1	; 0x01
     364:	9a 81       	ldd	r25, Y+2	; 0x02
     366:	24 e6       	ldi	r18, 0x64	; 100
     368:	28 9f       	mul	r18, r24
     36a:	60 01       	movw	r12, r0
     36c:	29 9f       	mul	r18, r25
     36e:	d0 0c       	add	r13, r0
     370:	11 24       	eor	r1, r1
     372:	6d 81       	ldd	r22, Y+5	; 0x05
     374:	7e 81       	ldd	r23, Y+6	; 0x06
     376:	8f 81       	ldd	r24, Y+7	; 0x07
     378:	98 85       	ldd	r25, Y+8	; 0x08
     37a:	25 eb       	ldi	r18, 0xB5	; 181
     37c:	35 e0       	ldi	r19, 0x05	; 5
     37e:	40 e0       	ldi	r20, 0x00	; 0
     380:	50 e0       	ldi	r21, 0x00	; 0
     382:	0e 94 d2 3e 	call	0x7da4	; 0x7da4 <__divmodsi4>
     386:	29 83       	std	Y+1, r18	; 0x01
     388:	3a 83       	std	Y+2, r19	; 0x02
     38a:	6d 83       	std	Y+5, r22	; 0x05
     38c:	7e 83       	std	Y+6, r23	; 0x06
     38e:	e9 80       	ldd	r14, Y+1	; 0x01
     390:	fa 80       	ldd	r15, Y+2	; 0x02
     392:	ee 0c       	add	r14, r14
     394:	ff 1c       	adc	r15, r15
     396:	ee 0c       	add	r14, r14
     398:	ff 1c       	adc	r15, r15
     39a:	ec 0c       	add	r14, r12
     39c:	fd 1c       	adc	r15, r13
     39e:	8d 81       	ldd	r24, Y+5	; 0x05
     3a0:	9e 81       	ldd	r25, Y+6	; 0x06
     3a2:	f5 e6       	ldi	r31, 0x65	; 101
     3a4:	ef 16       	cp	r14, r31
     3a6:	f1 04       	cpc	r15, r1
     3a8:	10 f0       	brcs	.+4      	; 0x3ae <gmtime_r+0xd0>
     3aa:	01 96       	adiw	r24, 0x01	; 1
     3ac:	04 c0       	rjmp	.+8      	; 0x3b6 <gmtime_r+0xd8>
     3ae:	24 e6       	ldi	r18, 0x64	; 100
     3b0:	e2 16       	cp	r14, r18
     3b2:	f1 04       	cpc	r15, r1
     3b4:	19 f0       	breq	.+6      	; 0x3bc <gmtime_r+0xde>
     3b6:	21 e0       	ldi	r18, 0x01	; 1
     3b8:	30 e0       	ldi	r19, 0x00	; 0
     3ba:	02 c0       	rjmp	.+4      	; 0x3c0 <gmtime_r+0xe2>
     3bc:	20 e0       	ldi	r18, 0x00	; 0
     3be:	30 e0       	ldi	r19, 0x00	; 0
     3c0:	a9 01       	movw	r20, r18
     3c2:	44 59       	subi	r20, 0x94	; 148
     3c4:	5e 4f       	sbci	r21, 0xFE	; 254
     3c6:	48 17       	cp	r20, r24
     3c8:	59 07       	cpc	r21, r25
     3ca:	68 f4       	brcc	.+26     	; 0x3e6 <gmtime_r+0x108>
     3cc:	6d e6       	ldi	r22, 0x6D	; 109
     3ce:	71 e0       	ldi	r23, 0x01	; 1
     3d0:	82 1b       	sub	r24, r18
     3d2:	93 0b       	sbc	r25, r19
     3d4:	0e 94 be 3e 	call	0x7d7c	; 0x7d7c <__divmodhi4>
     3d8:	dc 01       	movw	r26, r24
     3da:	cb 01       	movw	r24, r22
     3dc:	e8 0e       	add	r14, r24
     3de:	f9 1e       	adc	r15, r25
     3e0:	cd 01       	movw	r24, r26
     3e2:	20 e0       	ldi	r18, 0x00	; 0
     3e4:	30 e0       	ldi	r19, 0x00	; 0
     3e6:	44 e6       	ldi	r20, 0x64	; 100
     3e8:	e4 0e       	add	r14, r20
     3ea:	f1 1c       	adc	r15, r1
     3ec:	f8 01       	movw	r30, r16
     3ee:	e6 82       	std	Z+6, r14	; 0x06
     3f0:	f7 82       	std	Z+7, r15	; 0x07
     3f2:	80 87       	std	Z+8, r24	; 0x08
     3f4:	91 87       	std	Z+9, r25	; 0x09
     3f6:	25 5c       	subi	r18, 0xC5	; 197
     3f8:	3f 4f       	sbci	r19, 0xFF	; 255
     3fa:	82 17       	cp	r24, r18
     3fc:	93 07       	cpc	r25, r19
     3fe:	48 f4       	brcc	.+18     	; 0x412 <__LOCK_REGION_LENGTH__+0x12>
     400:	6f e1       	ldi	r22, 0x1F	; 31
     402:	70 e0       	ldi	r23, 0x00	; 0
     404:	0e 94 be 3e 	call	0x7d7c	; 0x7d7c <__divmodhi4>
     408:	dc 01       	movw	r26, r24
     40a:	cb 01       	movw	r24, r22
     40c:	f8 01       	movw	r30, r16
     40e:	85 83       	std	Z+5, r24	; 0x05
     410:	22 c0       	rjmp	.+68     	; 0x456 <__LOCK_REGION_LENGTH__+0x56>
     412:	69 e9       	ldi	r22, 0x99	; 153
     414:	70 e0       	ldi	r23, 0x00	; 0
     416:	82 1b       	sub	r24, r18
     418:	93 0b       	sbc	r25, r19
     41a:	0e 94 be 3e 	call	0x7d7c	; 0x7d7c <__divmodhi4>
     41e:	dc 01       	movw	r26, r24
     420:	cb 01       	movw	r24, r22
     422:	f8 2e       	mov	r15, r24
     424:	ff 0c       	add	r15, r15
     426:	ff 0c       	add	r15, r15
     428:	f8 0e       	add	r15, r24
     42a:	6d e3       	ldi	r22, 0x3D	; 61
     42c:	70 e0       	ldi	r23, 0x00	; 0
     42e:	cd 01       	movw	r24, r26
     430:	0e 94 be 3e 	call	0x7d7c	; 0x7d7c <__divmodhi4>
     434:	dc 01       	movw	r26, r24
     436:	cb 01       	movw	r24, r22
     438:	e8 2e       	mov	r14, r24
     43a:	ee 0c       	add	r14, r14
     43c:	6f e1       	ldi	r22, 0x1F	; 31
     43e:	70 e0       	ldi	r23, 0x00	; 0
     440:	cd 01       	movw	r24, r26
     442:	0e 94 be 3e 	call	0x7d7c	; 0x7d7c <__divmodhi4>
     446:	dc 01       	movw	r26, r24
     448:	cb 01       	movw	r24, r22
     44a:	22 e0       	ldi	r18, 0x02	; 2
     44c:	28 0f       	add	r18, r24
     44e:	f2 0e       	add	r15, r18
     450:	fe 0c       	add	r15, r14
     452:	f8 01       	movw	r30, r16
     454:	f5 82       	std	Z+5, r15	; 0x05
     456:	a3 83       	std	Z+3, r26	; 0x03
     458:	f8 01       	movw	r30, r16
     45a:	12 86       	std	Z+10, r1	; 0x0a
     45c:	13 86       	std	Z+11, r1	; 0x0b
     45e:	83 81       	ldd	r24, Z+3	; 0x03
     460:	8f 5f       	subi	r24, 0xFF	; 255
     462:	83 83       	std	Z+3, r24	; 0x03
     464:	28 96       	adiw	r28, 0x08	; 8
     466:	e8 e0       	ldi	r30, 0x08	; 8
     468:	0c 94 14 3f 	jmp	0x7e28	; 0x7e28 <__epilogue_restores__+0x14>

0000046c <ld_word>:


	putc_init(&pb, fp);
	putc_bfd(&pb, c);	/* Put the character */
	return putc_flush(&pb);
}
     46c:	fc 01       	movw	r30, r24
     46e:	21 81       	ldd	r18, Z+1	; 0x01
     470:	30 e0       	ldi	r19, 0x00	; 0
     472:	32 2f       	mov	r19, r18
     474:	22 27       	eor	r18, r18
     476:	80 81       	ld	r24, Z
     478:	a9 01       	movw	r20, r18
     47a:	48 2b       	or	r20, r24
     47c:	ca 01       	movw	r24, r20
     47e:	08 95       	ret

00000480 <ld_dword>:
     480:	fc 01       	movw	r30, r24
     482:	63 81       	ldd	r22, Z+3	; 0x03
     484:	86 2f       	mov	r24, r22
     486:	90 e0       	ldi	r25, 0x00	; 0
     488:	a0 e0       	ldi	r26, 0x00	; 0
     48a:	b0 e0       	ldi	r27, 0x00	; 0
     48c:	ba 2f       	mov	r27, r26
     48e:	a9 2f       	mov	r26, r25
     490:	98 2f       	mov	r25, r24
     492:	88 27       	eor	r24, r24
     494:	22 81       	ldd	r18, Z+2	; 0x02
     496:	82 2b       	or	r24, r18
     498:	ba 2f       	mov	r27, r26
     49a:	a9 2f       	mov	r26, r25
     49c:	98 2f       	mov	r25, r24
     49e:	88 27       	eor	r24, r24
     4a0:	21 81       	ldd	r18, Z+1	; 0x01
     4a2:	82 2b       	or	r24, r18
     4a4:	ba 2f       	mov	r27, r26
     4a6:	a9 2f       	mov	r26, r25
     4a8:	98 2f       	mov	r25, r24
     4aa:	88 27       	eor	r24, r24
     4ac:	20 81       	ld	r18, Z
     4ae:	bc 01       	movw	r22, r24
     4b0:	cd 01       	movw	r24, r26
     4b2:	62 2b       	or	r22, r18
     4b4:	08 95       	ret

000004b6 <st_word>:
     4b6:	fc 01       	movw	r30, r24
     4b8:	60 83       	st	Z, r22
     4ba:	71 83       	std	Z+1, r23	; 0x01
     4bc:	08 95       	ret

000004be <st_dword>:
     4be:	fc 01       	movw	r30, r24
     4c0:	40 83       	st	Z, r20
     4c2:	51 83       	std	Z+1, r21	; 0x01
     4c4:	62 83       	std	Z+2, r22	; 0x02
     4c6:	73 83       	std	Z+3, r23	; 0x03
     4c8:	08 95       	ret

000004ca <mem_cpy>:
     4ca:	dc 01       	movw	r26, r24
     4cc:	fb 01       	movw	r30, r22
     4ce:	41 15       	cp	r20, r1
     4d0:	51 05       	cpc	r21, r1
     4d2:	49 f0       	breq	.+18     	; 0x4e6 <mem_cpy+0x1c>
     4d4:	80 81       	ld	r24, Z
     4d6:	8c 93       	st	X, r24
     4d8:	41 50       	subi	r20, 0x01	; 1
     4da:	51 09       	sbc	r21, r1
     4dc:	11 96       	adiw	r26, 0x01	; 1
     4de:	31 96       	adiw	r30, 0x01	; 1
     4e0:	41 15       	cp	r20, r1
     4e2:	51 05       	cpc	r21, r1
     4e4:	b9 f7       	brne	.-18     	; 0x4d4 <mem_cpy+0xa>
     4e6:	08 95       	ret

000004e8 <mem_set>:
     4e8:	fc 01       	movw	r30, r24
     4ea:	60 83       	st	Z, r22
     4ec:	41 50       	subi	r20, 0x01	; 1
     4ee:	51 09       	sbc	r21, r1
     4f0:	31 96       	adiw	r30, 0x01	; 1
     4f2:	41 15       	cp	r20, r1
     4f4:	51 05       	cpc	r21, r1
     4f6:	c9 f7       	brne	.-14     	; 0x4ea <mem_set+0x2>
     4f8:	08 95       	ret

000004fa <mem_cmp>:
     4fa:	cf 93       	push	r28
     4fc:	df 93       	push	r29
     4fe:	dc 01       	movw	r26, r24
     500:	fb 01       	movw	r30, r22
     502:	ed 01       	movw	r28, r26
     504:	21 96       	adiw	r28, 0x01	; 1
     506:	8c 91       	ld	r24, X
     508:	90 e0       	ldi	r25, 0x00	; 0
     50a:	bf 01       	movw	r22, r30
     50c:	6f 5f       	subi	r22, 0xFF	; 255
     50e:	7f 4f       	sbci	r23, 0xFF	; 255
     510:	20 81       	ld	r18, Z
     512:	82 1b       	sub	r24, r18
     514:	91 09       	sbc	r25, r1
     516:	41 50       	subi	r20, 0x01	; 1
     518:	51 09       	sbc	r21, r1
     51a:	21 f0       	breq	.+8      	; 0x524 <mem_cmp+0x2a>
     51c:	de 01       	movw	r26, r28
     51e:	fb 01       	movw	r30, r22
     520:	00 97       	sbiw	r24, 0x00	; 0
     522:	79 f3       	breq	.-34     	; 0x502 <mem_cmp+0x8>
     524:	df 91       	pop	r29
     526:	cf 91       	pop	r28
     528:	08 95       	ret

0000052a <chk_chr>:
     52a:	fc 01       	movw	r30, r24
     52c:	01 c0       	rjmp	.+2      	; 0x530 <chk_chr+0x6>
     52e:	31 96       	adiw	r30, 0x01	; 1
     530:	80 81       	ld	r24, Z
     532:	88 23       	and	r24, r24
     534:	29 f0       	breq	.+10     	; 0x540 <chk_chr+0x16>
     536:	28 2f       	mov	r18, r24
     538:	30 e0       	ldi	r19, 0x00	; 0
     53a:	26 17       	cp	r18, r22
     53c:	37 07       	cpc	r19, r23
     53e:	b9 f7       	brne	.-18     	; 0x52e <chk_chr+0x4>
     540:	90 e0       	ldi	r25, 0x00	; 0
     542:	08 95       	ret

00000544 <dbc_1st>:
     544:	81 38       	cpi	r24, 0x81	; 129
     546:	48 f0       	brcs	.+18     	; 0x55a <dbc_1st+0x16>
     548:	80 3a       	cpi	r24, 0xA0	; 160
     54a:	50 f0       	brcs	.+20     	; 0x560 <dbc_1st+0x1c>
     54c:	80 3e       	cpi	r24, 0xE0	; 224
     54e:	58 f0       	brcs	.+22     	; 0x566 <dbc_1st+0x22>
     550:	8d 3f       	cpi	r24, 0xFD	; 253
     552:	60 f0       	brcs	.+24     	; 0x56c <dbc_1st+0x28>
     554:	80 e0       	ldi	r24, 0x00	; 0
     556:	90 e0       	ldi	r25, 0x00	; 0
     558:	08 95       	ret
     55a:	80 e0       	ldi	r24, 0x00	; 0
     55c:	90 e0       	ldi	r25, 0x00	; 0
     55e:	08 95       	ret
     560:	81 e0       	ldi	r24, 0x01	; 1
     562:	90 e0       	ldi	r25, 0x00	; 0
     564:	08 95       	ret
     566:	80 e0       	ldi	r24, 0x00	; 0
     568:	90 e0       	ldi	r25, 0x00	; 0
     56a:	08 95       	ret
     56c:	81 e0       	ldi	r24, 0x01	; 1
     56e:	90 e0       	ldi	r25, 0x00	; 0
     570:	08 95       	ret

00000572 <dbc_2nd>:
     572:	80 34       	cpi	r24, 0x40	; 64
     574:	58 f0       	brcs	.+22     	; 0x58c <dbc_2nd+0x1a>
     576:	8f 37       	cpi	r24, 0x7F	; 127
     578:	60 f0       	brcs	.+24     	; 0x592 <dbc_2nd+0x20>
     57a:	80 38       	cpi	r24, 0x80	; 128
     57c:	10 f0       	brcs	.+4      	; 0x582 <dbc_2nd+0x10>
     57e:	8d 3f       	cpi	r24, 0xFD	; 253
     580:	58 f0       	brcs	.+22     	; 0x598 <dbc_2nd+0x26>
     582:	88 23       	and	r24, r24
     584:	61 f0       	breq	.+24     	; 0x59e <dbc_2nd+0x2c>
     586:	80 e0       	ldi	r24, 0x00	; 0
     588:	90 e0       	ldi	r25, 0x00	; 0
     58a:	08 95       	ret
     58c:	80 e0       	ldi	r24, 0x00	; 0
     58e:	90 e0       	ldi	r25, 0x00	; 0
     590:	08 95       	ret
     592:	81 e0       	ldi	r24, 0x01	; 1
     594:	90 e0       	ldi	r25, 0x00	; 0
     596:	08 95       	ret
     598:	81 e0       	ldi	r24, 0x01	; 1
     59a:	90 e0       	ldi	r25, 0x00	; 0
     59c:	08 95       	ret
     59e:	81 e0       	ldi	r24, 0x01	; 1
     5a0:	90 e0       	ldi	r25, 0x00	; 0
     5a2:	08 95       	ret

000005a4 <clst2sect>:
     5a4:	cf 92       	push	r12
     5a6:	df 92       	push	r13
     5a8:	ef 92       	push	r14
     5aa:	ff 92       	push	r15
     5ac:	fc 01       	movw	r30, r24
     5ae:	9a 01       	movw	r18, r20
     5b0:	ab 01       	movw	r20, r22
     5b2:	22 50       	subi	r18, 0x02	; 2
     5b4:	31 09       	sbc	r19, r1
     5b6:	41 09       	sbc	r20, r1
     5b8:	51 09       	sbc	r21, r1
     5ba:	c7 88       	ldd	r12, Z+23	; 0x17
     5bc:	d0 8c       	ldd	r13, Z+24	; 0x18
     5be:	e1 8c       	ldd	r14, Z+25	; 0x19
     5c0:	f2 8c       	ldd	r15, Z+26	; 0x1a
     5c2:	82 e0       	ldi	r24, 0x02	; 2
     5c4:	c8 1a       	sub	r12, r24
     5c6:	d1 08       	sbc	r13, r1
     5c8:	e1 08       	sbc	r14, r1
     5ca:	f1 08       	sbc	r15, r1
     5cc:	2c 15       	cp	r18, r12
     5ce:	3d 05       	cpc	r19, r13
     5d0:	4e 05       	cpc	r20, r14
     5d2:	5f 05       	cpc	r21, r15
     5d4:	68 f4       	brcc	.+26     	; 0x5f0 <clst2sect+0x4c>
     5d6:	c3 a4       	ldd	r12, Z+43	; 0x2b
     5d8:	d4 a4       	ldd	r13, Z+44	; 0x2c
     5da:	e5 a4       	ldd	r14, Z+45	; 0x2d
     5dc:	f6 a4       	ldd	r15, Z+46	; 0x2e
     5de:	a1 85       	ldd	r26, Z+9	; 0x09
     5e0:	b2 85       	ldd	r27, Z+10	; 0x0a
     5e2:	0e 94 6d 37 	call	0x6eda	; 0x6eda <__muluhisi3>
     5e6:	6c 0d       	add	r22, r12
     5e8:	7d 1d       	adc	r23, r13
     5ea:	8e 1d       	adc	r24, r14
     5ec:	9f 1d       	adc	r25, r15
     5ee:	03 c0       	rjmp	.+6      	; 0x5f6 <clst2sect+0x52>
     5f0:	60 e0       	ldi	r22, 0x00	; 0
     5f2:	70 e0       	ldi	r23, 0x00	; 0
     5f4:	cb 01       	movw	r24, r22
     5f6:	ff 90       	pop	r15
     5f8:	ef 90       	pop	r14
     5fa:	df 90       	pop	r13
     5fc:	cf 90       	pop	r12
     5fe:	08 95       	ret

00000600 <ld_clust>:
     600:	cf 92       	push	r12
     602:	df 92       	push	r13
     604:	ef 92       	push	r14
     606:	ff 92       	push	r15
     608:	0f 93       	push	r16
     60a:	1f 93       	push	r17
     60c:	cf 93       	push	r28
     60e:	df 93       	push	r29
     610:	8c 01       	movw	r16, r24
     612:	eb 01       	movw	r28, r22
     614:	cb 01       	movw	r24, r22
     616:	4a 96       	adiw	r24, 0x1a	; 26
     618:	0e 94 36 02 	call	0x46c	; 0x46c <ld_word>
     61c:	6c 01       	movw	r12, r24
     61e:	e1 2c       	mov	r14, r1
     620:	f1 2c       	mov	r15, r1
     622:	f8 01       	movw	r30, r16
     624:	80 81       	ld	r24, Z
     626:	83 30       	cpi	r24, 0x03	; 3
     628:	69 f4       	brne	.+26     	; 0x644 <ld_clust+0x44>
     62a:	ce 01       	movw	r24, r28
     62c:	44 96       	adiw	r24, 0x14	; 20
     62e:	0e 94 36 02 	call	0x46c	; 0x46c <ld_word>
     632:	a0 e0       	ldi	r26, 0x00	; 0
     634:	b0 e0       	ldi	r27, 0x00	; 0
     636:	dc 01       	movw	r26, r24
     638:	99 27       	eor	r25, r25
     63a:	88 27       	eor	r24, r24
     63c:	c8 2a       	or	r12, r24
     63e:	d9 2a       	or	r13, r25
     640:	ea 2a       	or	r14, r26
     642:	fb 2a       	or	r15, r27
     644:	c7 01       	movw	r24, r14
     646:	b6 01       	movw	r22, r12
     648:	df 91       	pop	r29
     64a:	cf 91       	pop	r28
     64c:	1f 91       	pop	r17
     64e:	0f 91       	pop	r16
     650:	ff 90       	pop	r15
     652:	ef 90       	pop	r14
     654:	df 90       	pop	r13
     656:	cf 90       	pop	r12
     658:	08 95       	ret

0000065a <st_clust>:
     65a:	cf 92       	push	r12
     65c:	df 92       	push	r13
     65e:	ef 92       	push	r14
     660:	ff 92       	push	r15
     662:	0f 93       	push	r16
     664:	1f 93       	push	r17
     666:	cf 93       	push	r28
     668:	df 93       	push	r29
     66a:	8c 01       	movw	r16, r24
     66c:	eb 01       	movw	r28, r22
     66e:	69 01       	movw	r12, r18
     670:	7a 01       	movw	r14, r20
     672:	b9 01       	movw	r22, r18
     674:	ce 01       	movw	r24, r28
     676:	4a 96       	adiw	r24, 0x1a	; 26
     678:	0e 94 5b 02 	call	0x4b6	; 0x4b6 <st_word>
     67c:	f8 01       	movw	r30, r16
     67e:	80 81       	ld	r24, Z
     680:	83 30       	cpi	r24, 0x03	; 3
     682:	39 f4       	brne	.+14     	; 0x692 <st_clust+0x38>
     684:	b7 01       	movw	r22, r14
     686:	88 27       	eor	r24, r24
     688:	99 27       	eor	r25, r25
     68a:	ce 01       	movw	r24, r28
     68c:	44 96       	adiw	r24, 0x14	; 20
     68e:	0e 94 5b 02 	call	0x4b6	; 0x4b6 <st_word>
     692:	df 91       	pop	r29
     694:	cf 91       	pop	r28
     696:	1f 91       	pop	r17
     698:	0f 91       	pop	r16
     69a:	ff 90       	pop	r15
     69c:	ef 90       	pop	r14
     69e:	df 90       	pop	r13
     6a0:	cf 90       	pop	r12
     6a2:	08 95       	ret

000006a4 <create_name>:
     6a4:	3f 92       	push	r3
     6a6:	4f 92       	push	r4
     6a8:	5f 92       	push	r5
     6aa:	6f 92       	push	r6
     6ac:	7f 92       	push	r7
     6ae:	8f 92       	push	r8
     6b0:	9f 92       	push	r9
     6b2:	af 92       	push	r10
     6b4:	bf 92       	push	r11
     6b6:	cf 92       	push	r12
     6b8:	df 92       	push	r13
     6ba:	ef 92       	push	r14
     6bc:	ff 92       	push	r15
     6be:	0f 93       	push	r16
     6c0:	1f 93       	push	r17
     6c2:	cf 93       	push	r28
     6c4:	df 93       	push	r29
     6c6:	3c 01       	movw	r6, r24
     6c8:	2b 01       	movw	r4, r22
     6ca:	fb 01       	movw	r30, r22
     6cc:	c0 81       	ld	r28, Z
     6ce:	d1 81       	ldd	r29, Z+1	; 0x01
     6d0:	5c 01       	movw	r10, r24
     6d2:	fc e1       	ldi	r31, 0x1C	; 28
     6d4:	af 0e       	add	r10, r31
     6d6:	b1 1c       	adc	r11, r1
     6d8:	4b e0       	ldi	r20, 0x0B	; 11
     6da:	50 e0       	ldi	r21, 0x00	; 0
     6dc:	60 e2       	ldi	r22, 0x20	; 32
     6de:	70 e0       	ldi	r23, 0x00	; 0
     6e0:	c5 01       	movw	r24, r10
     6e2:	0e 94 74 02 	call	0x4e8	; 0x4e8 <mem_set>
     6e6:	88 81       	ld	r24, Y
     6e8:	8e 32       	cpi	r24, 0x2E	; 46
     6ea:	69 f5       	brne	.+90     	; 0x746 <create_name+0xa2>
     6ec:	40 e0       	ldi	r20, 0x00	; 0
     6ee:	50 e0       	ldi	r21, 0x00	; 0
     6f0:	80 e0       	ldi	r24, 0x00	; 0
     6f2:	90 e0       	ldi	r25, 0x00	; 0
     6f4:	9c 01       	movw	r18, r24
     6f6:	2f 5f       	subi	r18, 0xFF	; 255
     6f8:	3f 4f       	sbci	r19, 0xFF	; 255
     6fa:	fe 01       	movw	r30, r28
     6fc:	e8 0f       	add	r30, r24
     6fe:	f9 1f       	adc	r31, r25
     700:	80 81       	ld	r24, Z
     702:	8e 32       	cpi	r24, 0x2E	; 46
     704:	59 f4       	brne	.+22     	; 0x71c <create_name+0x78>
     706:	23 30       	cpi	r18, 0x03	; 3
     708:	31 05       	cpc	r19, r1
     70a:	40 f4       	brcc	.+16     	; 0x71c <create_name+0x78>
     70c:	f5 01       	movw	r30, r10
     70e:	e4 0f       	add	r30, r20
     710:	f5 1f       	adc	r31, r21
     712:	80 83       	st	Z, r24
     714:	c9 01       	movw	r24, r18
     716:	4f 5f       	subi	r20, 0xFF	; 255
     718:	5f 4f       	sbci	r21, 0xFF	; 255
     71a:	ec cf       	rjmp	.-40     	; 0x6f4 <create_name+0x50>
     71c:	8f 32       	cpi	r24, 0x2F	; 47
     71e:	29 f0       	breq	.+10     	; 0x72a <create_name+0x86>
     720:	8c 35       	cpi	r24, 0x5C	; 92
     722:	19 f0       	breq	.+6      	; 0x72a <create_name+0x86>
     724:	81 32       	cpi	r24, 0x21	; 33
     726:	08 f0       	brcs	.+2      	; 0x72a <create_name+0x86>
     728:	9f c0       	rjmp	.+318    	; 0x868 <create_name+0x1c4>
     72a:	c2 0f       	add	r28, r18
     72c:	d3 1f       	adc	r29, r19
     72e:	f2 01       	movw	r30, r4
     730:	c0 83       	st	Z, r28
     732:	d1 83       	std	Z+1, r29	; 0x01
     734:	81 32       	cpi	r24, 0x21	; 33
     736:	10 f4       	brcc	.+4      	; 0x73c <create_name+0x98>
     738:	84 e2       	ldi	r24, 0x24	; 36
     73a:	01 c0       	rjmp	.+2      	; 0x73e <create_name+0x9a>
     73c:	80 e2       	ldi	r24, 0x20	; 32
     73e:	f3 01       	movw	r30, r6
     740:	87 a3       	std	Z+39, r24	; 0x27
     742:	80 e0       	ldi	r24, 0x00	; 0
     744:	9e c0       	rjmp	.+316    	; 0x882 <create_name+0x1de>
     746:	c1 2c       	mov	r12, r1
     748:	d1 2c       	mov	r13, r1
     74a:	e1 2c       	mov	r14, r1
     74c:	f1 2c       	mov	r15, r1
     74e:	68 94       	set
     750:	88 24       	eor	r8, r8
     752:	83 f8       	bld	r8, 3
     754:	91 2c       	mov	r9, r1
     756:	87 01       	movw	r16, r14
     758:	0f 5f       	subi	r16, 0xFF	; 255
     75a:	1f 4f       	sbci	r17, 0xFF	; 255
     75c:	fe 01       	movw	r30, r28
     75e:	ee 0d       	add	r30, r14
     760:	ff 1d       	adc	r31, r15
     762:	30 80       	ld	r3, Z
     764:	f0 e2       	ldi	r31, 0x20	; 32
     766:	f3 15       	cp	r31, r3
     768:	08 f0       	brcs	.+2      	; 0x76c <create_name+0xc8>
     76a:	67 c0       	rjmp	.+206    	; 0x83a <create_name+0x196>
     76c:	8f e2       	ldi	r24, 0x2F	; 47
     76e:	38 16       	cp	r3, r24
     770:	31 f0       	breq	.+12     	; 0x77e <create_name+0xda>
     772:	9c e5       	ldi	r25, 0x5C	; 92
     774:	39 12       	cpse	r3, r25
     776:	0c c0       	rjmp	.+24     	; 0x790 <create_name+0xec>
     778:	02 c0       	rjmp	.+4      	; 0x77e <create_name+0xda>
     77a:	0f 5f       	subi	r16, 0xFF	; 255
     77c:	1f 4f       	sbci	r17, 0xFF	; 255
     77e:	fe 01       	movw	r30, r28
     780:	e0 0f       	add	r30, r16
     782:	f1 1f       	adc	r31, r17
     784:	80 81       	ld	r24, Z
     786:	8f 32       	cpi	r24, 0x2F	; 47
     788:	c1 f3       	breq	.-16     	; 0x77a <create_name+0xd6>
     78a:	8c 35       	cpi	r24, 0x5C	; 92
     78c:	b1 f3       	breq	.-20     	; 0x77a <create_name+0xd6>
     78e:	55 c0       	rjmp	.+170    	; 0x83a <create_name+0x196>
     790:	ee e2       	ldi	r30, 0x2E	; 46
     792:	3e 16       	cp	r3, r30
     794:	19 f0       	breq	.+6      	; 0x79c <create_name+0xf8>
     796:	c8 14       	cp	r12, r8
     798:	d9 04       	cpc	r13, r9
     79a:	98 f0       	brcs	.+38     	; 0x7c2 <create_name+0x11e>
     79c:	fb e0       	ldi	r31, 0x0B	; 11
     79e:	8f 16       	cp	r8, r31
     7a0:	91 04       	cpc	r9, r1
     7a2:	09 f4       	brne	.+2      	; 0x7a6 <create_name+0x102>
     7a4:	63 c0       	rjmp	.+198    	; 0x86c <create_name+0x1c8>
     7a6:	8e e2       	ldi	r24, 0x2E	; 46
     7a8:	38 12       	cpse	r3, r24
     7aa:	62 c0       	rjmp	.+196    	; 0x870 <create_name+0x1cc>
     7ac:	78 01       	movw	r14, r16
     7ae:	68 94       	set
     7b0:	cc 24       	eor	r12, r12
     7b2:	c3 f8       	bld	r12, 3
     7b4:	d1 2c       	mov	r13, r1
     7b6:	0f 2e       	mov	r0, r31
     7b8:	fb e0       	ldi	r31, 0x0B	; 11
     7ba:	8f 2e       	mov	r8, r31
     7bc:	91 2c       	mov	r9, r1
     7be:	f0 2d       	mov	r31, r0
     7c0:	ca cf       	rjmp	.-108    	; 0x756 <create_name+0xb2>
     7c2:	83 2d       	mov	r24, r3
     7c4:	0e 94 a2 02 	call	0x544	; 0x544 <dbc_1st>
     7c8:	89 2b       	or	r24, r25
     7ca:	01 f1       	breq	.+64     	; 0x80c <create_name+0x168>
     7cc:	92 e0       	ldi	r25, 0x02	; 2
     7ce:	e9 0e       	add	r14, r25
     7d0:	f1 1c       	adc	r15, r1
     7d2:	fe 01       	movw	r30, r28
     7d4:	e0 0f       	add	r30, r16
     7d6:	f1 1f       	adc	r31, r17
     7d8:	10 81       	ld	r17, Z
     7da:	81 2f       	mov	r24, r17
     7dc:	0e 94 b9 02 	call	0x572	; 0x572 <dbc_2nd>
     7e0:	89 2b       	or	r24, r25
     7e2:	09 f4       	brne	.+2      	; 0x7e6 <create_name+0x142>
     7e4:	47 c0       	rjmp	.+142    	; 0x874 <create_name+0x1d0>
     7e6:	c4 01       	movw	r24, r8
     7e8:	01 97       	sbiw	r24, 0x01	; 1
     7ea:	c8 16       	cp	r12, r24
     7ec:	d9 06       	cpc	r13, r25
     7ee:	08 f0       	brcs	.+2      	; 0x7f2 <create_name+0x14e>
     7f0:	43 c0       	rjmp	.+134    	; 0x878 <create_name+0x1d4>
     7f2:	f5 01       	movw	r30, r10
     7f4:	ec 0d       	add	r30, r12
     7f6:	fd 1d       	adc	r31, r13
     7f8:	30 82       	st	Z, r3
     7fa:	f6 01       	movw	r30, r12
     7fc:	31 96       	adiw	r30, 0x01	; 1
     7fe:	ea 0d       	add	r30, r10
     800:	fb 1d       	adc	r31, r11
     802:	82 e0       	ldi	r24, 0x02	; 2
     804:	c8 0e       	add	r12, r24
     806:	d1 1c       	adc	r13, r1
     808:	10 83       	st	Z, r17
     80a:	a5 cf       	rjmp	.-182    	; 0x756 <create_name+0xb2>
     80c:	63 2d       	mov	r22, r3
     80e:	70 e0       	ldi	r23, 0x00	; 0
     810:	87 e3       	ldi	r24, 0x37	; 55
     812:	90 e6       	ldi	r25, 0x60	; 96
     814:	0e 94 95 02 	call	0x52a	; 0x52a <chk_chr>
     818:	89 2b       	or	r24, r25
     81a:	81 f5       	brne	.+96     	; 0x87c <create_name+0x1d8>
     81c:	8f e9       	ldi	r24, 0x9F	; 159
     81e:	83 0d       	add	r24, r3
     820:	8a 31       	cpi	r24, 0x1A	; 26
     822:	10 f4       	brcc	.+4      	; 0x828 <create_name+0x184>
     824:	90 ee       	ldi	r25, 0xE0	; 224
     826:	39 0e       	add	r3, r25
     828:	f5 01       	movw	r30, r10
     82a:	ec 0d       	add	r30, r12
     82c:	fd 1d       	adc	r31, r13
     82e:	30 82       	st	Z, r3
     830:	f6 01       	movw	r30, r12
     832:	31 96       	adiw	r30, 0x01	; 1
     834:	6f 01       	movw	r12, r30
     836:	78 01       	movw	r14, r16
     838:	8e cf       	rjmp	.-228    	; 0x756 <create_name+0xb2>
     83a:	c0 0f       	add	r28, r16
     83c:	d1 1f       	adc	r29, r17
     83e:	f2 01       	movw	r30, r4
     840:	c0 83       	st	Z, r28
     842:	d1 83       	std	Z+1, r29	; 0x01
     844:	cd 28       	or	r12, r13
     846:	e1 f0       	breq	.+56     	; 0x880 <create_name+0x1dc>
     848:	f3 01       	movw	r30, r6
     84a:	84 8d       	ldd	r24, Z+28	; 0x1c
     84c:	85 3e       	cpi	r24, 0xE5	; 229
     84e:	11 f4       	brne	.+4      	; 0x854 <create_name+0x1b0>
     850:	85 e0       	ldi	r24, 0x05	; 5
     852:	84 8f       	std	Z+28, r24	; 0x1c
     854:	f0 e2       	ldi	r31, 0x20	; 32
     856:	f3 15       	cp	r31, r3
     858:	10 f0       	brcs	.+4      	; 0x85e <create_name+0x1ba>
     85a:	84 e0       	ldi	r24, 0x04	; 4
     85c:	01 c0       	rjmp	.+2      	; 0x860 <create_name+0x1bc>
     85e:	80 e0       	ldi	r24, 0x00	; 0
     860:	f3 01       	movw	r30, r6
     862:	87 a3       	std	Z+39, r24	; 0x27
     864:	80 e0       	ldi	r24, 0x00	; 0
     866:	0d c0       	rjmp	.+26     	; 0x882 <create_name+0x1de>
     868:	86 e0       	ldi	r24, 0x06	; 6
     86a:	0b c0       	rjmp	.+22     	; 0x882 <create_name+0x1de>
     86c:	86 e0       	ldi	r24, 0x06	; 6
     86e:	09 c0       	rjmp	.+18     	; 0x882 <create_name+0x1de>
     870:	86 e0       	ldi	r24, 0x06	; 6
     872:	07 c0       	rjmp	.+14     	; 0x882 <create_name+0x1de>
     874:	86 e0       	ldi	r24, 0x06	; 6
     876:	05 c0       	rjmp	.+10     	; 0x882 <create_name+0x1de>
     878:	86 e0       	ldi	r24, 0x06	; 6
     87a:	03 c0       	rjmp	.+6      	; 0x882 <create_name+0x1de>
     87c:	86 e0       	ldi	r24, 0x06	; 6
     87e:	01 c0       	rjmp	.+2      	; 0x882 <create_name+0x1de>
     880:	86 e0       	ldi	r24, 0x06	; 6
     882:	df 91       	pop	r29
     884:	cf 91       	pop	r28
     886:	1f 91       	pop	r17
     888:	0f 91       	pop	r16
     88a:	ff 90       	pop	r15
     88c:	ef 90       	pop	r14
     88e:	df 90       	pop	r13
     890:	cf 90       	pop	r12
     892:	bf 90       	pop	r11
     894:	af 90       	pop	r10
     896:	9f 90       	pop	r9
     898:	8f 90       	pop	r8
     89a:	7f 90       	pop	r7
     89c:	6f 90       	pop	r6
     89e:	5f 90       	pop	r5
     8a0:	4f 90       	pop	r4
     8a2:	3f 90       	pop	r3
     8a4:	08 95       	ret

000008a6 <get_ldnumber>:
     8a6:	cf 93       	push	r28
     8a8:	df 93       	push	r29
     8aa:	ec 01       	movw	r28, r24
     8ac:	a8 81       	ld	r26, Y
     8ae:	b9 81       	ldd	r27, Y+1	; 0x01
     8b0:	10 97       	sbiw	r26, 0x00	; 0
     8b2:	29 f4       	brne	.+10     	; 0x8be <get_ldnumber+0x18>
     8b4:	8f ef       	ldi	r24, 0xFF	; 255
     8b6:	9f ef       	ldi	r25, 0xFF	; 255
     8b8:	2a c0       	rjmp	.+84     	; 0x90e <get_ldnumber+0x68>
     8ba:	31 96       	adiw	r30, 0x01	; 1
     8bc:	01 c0       	rjmp	.+2      	; 0x8c0 <get_ldnumber+0x1a>
     8be:	fd 01       	movw	r30, r26
     8c0:	90 81       	ld	r25, Z
     8c2:	91 32       	cpi	r25, 0x21	; 33
     8c4:	10 f0       	brcs	.+4      	; 0x8ca <get_ldnumber+0x24>
     8c6:	9a 33       	cpi	r25, 0x3A	; 58
     8c8:	c1 f7       	brne	.-16     	; 0x8ba <get_ldnumber+0x14>
     8ca:	9a 33       	cpi	r25, 0x3A	; 58
     8cc:	a9 f4       	brne	.+42     	; 0x8f8 <get_ldnumber+0x52>
     8ce:	cd 01       	movw	r24, r26
     8d0:	01 96       	adiw	r24, 0x01	; 1
     8d2:	2c 91       	ld	r18, X
     8d4:	30 e0       	ldi	r19, 0x00	; 0
     8d6:	20 53       	subi	r18, 0x30	; 48
     8d8:	31 09       	sbc	r19, r1
     8da:	2a 30       	cpi	r18, 0x0A	; 10
     8dc:	31 05       	cpc	r19, r1
     8de:	78 f4       	brcc	.+30     	; 0x8fe <get_ldnumber+0x58>
     8e0:	e8 17       	cp	r30, r24
     8e2:	f9 07       	cpc	r31, r25
     8e4:	79 f4       	brne	.+30     	; 0x904 <get_ldnumber+0x5e>
     8e6:	21 15       	cp	r18, r1
     8e8:	31 05       	cpc	r19, r1
     8ea:	79 f4       	brne	.+30     	; 0x90a <get_ldnumber+0x64>
     8ec:	82 2f       	mov	r24, r18
     8ee:	93 2f       	mov	r25, r19
     8f0:	31 96       	adiw	r30, 0x01	; 1
     8f2:	e8 83       	st	Y, r30
     8f4:	f9 83       	std	Y+1, r31	; 0x01
     8f6:	0b c0       	rjmp	.+22     	; 0x90e <get_ldnumber+0x68>
     8f8:	80 e0       	ldi	r24, 0x00	; 0
     8fa:	90 e0       	ldi	r25, 0x00	; 0
     8fc:	08 c0       	rjmp	.+16     	; 0x90e <get_ldnumber+0x68>
     8fe:	8f ef       	ldi	r24, 0xFF	; 255
     900:	9f ef       	ldi	r25, 0xFF	; 255
     902:	05 c0       	rjmp	.+10     	; 0x90e <get_ldnumber+0x68>
     904:	8f ef       	ldi	r24, 0xFF	; 255
     906:	9f ef       	ldi	r25, 0xFF	; 255
     908:	02 c0       	rjmp	.+4      	; 0x90e <get_ldnumber+0x68>
     90a:	8f ef       	ldi	r24, 0xFF	; 255
     90c:	9f ef       	ldi	r25, 0xFF	; 255
     90e:	df 91       	pop	r29
     910:	cf 91       	pop	r28
     912:	08 95       	ret

00000914 <putc_init>:
     914:	fc 01       	movw	r30, r24
     916:	60 83       	st	Z, r22
     918:	71 83       	std	Z+1, r23	; 0x01
     91a:	12 82       	std	Z+2, r1	; 0x02
     91c:	13 82       	std	Z+3, r1	; 0x03
     91e:	14 82       	std	Z+4, r1	; 0x04
     920:	15 82       	std	Z+5, r1	; 0x05
     922:	08 95       	ret

00000924 <validate>:
     924:	0f 93       	push	r16
     926:	1f 93       	push	r17
     928:	cf 93       	push	r28
     92a:	df 93       	push	r29
     92c:	ec 01       	movw	r28, r24
     92e:	8b 01       	movw	r16, r22
     930:	89 2b       	or	r24, r25
     932:	a9 f0       	breq	.+42     	; 0x95e <validate+0x3a>
     934:	e8 81       	ld	r30, Y
     936:	f9 81       	ldd	r31, Y+1	; 0x01
     938:	30 97       	sbiw	r30, 0x00	; 0
     93a:	99 f0       	breq	.+38     	; 0x962 <validate+0x3e>
     93c:	80 81       	ld	r24, Z
     93e:	88 23       	and	r24, r24
     940:	91 f0       	breq	.+36     	; 0x966 <validate+0x42>
     942:	2a 81       	ldd	r18, Y+2	; 0x02
     944:	3b 81       	ldd	r19, Y+3	; 0x03
     946:	85 81       	ldd	r24, Z+5	; 0x05
     948:	96 81       	ldd	r25, Z+6	; 0x06
     94a:	28 17       	cp	r18, r24
     94c:	39 07       	cpc	r19, r25
     94e:	69 f4       	brne	.+26     	; 0x96a <validate+0x46>
     950:	81 81       	ldd	r24, Z+1	; 0x01
     952:	0e 94 d1 1b 	call	0x37a2	; 0x37a2 <disk_status>
     956:	80 ff       	sbrs	r24, 0
     958:	0a c0       	rjmp	.+20     	; 0x96e <validate+0x4a>
     95a:	89 e0       	ldi	r24, 0x09	; 9
     95c:	09 c0       	rjmp	.+18     	; 0x970 <validate+0x4c>
     95e:	89 e0       	ldi	r24, 0x09	; 9
     960:	07 c0       	rjmp	.+14     	; 0x970 <validate+0x4c>
     962:	89 e0       	ldi	r24, 0x09	; 9
     964:	05 c0       	rjmp	.+10     	; 0x970 <validate+0x4c>
     966:	89 e0       	ldi	r24, 0x09	; 9
     968:	03 c0       	rjmp	.+6      	; 0x970 <validate+0x4c>
     96a:	89 e0       	ldi	r24, 0x09	; 9
     96c:	01 c0       	rjmp	.+2      	; 0x970 <validate+0x4c>
     96e:	80 e0       	ldi	r24, 0x00	; 0
     970:	81 11       	cpse	r24, r1
     972:	03 c0       	rjmp	.+6      	; 0x97a <validate+0x56>
     974:	28 81       	ld	r18, Y
     976:	39 81       	ldd	r19, Y+1	; 0x01
     978:	02 c0       	rjmp	.+4      	; 0x97e <validate+0x5a>
     97a:	20 e0       	ldi	r18, 0x00	; 0
     97c:	30 e0       	ldi	r19, 0x00	; 0
     97e:	f8 01       	movw	r30, r16
     980:	20 83       	st	Z, r18
     982:	31 83       	std	Z+1, r19	; 0x01
     984:	df 91       	pop	r29
     986:	cf 91       	pop	r28
     988:	1f 91       	pop	r17
     98a:	0f 91       	pop	r16
     98c:	08 95       	ret

0000098e <sync_window>:
     98e:	8f 92       	push	r8
     990:	9f 92       	push	r9
     992:	af 92       	push	r10
     994:	bf 92       	push	r11
     996:	ef 92       	push	r14
     998:	ff 92       	push	r15
     99a:	0f 93       	push	r16
     99c:	1f 93       	push	r17
     99e:	cf 93       	push	r28
     9a0:	df 93       	push	r29
     9a2:	fc 01       	movw	r30, r24
     9a4:	23 81       	ldd	r18, Z+3	; 0x03
     9a6:	22 23       	and	r18, r18
     9a8:	d1 f1       	breq	.+116    	; 0xa1e <sync_window+0x90>
     9aa:	ec 01       	movw	r28, r24
     9ac:	7c 01       	movw	r14, r24
     9ae:	f3 e3       	ldi	r31, 0x33	; 51
     9b0:	ef 0e       	add	r14, r31
     9b2:	f1 1c       	adc	r15, r1
     9b4:	2f a5       	ldd	r18, Y+47	; 0x2f
     9b6:	38 a9       	ldd	r19, Y+48	; 0x30
     9b8:	49 a9       	ldd	r20, Y+49	; 0x31
     9ba:	5a a9       	ldd	r21, Y+50	; 0x32
     9bc:	01 e0       	ldi	r16, 0x01	; 1
     9be:	10 e0       	ldi	r17, 0x00	; 0
     9c0:	b7 01       	movw	r22, r14
     9c2:	89 81       	ldd	r24, Y+1	; 0x01
     9c4:	0e 94 df 1b 	call	0x37be	; 0x37be <disk_write>
     9c8:	81 11       	cpse	r24, r1
     9ca:	2b c0       	rjmp	.+86     	; 0xa22 <sync_window+0x94>
     9cc:	1b 82       	std	Y+3, r1	; 0x03
     9ce:	0f a5       	ldd	r16, Y+47	; 0x2f
     9d0:	18 a9       	ldd	r17, Y+48	; 0x30
     9d2:	29 a9       	ldd	r18, Y+49	; 0x31
     9d4:	3a a9       	ldd	r19, Y+50	; 0x32
     9d6:	8b a1       	ldd	r24, Y+35	; 0x23
     9d8:	9c a1       	ldd	r25, Y+36	; 0x24
     9da:	ad a1       	ldd	r26, Y+37	; 0x25
     9dc:	be a1       	ldd	r27, Y+38	; 0x26
     9de:	48 01       	movw	r8, r16
     9e0:	59 01       	movw	r10, r18
     9e2:	88 1a       	sub	r8, r24
     9e4:	99 0a       	sbc	r9, r25
     9e6:	aa 0a       	sbc	r10, r26
     9e8:	bb 0a       	sbc	r11, r27
     9ea:	8b 8d       	ldd	r24, Y+27	; 0x1b
     9ec:	9c 8d       	ldd	r25, Y+28	; 0x1c
     9ee:	ad 8d       	ldd	r26, Y+29	; 0x1d
     9f0:	be 8d       	ldd	r27, Y+30	; 0x1e
     9f2:	88 16       	cp	r8, r24
     9f4:	99 06       	cpc	r9, r25
     9f6:	aa 06       	cpc	r10, r26
     9f8:	bb 06       	cpc	r11, r27
     9fa:	a8 f4       	brcc	.+42     	; 0xa26 <sync_window+0x98>
     9fc:	6a 81       	ldd	r22, Y+2	; 0x02
     9fe:	62 30       	cpi	r22, 0x02	; 2
     a00:	a1 f4       	brne	.+40     	; 0xa2a <sync_window+0x9c>
     a02:	a9 01       	movw	r20, r18
     a04:	98 01       	movw	r18, r16
     a06:	28 0f       	add	r18, r24
     a08:	39 1f       	adc	r19, r25
     a0a:	4a 1f       	adc	r20, r26
     a0c:	5b 1f       	adc	r21, r27
     a0e:	01 e0       	ldi	r16, 0x01	; 1
     a10:	10 e0       	ldi	r17, 0x00	; 0
     a12:	b7 01       	movw	r22, r14
     a14:	89 81       	ldd	r24, Y+1	; 0x01
     a16:	0e 94 df 1b 	call	0x37be	; 0x37be <disk_write>
     a1a:	80 e0       	ldi	r24, 0x00	; 0
     a1c:	07 c0       	rjmp	.+14     	; 0xa2c <sync_window+0x9e>
     a1e:	80 e0       	ldi	r24, 0x00	; 0
     a20:	05 c0       	rjmp	.+10     	; 0xa2c <sync_window+0x9e>
     a22:	81 e0       	ldi	r24, 0x01	; 1
     a24:	03 c0       	rjmp	.+6      	; 0xa2c <sync_window+0x9e>
     a26:	80 e0       	ldi	r24, 0x00	; 0
     a28:	01 c0       	rjmp	.+2      	; 0xa2c <sync_window+0x9e>
     a2a:	80 e0       	ldi	r24, 0x00	; 0
     a2c:	df 91       	pop	r29
     a2e:	cf 91       	pop	r28
     a30:	1f 91       	pop	r17
     a32:	0f 91       	pop	r16
     a34:	ff 90       	pop	r15
     a36:	ef 90       	pop	r14
     a38:	bf 90       	pop	r11
     a3a:	af 90       	pop	r10
     a3c:	9f 90       	pop	r9
     a3e:	8f 90       	pop	r8
     a40:	08 95       	ret

00000a42 <move_window>:
     a42:	8f 92       	push	r8
     a44:	9f 92       	push	r9
     a46:	af 92       	push	r10
     a48:	bf 92       	push	r11
     a4a:	ff 92       	push	r15
     a4c:	0f 93       	push	r16
     a4e:	1f 93       	push	r17
     a50:	cf 93       	push	r28
     a52:	df 93       	push	r29
     a54:	ec 01       	movw	r28, r24
     a56:	4a 01       	movw	r8, r20
     a58:	5b 01       	movw	r10, r22
     a5a:	8f a5       	ldd	r24, Y+47	; 0x2f
     a5c:	98 a9       	ldd	r25, Y+48	; 0x30
     a5e:	a9 a9       	ldd	r26, Y+49	; 0x31
     a60:	ba a9       	ldd	r27, Y+50	; 0x32
     a62:	84 17       	cp	r24, r20
     a64:	95 07       	cpc	r25, r21
     a66:	a6 07       	cpc	r26, r22
     a68:	b7 07       	cpc	r27, r23
     a6a:	e9 f0       	breq	.+58     	; 0xaa6 <move_window+0x64>
     a6c:	ce 01       	movw	r24, r28
     a6e:	0e 94 c7 04 	call	0x98e	; 0x98e <sync_window>
     a72:	f8 2e       	mov	r15, r24
     a74:	81 11       	cpse	r24, r1
     a76:	18 c0       	rjmp	.+48     	; 0xaa8 <move_window+0x66>
     a78:	01 e0       	ldi	r16, 0x01	; 1
     a7a:	10 e0       	ldi	r17, 0x00	; 0
     a7c:	a5 01       	movw	r20, r10
     a7e:	94 01       	movw	r18, r8
     a80:	be 01       	movw	r22, r28
     a82:	6d 5c       	subi	r22, 0xCD	; 205
     a84:	7f 4f       	sbci	r23, 0xFF	; 255
     a86:	89 81       	ldd	r24, Y+1	; 0x01
     a88:	0e 94 d4 1b 	call	0x37a8	; 0x37a8 <disk_read>
     a8c:	88 23       	and	r24, r24
     a8e:	31 f0       	breq	.+12     	; 0xa9c <move_window+0x5a>
     a90:	ff 24       	eor	r15, r15
     a92:	f3 94       	inc	r15
     a94:	88 24       	eor	r8, r8
     a96:	8a 94       	dec	r8
     a98:	98 2c       	mov	r9, r8
     a9a:	54 01       	movw	r10, r8
     a9c:	8f a6       	std	Y+47, r8	; 0x2f
     a9e:	98 aa       	std	Y+48, r9	; 0x30
     aa0:	a9 aa       	std	Y+49, r10	; 0x31
     aa2:	ba aa       	std	Y+50, r11	; 0x32
     aa4:	01 c0       	rjmp	.+2      	; 0xaa8 <move_window+0x66>
     aa6:	f1 2c       	mov	r15, r1
     aa8:	8f 2d       	mov	r24, r15
     aaa:	df 91       	pop	r29
     aac:	cf 91       	pop	r28
     aae:	1f 91       	pop	r17
     ab0:	0f 91       	pop	r16
     ab2:	ff 90       	pop	r15
     ab4:	bf 90       	pop	r11
     ab6:	af 90       	pop	r10
     ab8:	9f 90       	pop	r9
     aba:	8f 90       	pop	r8
     abc:	08 95       	ret

00000abe <check_fs>:
     abe:	cf 93       	push	r28
     ac0:	df 93       	push	r29
     ac2:	ec 01       	movw	r28, r24
     ac4:	1b 82       	std	Y+3, r1	; 0x03
     ac6:	8f ef       	ldi	r24, 0xFF	; 255
     ac8:	9f ef       	ldi	r25, 0xFF	; 255
     aca:	dc 01       	movw	r26, r24
     acc:	8f a7       	std	Y+47, r24	; 0x2f
     ace:	98 ab       	std	Y+48, r25	; 0x30
     ad0:	a9 ab       	std	Y+49, r26	; 0x31
     ad2:	ba ab       	std	Y+50, r27	; 0x32
     ad4:	ce 01       	movw	r24, r28
     ad6:	0e 94 21 05 	call	0xa42	; 0xa42 <move_window>
     ada:	81 11       	cpse	r24, r1
     adc:	28 c0       	rjmp	.+80     	; 0xb2e <check_fs+0x70>
     ade:	ce 01       	movw	r24, r28
     ae0:	8f 5c       	subi	r24, 0xCF	; 207
     ae2:	9d 4f       	sbci	r25, 0xFD	; 253
     ae4:	0e 94 36 02 	call	0x46c	; 0x46c <ld_word>
     ae8:	85 35       	cpi	r24, 0x55	; 85
     aea:	9a 4a       	sbci	r25, 0xAA	; 170
     aec:	11 f5       	brne	.+68     	; 0xb32 <check_fs+0x74>
     aee:	8b a9       	ldd	r24, Y+51	; 0x33
     af0:	89 3e       	cpi	r24, 0xE9	; 233
     af2:	29 f0       	breq	.+10     	; 0xafe <check_fs+0x40>
     af4:	8b 3e       	cpi	r24, 0xEB	; 235
     af6:	f9 f4       	brne	.+62     	; 0xb36 <check_fs+0x78>
     af8:	8d a9       	ldd	r24, Y+53	; 0x35
     afa:	80 39       	cpi	r24, 0x90	; 144
     afc:	f1 f4       	brne	.+60     	; 0xb3a <check_fs+0x7c>
     afe:	43 e0       	ldi	r20, 0x03	; 3
     b00:	50 e0       	ldi	r21, 0x00	; 0
     b02:	66 e4       	ldi	r22, 0x46	; 70
     b04:	70 e6       	ldi	r23, 0x60	; 96
     b06:	ce 01       	movw	r24, r28
     b08:	87 59       	subi	r24, 0x97	; 151
     b0a:	9f 4f       	sbci	r25, 0xFF	; 255
     b0c:	0e 94 7d 02 	call	0x4fa	; 0x4fa <mem_cmp>
     b10:	89 2b       	or	r24, r25
     b12:	a9 f0       	breq	.+42     	; 0xb3e <check_fs+0x80>
     b14:	45 e0       	ldi	r20, 0x05	; 5
     b16:	50 e0       	ldi	r21, 0x00	; 0
     b18:	6a e4       	ldi	r22, 0x4A	; 74
     b1a:	70 e6       	ldi	r23, 0x60	; 96
     b1c:	ce 01       	movw	r24, r28
     b1e:	8b 57       	subi	r24, 0x7B	; 123
     b20:	9f 4f       	sbci	r25, 0xFF	; 255
     b22:	0e 94 7d 02 	call	0x4fa	; 0x4fa <mem_cmp>
     b26:	89 2b       	or	r24, r25
     b28:	61 f4       	brne	.+24     	; 0xb42 <check_fs+0x84>
     b2a:	80 e0       	ldi	r24, 0x00	; 0
     b2c:	0b c0       	rjmp	.+22     	; 0xb44 <check_fs+0x86>
     b2e:	84 e0       	ldi	r24, 0x04	; 4
     b30:	09 c0       	rjmp	.+18     	; 0xb44 <check_fs+0x86>
     b32:	83 e0       	ldi	r24, 0x03	; 3
     b34:	07 c0       	rjmp	.+14     	; 0xb44 <check_fs+0x86>
     b36:	82 e0       	ldi	r24, 0x02	; 2
     b38:	05 c0       	rjmp	.+10     	; 0xb44 <check_fs+0x86>
     b3a:	82 e0       	ldi	r24, 0x02	; 2
     b3c:	03 c0       	rjmp	.+6      	; 0xb44 <check_fs+0x86>
     b3e:	80 e0       	ldi	r24, 0x00	; 0
     b40:	01 c0       	rjmp	.+2      	; 0xb44 <check_fs+0x86>
     b42:	82 e0       	ldi	r24, 0x02	; 2
     b44:	df 91       	pop	r29
     b46:	cf 91       	pop	r28
     b48:	08 95       	ret

00000b4a <find_volume>:
     b4a:	4f 92       	push	r4
     b4c:	5f 92       	push	r5
     b4e:	6f 92       	push	r6
     b50:	7f 92       	push	r7
     b52:	8f 92       	push	r8
     b54:	9f 92       	push	r9
     b56:	af 92       	push	r10
     b58:	bf 92       	push	r11
     b5a:	cf 92       	push	r12
     b5c:	df 92       	push	r13
     b5e:	ef 92       	push	r14
     b60:	ff 92       	push	r15
     b62:	0f 93       	push	r16
     b64:	1f 93       	push	r17
     b66:	cf 93       	push	r28
     b68:	df 93       	push	r29
     b6a:	cd b7       	in	r28, 0x3d	; 61
     b6c:	de b7       	in	r29, 0x3e	; 62
     b6e:	a0 97       	sbiw	r28, 0x20	; 32
     b70:	cd bf       	out	0x3d, r28	; 61
     b72:	de bf       	out	0x3e, r29	; 62
     b74:	6b 01       	movw	r12, r22
     b76:	b4 2e       	mov	r11, r20
     b78:	db 01       	movw	r26, r22
     b7a:	1d 92       	st	X+, r1
     b7c:	1c 92       	st	X, r1
     b7e:	0e 94 53 04 	call	0x8a6	; 0x8a6 <get_ldnumber>
     b82:	7c 01       	movw	r14, r24
     b84:	99 23       	and	r25, r25
     b86:	0c f4       	brge	.+2      	; 0xb8a <find_volume+0x40>
     b88:	74 c2       	rjmp	.+1256   	; 0x1072 <find_volume+0x528>
     b8a:	fc 01       	movw	r30, r24
     b8c:	ee 0f       	add	r30, r30
     b8e:	ff 1f       	adc	r31, r31
     b90:	e2 57       	subi	r30, 0x72	; 114
     b92:	fe 49       	sbci	r31, 0x9E	; 158
     b94:	00 81       	ld	r16, Z
     b96:	11 81       	ldd	r17, Z+1	; 0x01
     b98:	01 15       	cp	r16, r1
     b9a:	11 05       	cpc	r17, r1
     b9c:	09 f4       	brne	.+2      	; 0xba0 <find_volume+0x56>
     b9e:	6b c2       	rjmp	.+1238   	; 0x1076 <find_volume+0x52c>
     ba0:	f6 01       	movw	r30, r12
     ba2:	00 83       	st	Z, r16
     ba4:	11 83       	std	Z+1, r17	; 0x01
     ba6:	fb 2d       	mov	r31, r11
     ba8:	fe 7f       	andi	r31, 0xFE	; 254
     baa:	bf 2e       	mov	r11, r31
     bac:	d8 01       	movw	r26, r16
     bae:	8c 91       	ld	r24, X
     bb0:	88 23       	and	r24, r24
     bb2:	69 f0       	breq	.+26     	; 0xbce <find_volume+0x84>
     bb4:	11 96       	adiw	r26, 0x01	; 1
     bb6:	8c 91       	ld	r24, X
     bb8:	0e 94 d1 1b 	call	0x37a2	; 0x37a2 <disk_status>
     bbc:	80 fd       	sbrc	r24, 0
     bbe:	07 c0       	rjmp	.+14     	; 0xbce <find_volume+0x84>
     bc0:	bb 20       	and	r11, r11
     bc2:	09 f4       	brne	.+2      	; 0xbc6 <find_volume+0x7c>
     bc4:	5a c2       	rjmp	.+1204   	; 0x107a <find_volume+0x530>
     bc6:	82 fd       	sbrc	r24, 2
     bc8:	5a c2       	rjmp	.+1204   	; 0x107e <find_volume+0x534>
     bca:	80 e0       	ldi	r24, 0x00	; 0
     bcc:	7b c2       	rjmp	.+1270   	; 0x10c4 <find_volume+0x57a>
     bce:	f8 01       	movw	r30, r16
     bd0:	10 82       	st	Z, r1
     bd2:	e1 82       	std	Z+1, r14	; 0x01
     bd4:	8e 2d       	mov	r24, r14
     bd6:	0e 94 ce 1b 	call	0x379c	; 0x379c <disk_initialize>
     bda:	80 fd       	sbrc	r24, 0
     bdc:	52 c2       	rjmp	.+1188   	; 0x1082 <find_volume+0x538>
     bde:	bb 20       	and	r11, r11
     be0:	11 f0       	breq	.+4      	; 0xbe6 <find_volume+0x9c>
     be2:	82 fd       	sbrc	r24, 2
     be4:	50 c2       	rjmp	.+1184   	; 0x1086 <find_volume+0x53c>
     be6:	40 e0       	ldi	r20, 0x00	; 0
     be8:	50 e0       	ldi	r21, 0x00	; 0
     bea:	ba 01       	movw	r22, r20
     bec:	c8 01       	movw	r24, r16
     bee:	0e 94 5f 05 	call	0xabe	; 0xabe <check_fs>
     bf2:	82 30       	cpi	r24, 0x02	; 2
     bf4:	79 f1       	breq	.+94     	; 0xc54 <find_volume+0x10a>
     bf6:	c1 2c       	mov	r12, r1
     bf8:	d1 2c       	mov	r13, r1
     bfa:	76 01       	movw	r14, r12
     bfc:	57 c0       	rjmp	.+174    	; 0xcac <find_volume+0x162>
     bfe:	f7 01       	movw	r30, r14
     c00:	e2 95       	swap	r30
     c02:	f2 95       	swap	r31
     c04:	f0 7f       	andi	r31, 0xF0	; 240
     c06:	fe 27       	eor	r31, r30
     c08:	e0 7f       	andi	r30, 0xF0	; 240
     c0a:	fe 27       	eor	r31, r30
     c0c:	e2 54       	subi	r30, 0x42	; 66
     c0e:	fe 4f       	sbci	r31, 0xFE	; 254
     c10:	c8 01       	movw	r24, r16
     c12:	c3 96       	adiw	r24, 0x33	; 51
     c14:	e8 0f       	add	r30, r24
     c16:	f9 1f       	adc	r31, r25
     c18:	84 81       	ldd	r24, Z+4	; 0x04
     c1a:	88 23       	and	r24, r24
     c1c:	29 f0       	breq	.+10     	; 0xc28 <find_volume+0xde>
     c1e:	cf 01       	movw	r24, r30
     c20:	08 96       	adiw	r24, 0x08	; 8
     c22:	0e 94 40 02 	call	0x480	; 0x480 <ld_dword>
     c26:	03 c0       	rjmp	.+6      	; 0xc2e <find_volume+0xe4>
     c28:	60 e0       	ldi	r22, 0x00	; 0
     c2a:	70 e0       	ldi	r23, 0x00	; 0
     c2c:	cb 01       	movw	r24, r22
     c2e:	f7 01       	movw	r30, r14
     c30:	ee 0f       	add	r30, r30
     c32:	ff 1f       	adc	r31, r31
     c34:	ee 0f       	add	r30, r30
     c36:	ff 1f       	adc	r31, r31
     c38:	21 e0       	ldi	r18, 0x01	; 1
     c3a:	30 e0       	ldi	r19, 0x00	; 0
     c3c:	2c 0f       	add	r18, r28
     c3e:	3d 1f       	adc	r19, r29
     c40:	e2 0f       	add	r30, r18
     c42:	f3 1f       	adc	r31, r19
     c44:	60 83       	st	Z, r22
     c46:	71 83       	std	Z+1, r23	; 0x01
     c48:	82 83       	std	Z+2, r24	; 0x02
     c4a:	93 83       	std	Z+3, r25	; 0x03
     c4c:	3f ef       	ldi	r19, 0xFF	; 255
     c4e:	e3 1a       	sub	r14, r19
     c50:	f3 0a       	sbc	r15, r19
     c52:	02 c0       	rjmp	.+4      	; 0xc58 <find_volume+0x10e>
     c54:	e1 2c       	mov	r14, r1
     c56:	f1 2c       	mov	r15, r1
     c58:	44 e0       	ldi	r20, 0x04	; 4
     c5a:	e4 16       	cp	r14, r20
     c5c:	f1 04       	cpc	r15, r1
     c5e:	78 f2       	brcs	.-98     	; 0xbfe <find_volume+0xb4>
     c60:	a1 2c       	mov	r10, r1
     c62:	b1 2c       	mov	r11, r1
     c64:	f5 01       	movw	r30, r10
     c66:	ee 0f       	add	r30, r30
     c68:	ff 1f       	adc	r31, r31
     c6a:	ee 0f       	add	r30, r30
     c6c:	ff 1f       	adc	r31, r31
     c6e:	61 e0       	ldi	r22, 0x01	; 1
     c70:	70 e0       	ldi	r23, 0x00	; 0
     c72:	6c 0f       	add	r22, r28
     c74:	7d 1f       	adc	r23, r29
     c76:	e6 0f       	add	r30, r22
     c78:	f7 1f       	adc	r31, r23
     c7a:	c0 80       	ld	r12, Z
     c7c:	d1 80       	ldd	r13, Z+1	; 0x01
     c7e:	e2 80       	ldd	r14, Z+2	; 0x02
     c80:	f3 80       	ldd	r15, Z+3	; 0x03
     c82:	c1 14       	cp	r12, r1
     c84:	d1 04       	cpc	r13, r1
     c86:	e1 04       	cpc	r14, r1
     c88:	f1 04       	cpc	r15, r1
     c8a:	31 f0       	breq	.+12     	; 0xc98 <find_volume+0x14e>
     c8c:	b7 01       	movw	r22, r14
     c8e:	a6 01       	movw	r20, r12
     c90:	c8 01       	movw	r24, r16
     c92:	0e 94 5f 05 	call	0xabe	; 0xabe <check_fs>
     c96:	01 c0       	rjmp	.+2      	; 0xc9a <find_volume+0x150>
     c98:	83 e0       	ldi	r24, 0x03	; 3
     c9a:	82 30       	cpi	r24, 0x02	; 2
     c9c:	38 f0       	brcs	.+14     	; 0xcac <find_volume+0x162>
     c9e:	7f ef       	ldi	r23, 0xFF	; 255
     ca0:	a7 1a       	sub	r10, r23
     ca2:	b7 0a       	sbc	r11, r23
     ca4:	94 e0       	ldi	r25, 0x04	; 4
     ca6:	a9 16       	cp	r10, r25
     ca8:	b1 04       	cpc	r11, r1
     caa:	e0 f2       	brcs	.-72     	; 0xc64 <find_volume+0x11a>
     cac:	84 30       	cpi	r24, 0x04	; 4
     cae:	09 f4       	brne	.+2      	; 0xcb2 <find_volume+0x168>
     cb0:	ec c1       	rjmp	.+984    	; 0x108a <find_volume+0x540>
     cb2:	82 30       	cpi	r24, 0x02	; 2
     cb4:	08 f0       	brcs	.+2      	; 0xcb8 <find_volume+0x16e>
     cb6:	eb c1       	rjmp	.+982    	; 0x108e <find_volume+0x544>
     cb8:	c8 01       	movw	r24, r16
     cba:	ce 96       	adiw	r24, 0x3e	; 62
     cbc:	0e 94 36 02 	call	0x46c	; 0x46c <ld_word>
     cc0:	81 15       	cp	r24, r1
     cc2:	92 40       	sbci	r25, 0x02	; 2
     cc4:	09 f0       	breq	.+2      	; 0xcc8 <find_volume+0x17e>
     cc6:	e5 c1       	rjmp	.+970    	; 0x1092 <find_volume+0x548>
     cc8:	c8 01       	movw	r24, r16
     cca:	87 5b       	subi	r24, 0xB7	; 183
     ccc:	9f 4f       	sbci	r25, 0xFF	; 255
     cce:	0e 94 36 02 	call	0x46c	; 0x46c <ld_word>
     cd2:	9c 01       	movw	r18, r24
     cd4:	40 e0       	ldi	r20, 0x00	; 0
     cd6:	50 e0       	ldi	r21, 0x00	; 0
     cd8:	29 8b       	std	Y+17, r18	; 0x11
     cda:	3a 8b       	std	Y+18, r19	; 0x12
     cdc:	4b 8b       	std	Y+19, r20	; 0x13
     cde:	5c 8b       	std	Y+20, r21	; 0x14
     ce0:	23 2b       	or	r18, r19
     ce2:	24 2b       	or	r18, r20
     ce4:	25 2b       	or	r18, r21
     ce6:	49 f4       	brne	.+18     	; 0xcfa <find_volume+0x1b0>
     ce8:	c8 01       	movw	r24, r16
     cea:	89 5a       	subi	r24, 0xA9	; 169
     cec:	9f 4f       	sbci	r25, 0xFF	; 255
     cee:	0e 94 40 02 	call	0x480	; 0x480 <ld_dword>
     cf2:	69 8b       	std	Y+17, r22	; 0x11
     cf4:	7a 8b       	std	Y+18, r23	; 0x12
     cf6:	8b 8b       	std	Y+19, r24	; 0x13
     cf8:	9c 8b       	std	Y+20, r25	; 0x14
     cfa:	49 89       	ldd	r20, Y+17	; 0x11
     cfc:	5a 89       	ldd	r21, Y+18	; 0x12
     cfe:	6b 89       	ldd	r22, Y+19	; 0x13
     d00:	7c 89       	ldd	r23, Y+20	; 0x14
     d02:	d8 01       	movw	r26, r16
     d04:	5b 96       	adiw	r26, 0x1b	; 27
     d06:	4d 93       	st	X+, r20
     d08:	5d 93       	st	X+, r21
     d0a:	6d 93       	st	X+, r22
     d0c:	7c 93       	st	X, r23
     d0e:	5e 97       	sbiw	r26, 0x1e	; 30
     d10:	f8 01       	movw	r30, r16
     d12:	ed 5b       	subi	r30, 0xBD	; 189
     d14:	ff 4f       	sbci	r31, 0xFF	; 255
     d16:	a0 81       	ld	r26, Z
     d18:	f8 01       	movw	r30, r16
     d1a:	a2 83       	std	Z+2, r26	; 0x02
     d1c:	8f ef       	ldi	r24, 0xFF	; 255
     d1e:	8a 0f       	add	r24, r26
     d20:	82 30       	cpi	r24, 0x02	; 2
     d22:	08 f0       	brcs	.+2      	; 0xd26 <find_volume+0x1dc>
     d24:	b8 c1       	rjmp	.+880    	; 0x1096 <find_volume+0x54c>
     d26:	b0 e0       	ldi	r27, 0x00	; 0
     d28:	9a 01       	movw	r18, r20
     d2a:	ab 01       	movw	r20, r22
     d2c:	0e 94 6d 37 	call	0x6eda	; 0x6eda <__muluhisi3>
     d30:	69 8f       	std	Y+25, r22	; 0x19
     d32:	7a 8f       	std	Y+26, r23	; 0x1a
     d34:	8b 8f       	std	Y+27, r24	; 0x1b
     d36:	9c 8f       	std	Y+28, r25	; 0x1c
     d38:	e0 5c       	subi	r30, 0xC0	; 192
     d3a:	ff 4f       	sbci	r31, 0xFF	; 255
     d3c:	a0 80       	ld	r10, Z
     d3e:	b1 2c       	mov	r11, r1
     d40:	d8 01       	movw	r26, r16
     d42:	19 96       	adiw	r26, 0x09	; 9
     d44:	ad 92       	st	X+, r10
     d46:	bc 92       	st	X, r11
     d48:	1a 97       	sbiw	r26, 0x0a	; 10
     d4a:	a1 14       	cp	r10, r1
     d4c:	b1 04       	cpc	r11, r1
     d4e:	09 f4       	brne	.+2      	; 0xd52 <find_volume+0x208>
     d50:	a4 c1       	rjmp	.+840    	; 0x109a <find_volume+0x550>
     d52:	c5 01       	movw	r24, r10
     d54:	01 97       	sbiw	r24, 0x01	; 1
     d56:	8a 21       	and	r24, r10
     d58:	9b 21       	and	r25, r11
     d5a:	89 2b       	or	r24, r25
     d5c:	09 f0       	breq	.+2      	; 0xd60 <find_volume+0x216>
     d5e:	9f c1       	rjmp	.+830    	; 0x109e <find_volume+0x554>
     d60:	c8 01       	movw	r24, r16
     d62:	8c 5b       	subi	r24, 0xBC	; 188
     d64:	9f 4f       	sbci	r25, 0xFF	; 255
     d66:	0e 94 36 02 	call	0x46c	; 0x46c <ld_word>
     d6a:	4c 01       	movw	r8, r24
     d6c:	f8 01       	movw	r30, r16
     d6e:	87 83       	std	Z+7, r24	; 0x07
     d70:	90 87       	std	Z+8, r25	; 0x08
     d72:	8f 70       	andi	r24, 0x0F	; 15
     d74:	99 27       	eor	r25, r25
     d76:	89 2b       	or	r24, r25
     d78:	09 f0       	breq	.+2      	; 0xd7c <find_volume+0x232>
     d7a:	93 c1       	rjmp	.+806    	; 0x10a2 <find_volume+0x558>
     d7c:	c8 01       	movw	r24, r16
     d7e:	8a 5b       	subi	r24, 0xBA	; 186
     d80:	9f 4f       	sbci	r25, 0xFF	; 255
     d82:	0e 94 36 02 	call	0x46c	; 0x46c <ld_word>
     d86:	2c 01       	movw	r4, r24
     d88:	61 2c       	mov	r6, r1
     d8a:	71 2c       	mov	r7, r1
     d8c:	41 14       	cp	r4, r1
     d8e:	51 04       	cpc	r5, r1
     d90:	61 04       	cpc	r6, r1
     d92:	71 04       	cpc	r7, r1
     d94:	39 f4       	brne	.+14     	; 0xda4 <find_volume+0x25a>
     d96:	c8 01       	movw	r24, r16
     d98:	8d 5a       	subi	r24, 0xAD	; 173
     d9a:	9f 4f       	sbci	r25, 0xFF	; 255
     d9c:	0e 94 40 02 	call	0x480	; 0x480 <ld_dword>
     da0:	2b 01       	movw	r4, r22
     da2:	3c 01       	movw	r6, r24
     da4:	c8 01       	movw	r24, r16
     da6:	8f 5b       	subi	r24, 0xBF	; 191
     da8:	9f 4f       	sbci	r25, 0xFF	; 255
     daa:	0e 94 36 02 	call	0x46c	; 0x46c <ld_word>
     dae:	00 97       	sbiw	r24, 0x00	; 0
     db0:	09 f4       	brne	.+2      	; 0xdb4 <find_volume+0x26a>
     db2:	79 c1       	rjmp	.+754    	; 0x10a6 <find_volume+0x55c>
     db4:	9c 01       	movw	r18, r24
     db6:	40 e0       	ldi	r20, 0x00	; 0
     db8:	50 e0       	ldi	r21, 0x00	; 0
     dba:	2d 8f       	std	Y+29, r18	; 0x1d
     dbc:	3e 8f       	std	Y+30, r19	; 0x1e
     dbe:	4f 8f       	std	Y+31, r20	; 0x1f
     dc0:	58 a3       	std	Y+32, r21	; 0x20
     dc2:	89 8d       	ldd	r24, Y+25	; 0x19
     dc4:	9a 8d       	ldd	r25, Y+26	; 0x1a
     dc6:	ab 8d       	ldd	r26, Y+27	; 0x1b
     dc8:	bc 8d       	ldd	r27, Y+28	; 0x1c
     dca:	82 0f       	add	r24, r18
     dcc:	93 1f       	adc	r25, r19
     dce:	a4 1f       	adc	r26, r20
     dd0:	b5 1f       	adc	r27, r21
     dd2:	94 01       	movw	r18, r8
     dd4:	32 95       	swap	r19
     dd6:	22 95       	swap	r18
     dd8:	2f 70       	andi	r18, 0x0F	; 15
     dda:	23 27       	eor	r18, r19
     ddc:	3f 70       	andi	r19, 0x0F	; 15
     dde:	23 27       	eor	r18, r19
     de0:	ac 01       	movw	r20, r24
     de2:	bd 01       	movw	r22, r26
     de4:	42 0f       	add	r20, r18
     de6:	53 1f       	adc	r21, r19
     de8:	61 1d       	adc	r22, r1
     dea:	71 1d       	adc	r23, r1
     dec:	4d 8b       	std	Y+21, r20	; 0x15
     dee:	5e 8b       	std	Y+22, r21	; 0x16
     df0:	6f 8b       	std	Y+23, r22	; 0x17
     df2:	78 8f       	std	Y+24, r23	; 0x18
     df4:	44 16       	cp	r4, r20
     df6:	55 06       	cpc	r5, r21
     df8:	66 06       	cpc	r6, r22
     dfa:	77 06       	cpc	r7, r23
     dfc:	08 f4       	brcc	.+2      	; 0xe00 <find_volume+0x2b6>
     dfe:	55 c1       	rjmp	.+682    	; 0x10aa <find_volume+0x560>
     e00:	c3 01       	movw	r24, r6
     e02:	b2 01       	movw	r22, r4
     e04:	2d 89       	ldd	r18, Y+21	; 0x15
     e06:	3e 89       	ldd	r19, Y+22	; 0x16
     e08:	4f 89       	ldd	r20, Y+23	; 0x17
     e0a:	58 8d       	ldd	r21, Y+24	; 0x18
     e0c:	62 1b       	sub	r22, r18
     e0e:	73 0b       	sbc	r23, r19
     e10:	84 0b       	sbc	r24, r20
     e12:	95 0b       	sbc	r25, r21
     e14:	95 01       	movw	r18, r10
     e16:	40 e0       	ldi	r20, 0x00	; 0
     e18:	50 e0       	ldi	r21, 0x00	; 0
     e1a:	0e 94 36 37 	call	0x6e6c	; 0x6e6c <__udivmodsi4>
     e1e:	da 01       	movw	r26, r20
     e20:	c9 01       	movw	r24, r18
     e22:	21 15       	cp	r18, r1
     e24:	31 05       	cpc	r19, r1
     e26:	41 05       	cpc	r20, r1
     e28:	51 05       	cpc	r21, r1
     e2a:	09 f4       	brne	.+2      	; 0xe2e <find_volume+0x2e4>
     e2c:	40 c1       	rjmp	.+640    	; 0x10ae <find_volume+0x564>
     e2e:	26 3f       	cpi	r18, 0xF6	; 246
     e30:	6f ef       	ldi	r22, 0xFF	; 255
     e32:	36 07       	cpc	r19, r22
     e34:	46 07       	cpc	r20, r22
     e36:	6f e0       	ldi	r22, 0x0F	; 15
     e38:	56 07       	cpc	r21, r22
     e3a:	10 f0       	brcs	.+4      	; 0xe40 <find_volume+0x2f6>
     e3c:	b1 2c       	mov	r11, r1
     e3e:	04 c0       	rjmp	.+8      	; 0xe48 <find_volume+0x2fe>
     e40:	0f 2e       	mov	r0, r31
     e42:	f3 e0       	ldi	r31, 0x03	; 3
     e44:	bf 2e       	mov	r11, r31
     e46:	f0 2d       	mov	r31, r0
     e48:	86 3f       	cpi	r24, 0xF6	; 246
     e4a:	7f ef       	ldi	r23, 0xFF	; 255
     e4c:	97 07       	cpc	r25, r23
     e4e:	a1 05       	cpc	r26, r1
     e50:	b1 05       	cpc	r27, r1
     e52:	18 f4       	brcc	.+6      	; 0xe5a <find_volume+0x310>
     e54:	68 94       	set
     e56:	bb 24       	eor	r11, r11
     e58:	b1 f8       	bld	r11, 1
     e5a:	86 3f       	cpi	r24, 0xF6	; 246
     e5c:	9f 40       	sbci	r25, 0x0F	; 15
     e5e:	a1 05       	cpc	r26, r1
     e60:	b1 05       	cpc	r27, r1
     e62:	10 f4       	brcc	.+4      	; 0xe68 <find_volume+0x31e>
     e64:	bb 24       	eor	r11, r11
     e66:	b3 94       	inc	r11
     e68:	bb 20       	and	r11, r11
     e6a:	09 f4       	brne	.+2      	; 0xe6e <find_volume+0x324>
     e6c:	22 c1       	rjmp	.+580    	; 0x10b2 <find_volume+0x568>
     e6e:	29 01       	movw	r4, r18
     e70:	3a 01       	movw	r6, r20
     e72:	f2 e0       	ldi	r31, 0x02	; 2
     e74:	4f 0e       	add	r4, r31
     e76:	51 1c       	adc	r5, r1
     e78:	61 1c       	adc	r6, r1
     e7a:	71 1c       	adc	r7, r1
     e7c:	d8 01       	movw	r26, r16
     e7e:	57 96       	adiw	r26, 0x17	; 23
     e80:	4d 92       	st	X+, r4
     e82:	5d 92       	st	X+, r5
     e84:	6d 92       	st	X+, r6
     e86:	7c 92       	st	X, r7
     e88:	5a 97       	sbiw	r26, 0x1a	; 26
     e8a:	f8 01       	movw	r30, r16
     e8c:	c7 8e       	std	Z+31, r12	; 0x1f
     e8e:	d0 a2       	std	Z+32, r13	; 0x20
     e90:	e1 a2       	std	Z+33, r14	; 0x21
     e92:	f2 a2       	std	Z+34, r15	; 0x22
     e94:	8d 8d       	ldd	r24, Y+29	; 0x1d
     e96:	9e 8d       	ldd	r25, Y+30	; 0x1e
     e98:	af 8d       	ldd	r26, Y+31	; 0x1f
     e9a:	b8 a1       	ldd	r27, Y+32	; 0x20
     e9c:	8c 0d       	add	r24, r12
     e9e:	9d 1d       	adc	r25, r13
     ea0:	ae 1d       	adc	r26, r14
     ea2:	bf 1d       	adc	r27, r15
     ea4:	83 a3       	std	Z+35, r24	; 0x23
     ea6:	94 a3       	std	Z+36, r25	; 0x24
     ea8:	a5 a3       	std	Z+37, r26	; 0x25
     eaa:	b6 a3       	std	Z+38, r27	; 0x26
     eac:	4d 89       	ldd	r20, Y+21	; 0x15
     eae:	5e 89       	ldd	r21, Y+22	; 0x16
     eb0:	6f 89       	ldd	r22, Y+23	; 0x17
     eb2:	78 8d       	ldd	r23, Y+24	; 0x18
     eb4:	4c 0d       	add	r20, r12
     eb6:	5d 1d       	adc	r21, r13
     eb8:	6e 1d       	adc	r22, r14
     eba:	7f 1d       	adc	r23, r15
     ebc:	43 a7       	std	Z+43, r20	; 0x2b
     ebe:	54 a7       	std	Z+44, r21	; 0x2c
     ec0:	65 a7       	std	Z+45, r22	; 0x2d
     ec2:	76 a7       	std	Z+46, r23	; 0x2e
     ec4:	f3 e0       	ldi	r31, 0x03	; 3
     ec6:	bf 12       	cpse	r11, r31
     ec8:	20 c0       	rjmp	.+64     	; 0xf0a <find_volume+0x3c0>
     eca:	c8 01       	movw	r24, r16
     ecc:	83 5a       	subi	r24, 0xA3	; 163
     ece:	9f 4f       	sbci	r25, 0xFF	; 255
     ed0:	0e 94 36 02 	call	0x46c	; 0x46c <ld_word>
     ed4:	89 2b       	or	r24, r25
     ed6:	09 f0       	breq	.+2      	; 0xeda <find_volume+0x390>
     ed8:	ee c0       	rjmp	.+476    	; 0x10b6 <find_volume+0x56c>
     eda:	89 28       	or	r8, r9
     edc:	09 f0       	breq	.+2      	; 0xee0 <find_volume+0x396>
     ede:	ed c0       	rjmp	.+474    	; 0x10ba <find_volume+0x570>
     ee0:	c8 01       	movw	r24, r16
     ee2:	81 5a       	subi	r24, 0xA1	; 161
     ee4:	9f 4f       	sbci	r25, 0xFF	; 255
     ee6:	0e 94 40 02 	call	0x480	; 0x480 <ld_dword>
     eea:	d8 01       	movw	r26, r16
     eec:	97 96       	adiw	r26, 0x27	; 39
     eee:	6d 93       	st	X+, r22
     ef0:	7d 93       	st	X+, r23
     ef2:	8d 93       	st	X+, r24
     ef4:	9c 93       	st	X, r25
     ef6:	9a 97       	sbiw	r26, 0x2a	; 42
     ef8:	44 0c       	add	r4, r4
     efa:	55 1c       	adc	r5, r5
     efc:	66 1c       	adc	r6, r6
     efe:	77 1c       	adc	r7, r7
     f00:	44 0c       	add	r4, r4
     f02:	55 1c       	adc	r5, r5
     f04:	66 1c       	adc	r6, r6
     f06:	77 1c       	adc	r7, r7
     f08:	2d c0       	rjmp	.+90     	; 0xf64 <find_volume+0x41a>
     f0a:	89 28       	or	r8, r9
     f0c:	09 f4       	brne	.+2      	; 0xf10 <find_volume+0x3c6>
     f0e:	d7 c0       	rjmp	.+430    	; 0x10be <find_volume+0x574>
     f10:	29 8d       	ldd	r18, Y+25	; 0x19
     f12:	3a 8d       	ldd	r19, Y+26	; 0x1a
     f14:	4b 8d       	ldd	r20, Y+27	; 0x1b
     f16:	5c 8d       	ldd	r21, Y+28	; 0x1c
     f18:	82 0f       	add	r24, r18
     f1a:	93 1f       	adc	r25, r19
     f1c:	a4 1f       	adc	r26, r20
     f1e:	b5 1f       	adc	r27, r21
     f20:	f8 01       	movw	r30, r16
     f22:	87 a3       	std	Z+39, r24	; 0x27
     f24:	90 a7       	std	Z+40, r25	; 0x28
     f26:	a1 a7       	std	Z+41, r26	; 0x29
     f28:	b2 a7       	std	Z+42, r27	; 0x2a
     f2a:	f2 e0       	ldi	r31, 0x02	; 2
     f2c:	bf 12       	cpse	r11, r31
     f2e:	05 c0       	rjmp	.+10     	; 0xf3a <find_volume+0x3f0>
     f30:	44 0c       	add	r4, r4
     f32:	55 1c       	adc	r5, r5
     f34:	66 1c       	adc	r6, r6
     f36:	77 1c       	adc	r7, r7
     f38:	15 c0       	rjmp	.+42     	; 0xf64 <find_volume+0x41a>
     f3a:	a3 e0       	ldi	r26, 0x03	; 3
     f3c:	b0 e0       	ldi	r27, 0x00	; 0
     f3e:	a3 01       	movw	r20, r6
     f40:	92 01       	movw	r18, r4
     f42:	0e 94 6d 37 	call	0x6eda	; 0x6eda <__muluhisi3>
     f46:	dc 01       	movw	r26, r24
     f48:	cb 01       	movw	r24, r22
     f4a:	b6 95       	lsr	r27
     f4c:	a7 95       	ror	r26
     f4e:	97 95       	ror	r25
     f50:	87 95       	ror	r24
     f52:	21 e0       	ldi	r18, 0x01	; 1
     f54:	42 22       	and	r4, r18
     f56:	55 24       	eor	r5, r5
     f58:	66 24       	eor	r6, r6
     f5a:	77 24       	eor	r7, r7
     f5c:	48 0e       	add	r4, r24
     f5e:	59 1e       	adc	r5, r25
     f60:	6a 1e       	adc	r6, r26
     f62:	7b 1e       	adc	r7, r27
     f64:	3f ef       	ldi	r19, 0xFF	; 255
     f66:	43 0e       	add	r4, r19
     f68:	31 e0       	ldi	r19, 0x01	; 1
     f6a:	53 1e       	adc	r5, r19
     f6c:	61 1c       	adc	r6, r1
     f6e:	71 1c       	adc	r7, r1
     f70:	03 2e       	mov	r0, r19
     f72:	39 e0       	ldi	r19, 0x09	; 9
     f74:	76 94       	lsr	r7
     f76:	67 94       	ror	r6
     f78:	57 94       	ror	r5
     f7a:	47 94       	ror	r4
     f7c:	3a 95       	dec	r19
     f7e:	d1 f7       	brne	.-12     	; 0xf74 <find_volume+0x42a>
     f80:	30 2d       	mov	r19, r0
     f82:	49 89       	ldd	r20, Y+17	; 0x11
     f84:	5a 89       	ldd	r21, Y+18	; 0x12
     f86:	6b 89       	ldd	r22, Y+19	; 0x13
     f88:	7c 89       	ldd	r23, Y+20	; 0x14
     f8a:	44 15       	cp	r20, r4
     f8c:	55 05       	cpc	r21, r5
     f8e:	66 05       	cpc	r22, r6
     f90:	77 05       	cpc	r23, r7
     f92:	08 f4       	brcc	.+2      	; 0xf96 <find_volume+0x44c>
     f94:	96 c0       	rjmp	.+300    	; 0x10c2 <find_volume+0x578>
     f96:	8f ef       	ldi	r24, 0xFF	; 255
     f98:	9f ef       	ldi	r25, 0xFF	; 255
     f9a:	dc 01       	movw	r26, r24
     f9c:	f8 01       	movw	r30, r16
     f9e:	87 87       	std	Z+15, r24	; 0x0f
     fa0:	90 8b       	std	Z+16, r25	; 0x10
     fa2:	a1 8b       	std	Z+17, r26	; 0x11
     fa4:	b2 8b       	std	Z+18, r27	; 0x12
     fa6:	83 87       	std	Z+11, r24	; 0x0b
     fa8:	94 87       	std	Z+12, r25	; 0x0c
     faa:	a5 87       	std	Z+13, r26	; 0x0d
     fac:	b6 87       	std	Z+14, r27	; 0x0e
     fae:	80 e8       	ldi	r24, 0x80	; 128
     fb0:	84 83       	std	Z+4, r24	; 0x04
     fb2:	f3 e0       	ldi	r31, 0x03	; 3
     fb4:	bf 12       	cpse	r11, r31
     fb6:	47 c0       	rjmp	.+142    	; 0x1046 <find_volume+0x4fc>
     fb8:	c8 01       	movw	r24, r16
     fba:	8d 59       	subi	r24, 0x9D	; 157
     fbc:	9f 4f       	sbci	r25, 0xFF	; 255
     fbe:	0e 94 36 02 	call	0x46c	; 0x46c <ld_word>
     fc2:	01 97       	sbiw	r24, 0x01	; 1
     fc4:	09 f0       	breq	.+2      	; 0xfc8 <find_volume+0x47e>
     fc6:	3f c0       	rjmp	.+126    	; 0x1046 <find_volume+0x4fc>
     fc8:	b7 01       	movw	r22, r14
     fca:	a6 01       	movw	r20, r12
     fcc:	4f 5f       	subi	r20, 0xFF	; 255
     fce:	5f 4f       	sbci	r21, 0xFF	; 255
     fd0:	6f 4f       	sbci	r22, 0xFF	; 255
     fd2:	7f 4f       	sbci	r23, 0xFF	; 255
     fd4:	c8 01       	movw	r24, r16
     fd6:	0e 94 21 05 	call	0xa42	; 0xa42 <move_window>
     fda:	81 11       	cpse	r24, r1
     fdc:	34 c0       	rjmp	.+104    	; 0x1046 <find_volume+0x4fc>
     fde:	d8 01       	movw	r26, r16
     fe0:	14 96       	adiw	r26, 0x04	; 4
     fe2:	1c 92       	st	X, r1
     fe4:	c8 01       	movw	r24, r16
     fe6:	8f 5c       	subi	r24, 0xCF	; 207
     fe8:	9d 4f       	sbci	r25, 0xFD	; 253
     fea:	0e 94 36 02 	call	0x46c	; 0x46c <ld_word>
     fee:	85 35       	cpi	r24, 0x55	; 85
     ff0:	9a 4a       	sbci	r25, 0xAA	; 170
     ff2:	49 f5       	brne	.+82     	; 0x1046 <find_volume+0x4fc>
     ff4:	c8 01       	movw	r24, r16
     ff6:	c3 96       	adiw	r24, 0x33	; 51
     ff8:	0e 94 40 02 	call	0x480	; 0x480 <ld_dword>
     ffc:	62 35       	cpi	r22, 0x52	; 82
     ffe:	72 45       	sbci	r23, 0x52	; 82
    1000:	81 46       	sbci	r24, 0x61	; 97
    1002:	91 44       	sbci	r25, 0x41	; 65
    1004:	01 f5       	brne	.+64     	; 0x1046 <find_volume+0x4fc>
    1006:	c8 01       	movw	r24, r16
    1008:	89 5e       	subi	r24, 0xE9	; 233
    100a:	9d 4f       	sbci	r25, 0xFD	; 253
    100c:	0e 94 40 02 	call	0x480	; 0x480 <ld_dword>
    1010:	62 37       	cpi	r22, 0x72	; 114
    1012:	72 47       	sbci	r23, 0x72	; 114
    1014:	81 44       	sbci	r24, 0x41	; 65
    1016:	91 46       	sbci	r25, 0x61	; 97
    1018:	b1 f4       	brne	.+44     	; 0x1046 <find_volume+0x4fc>
    101a:	c8 01       	movw	r24, r16
    101c:	85 5e       	subi	r24, 0xE5	; 229
    101e:	9d 4f       	sbci	r25, 0xFD	; 253
    1020:	0e 94 40 02 	call	0x480	; 0x480 <ld_dword>
    1024:	d8 01       	movw	r26, r16
    1026:	1f 96       	adiw	r26, 0x0f	; 15
    1028:	6d 93       	st	X+, r22
    102a:	7d 93       	st	X+, r23
    102c:	8d 93       	st	X+, r24
    102e:	9c 93       	st	X, r25
    1030:	52 97       	sbiw	r26, 0x12	; 18
    1032:	c8 01       	movw	r24, r16
    1034:	81 5e       	subi	r24, 0xE1	; 225
    1036:	9d 4f       	sbci	r25, 0xFD	; 253
    1038:	0e 94 40 02 	call	0x480	; 0x480 <ld_dword>
    103c:	f8 01       	movw	r30, r16
    103e:	63 87       	std	Z+11, r22	; 0x0b
    1040:	74 87       	std	Z+12, r23	; 0x0c
    1042:	85 87       	std	Z+13, r24	; 0x0d
    1044:	96 87       	std	Z+14, r25	; 0x0e
    1046:	d8 01       	movw	r26, r16
    1048:	bc 92       	st	X, r11
    104a:	80 91 8c 61 	lds	r24, 0x618C	; 0x80618c <__data_end>
    104e:	90 91 8d 61 	lds	r25, 0x618D	; 0x80618d <__data_end+0x1>
    1052:	01 96       	adiw	r24, 0x01	; 1
    1054:	80 93 8c 61 	sts	0x618C, r24	; 0x80618c <__data_end>
    1058:	90 93 8d 61 	sts	0x618D, r25	; 0x80618d <__data_end+0x1>
    105c:	15 96       	adiw	r26, 0x05	; 5
    105e:	8d 93       	st	X+, r24
    1060:	9c 93       	st	X, r25
    1062:	16 97       	sbiw	r26, 0x06	; 6
    1064:	f8 01       	movw	r30, r16
    1066:	13 8a       	std	Z+19, r1	; 0x13
    1068:	14 8a       	std	Z+20, r1	; 0x14
    106a:	15 8a       	std	Z+21, r1	; 0x15
    106c:	16 8a       	std	Z+22, r1	; 0x16
    106e:	80 e0       	ldi	r24, 0x00	; 0
    1070:	29 c0       	rjmp	.+82     	; 0x10c4 <find_volume+0x57a>
    1072:	8b e0       	ldi	r24, 0x0B	; 11
    1074:	27 c0       	rjmp	.+78     	; 0x10c4 <find_volume+0x57a>
    1076:	8c e0       	ldi	r24, 0x0C	; 12
    1078:	25 c0       	rjmp	.+74     	; 0x10c4 <find_volume+0x57a>
    107a:	80 e0       	ldi	r24, 0x00	; 0
    107c:	23 c0       	rjmp	.+70     	; 0x10c4 <find_volume+0x57a>
    107e:	8a e0       	ldi	r24, 0x0A	; 10
    1080:	21 c0       	rjmp	.+66     	; 0x10c4 <find_volume+0x57a>
    1082:	83 e0       	ldi	r24, 0x03	; 3
    1084:	1f c0       	rjmp	.+62     	; 0x10c4 <find_volume+0x57a>
    1086:	8a e0       	ldi	r24, 0x0A	; 10
    1088:	1d c0       	rjmp	.+58     	; 0x10c4 <find_volume+0x57a>
    108a:	81 e0       	ldi	r24, 0x01	; 1
    108c:	1b c0       	rjmp	.+54     	; 0x10c4 <find_volume+0x57a>
    108e:	8d e0       	ldi	r24, 0x0D	; 13
    1090:	19 c0       	rjmp	.+50     	; 0x10c4 <find_volume+0x57a>
    1092:	8d e0       	ldi	r24, 0x0D	; 13
    1094:	17 c0       	rjmp	.+46     	; 0x10c4 <find_volume+0x57a>
    1096:	8d e0       	ldi	r24, 0x0D	; 13
    1098:	15 c0       	rjmp	.+42     	; 0x10c4 <find_volume+0x57a>
    109a:	8d e0       	ldi	r24, 0x0D	; 13
    109c:	13 c0       	rjmp	.+38     	; 0x10c4 <find_volume+0x57a>
    109e:	8d e0       	ldi	r24, 0x0D	; 13
    10a0:	11 c0       	rjmp	.+34     	; 0x10c4 <find_volume+0x57a>
    10a2:	8d e0       	ldi	r24, 0x0D	; 13
    10a4:	0f c0       	rjmp	.+30     	; 0x10c4 <find_volume+0x57a>
    10a6:	8d e0       	ldi	r24, 0x0D	; 13
    10a8:	0d c0       	rjmp	.+26     	; 0x10c4 <find_volume+0x57a>
    10aa:	8d e0       	ldi	r24, 0x0D	; 13
    10ac:	0b c0       	rjmp	.+22     	; 0x10c4 <find_volume+0x57a>
    10ae:	8d e0       	ldi	r24, 0x0D	; 13
    10b0:	09 c0       	rjmp	.+18     	; 0x10c4 <find_volume+0x57a>
    10b2:	8d e0       	ldi	r24, 0x0D	; 13
    10b4:	07 c0       	rjmp	.+14     	; 0x10c4 <find_volume+0x57a>
    10b6:	8d e0       	ldi	r24, 0x0D	; 13
    10b8:	05 c0       	rjmp	.+10     	; 0x10c4 <find_volume+0x57a>
    10ba:	8d e0       	ldi	r24, 0x0D	; 13
    10bc:	03 c0       	rjmp	.+6      	; 0x10c4 <find_volume+0x57a>
    10be:	8d e0       	ldi	r24, 0x0D	; 13
    10c0:	01 c0       	rjmp	.+2      	; 0x10c4 <find_volume+0x57a>
    10c2:	8d e0       	ldi	r24, 0x0D	; 13
    10c4:	a0 96       	adiw	r28, 0x20	; 32
    10c6:	cd bf       	out	0x3d, r28	; 61
    10c8:	de bf       	out	0x3e, r29	; 62
    10ca:	df 91       	pop	r29
    10cc:	cf 91       	pop	r28
    10ce:	1f 91       	pop	r17
    10d0:	0f 91       	pop	r16
    10d2:	ff 90       	pop	r15
    10d4:	ef 90       	pop	r14
    10d6:	df 90       	pop	r13
    10d8:	cf 90       	pop	r12
    10da:	bf 90       	pop	r11
    10dc:	af 90       	pop	r10
    10de:	9f 90       	pop	r9
    10e0:	8f 90       	pop	r8
    10e2:	7f 90       	pop	r7
    10e4:	6f 90       	pop	r6
    10e6:	5f 90       	pop	r5
    10e8:	4f 90       	pop	r4
    10ea:	08 95       	ret

000010ec <put_fat>:
    10ec:	2f 92       	push	r2
    10ee:	3f 92       	push	r3
    10f0:	4f 92       	push	r4
    10f2:	5f 92       	push	r5
    10f4:	6f 92       	push	r6
    10f6:	7f 92       	push	r7
    10f8:	8f 92       	push	r8
    10fa:	9f 92       	push	r9
    10fc:	af 92       	push	r10
    10fe:	bf 92       	push	r11
    1100:	cf 92       	push	r12
    1102:	df 92       	push	r13
    1104:	ef 92       	push	r14
    1106:	ff 92       	push	r15
    1108:	0f 93       	push	r16
    110a:	1f 93       	push	r17
    110c:	cf 93       	push	r28
    110e:	df 93       	push	r29
    1110:	00 d0       	rcall	.+0      	; 0x1112 <put_fat+0x26>
    1112:	00 d0       	rcall	.+0      	; 0x1114 <put_fat+0x28>
    1114:	cd b7       	in	r28, 0x3d	; 61
    1116:	de b7       	in	r29, 0x3e	; 62
    1118:	42 30       	cpi	r20, 0x02	; 2
    111a:	51 05       	cpc	r21, r1
    111c:	61 05       	cpc	r22, r1
    111e:	71 05       	cpc	r23, r1
    1120:	08 f4       	brcc	.+2      	; 0x1124 <put_fat+0x38>
    1122:	f1 c0       	rjmp	.+482    	; 0x1306 <put_fat+0x21a>
    1124:	fc 01       	movw	r30, r24
    1126:	c7 88       	ldd	r12, Z+23	; 0x17
    1128:	d0 8c       	ldd	r13, Z+24	; 0x18
    112a:	e1 8c       	ldd	r14, Z+25	; 0x19
    112c:	f2 8c       	ldd	r15, Z+26	; 0x1a
    112e:	4c 15       	cp	r20, r12
    1130:	5d 05       	cpc	r21, r13
    1132:	6e 05       	cpc	r22, r14
    1134:	7f 05       	cpc	r23, r15
    1136:	08 f0       	brcs	.+2      	; 0x113a <put_fat+0x4e>
    1138:	e8 c0       	rjmp	.+464    	; 0x130a <put_fat+0x21e>
    113a:	28 01       	movw	r4, r16
    113c:	39 01       	movw	r6, r18
    113e:	6a 01       	movw	r12, r20
    1140:	7b 01       	movw	r14, r22
    1142:	8b 83       	std	Y+3, r24	; 0x03
    1144:	9c 83       	std	Y+4, r25	; 0x04
    1146:	80 81       	ld	r24, Z
    1148:	82 30       	cpi	r24, 0x02	; 2
    114a:	09 f4       	brne	.+2      	; 0x114e <put_fat+0x62>
    114c:	75 c0       	rjmp	.+234    	; 0x1238 <put_fat+0x14c>
    114e:	83 30       	cpi	r24, 0x03	; 3
    1150:	09 f4       	brne	.+2      	; 0x1154 <put_fat+0x68>
    1152:	99 c0       	rjmp	.+306    	; 0x1286 <put_fat+0x19a>
    1154:	81 30       	cpi	r24, 0x01	; 1
    1156:	09 f0       	breq	.+2      	; 0x115a <put_fat+0x6e>
    1158:	da c0       	rjmp	.+436    	; 0x130e <put_fat+0x222>
    115a:	5a 01       	movw	r10, r20
    115c:	b6 94       	lsr	r11
    115e:	a7 94       	ror	r10
    1160:	a4 0e       	add	r10, r20
    1162:	b5 1e       	adc	r11, r21
    1164:	43 a1       	ldd	r20, Z+35	; 0x23
    1166:	54 a1       	ldd	r21, Z+36	; 0x24
    1168:	65 a1       	ldd	r22, Z+37	; 0x25
    116a:	76 a1       	ldd	r23, Z+38	; 0x26
    116c:	c5 01       	movw	r24, r10
    116e:	89 2f       	mov	r24, r25
    1170:	99 27       	eor	r25, r25
    1172:	86 95       	lsr	r24
    1174:	48 0f       	add	r20, r24
    1176:	59 1f       	adc	r21, r25
    1178:	61 1d       	adc	r22, r1
    117a:	71 1d       	adc	r23, r1
    117c:	cf 01       	movw	r24, r30
    117e:	0e 94 21 05 	call	0xa42	; 0xa42 <move_window>
    1182:	18 2f       	mov	r17, r24
    1184:	81 11       	cpse	r24, r1
    1186:	c4 c0       	rjmp	.+392    	; 0x1310 <put_fat+0x224>
    1188:	2b 81       	ldd	r18, Y+3	; 0x03
    118a:	3c 81       	ldd	r19, Y+4	; 0x04
    118c:	2d 5c       	subi	r18, 0xCD	; 205
    118e:	3f 4f       	sbci	r19, 0xFF	; 255
    1190:	29 83       	std	Y+1, r18	; 0x01
    1192:	3a 83       	std	Y+2, r19	; 0x02
    1194:	15 01       	movw	r2, r10
    1196:	3f ef       	ldi	r19, 0xFF	; 255
    1198:	23 1a       	sub	r2, r19
    119a:	33 0a       	sbc	r3, r19
    119c:	81 e0       	ldi	r24, 0x01	; 1
    119e:	b8 22       	and	r11, r24
    11a0:	e9 81       	ldd	r30, Y+1	; 0x01
    11a2:	fa 81       	ldd	r31, Y+2	; 0x02
    11a4:	ea 0d       	add	r30, r10
    11a6:	fb 1d       	adc	r31, r11
    11a8:	46 01       	movw	r8, r12
    11aa:	57 01       	movw	r10, r14
    11ac:	91 e0       	ldi	r25, 0x01	; 1
    11ae:	89 22       	and	r8, r25
    11b0:	99 24       	eor	r9, r9
    11b2:	aa 24       	eor	r10, r10
    11b4:	bb 24       	eor	r11, r11
    11b6:	c0 fe       	sbrs	r12, 0
    11b8:	08 c0       	rjmp	.+16     	; 0x11ca <put_fat+0xde>
    11ba:	20 81       	ld	r18, Z
    11bc:	30 e1       	ldi	r19, 0x10	; 16
    11be:	43 9e       	mul	r4, r19
    11c0:	c0 01       	movw	r24, r0
    11c2:	11 24       	eor	r1, r1
    11c4:	2f 70       	andi	r18, 0x0F	; 15
    11c6:	82 2b       	or	r24, r18
    11c8:	01 c0       	rjmp	.+2      	; 0x11cc <put_fat+0xe0>
    11ca:	84 2d       	mov	r24, r4
    11cc:	80 83       	st	Z, r24
    11ce:	81 e0       	ldi	r24, 0x01	; 1
    11d0:	eb 81       	ldd	r30, Y+3	; 0x03
    11d2:	fc 81       	ldd	r31, Y+4	; 0x04
    11d4:	83 83       	std	Z+3, r24	; 0x03
    11d6:	43 a1       	ldd	r20, Z+35	; 0x23
    11d8:	54 a1       	ldd	r21, Z+36	; 0x24
    11da:	65 a1       	ldd	r22, Z+37	; 0x25
    11dc:	76 a1       	ldd	r23, Z+38	; 0x26
    11de:	c1 01       	movw	r24, r2
    11e0:	89 2f       	mov	r24, r25
    11e2:	99 27       	eor	r25, r25
    11e4:	86 95       	lsr	r24
    11e6:	48 0f       	add	r20, r24
    11e8:	59 1f       	adc	r21, r25
    11ea:	61 1d       	adc	r22, r1
    11ec:	71 1d       	adc	r23, r1
    11ee:	cf 01       	movw	r24, r30
    11f0:	0e 94 21 05 	call	0xa42	; 0xa42 <move_window>
    11f4:	18 2f       	mov	r17, r24
    11f6:	81 11       	cpse	r24, r1
    11f8:	8b c0       	rjmp	.+278    	; 0x1310 <put_fat+0x224>
    11fa:	f1 e0       	ldi	r31, 0x01	; 1
    11fc:	3f 22       	and	r3, r31
    11fe:	e9 81       	ldd	r30, Y+1	; 0x01
    1200:	fa 81       	ldd	r31, Y+2	; 0x02
    1202:	e2 0d       	add	r30, r2
    1204:	f3 1d       	adc	r31, r3
    1206:	89 28       	or	r8, r9
    1208:	8a 28       	or	r8, r10
    120a:	8b 28       	or	r8, r11
    120c:	49 f0       	breq	.+18     	; 0x1220 <put_fat+0x134>
    120e:	68 94       	set
    1210:	13 f8       	bld	r1, 3
    1212:	76 94       	lsr	r7
    1214:	67 94       	ror	r6
    1216:	57 94       	ror	r5
    1218:	47 94       	ror	r4
    121a:	16 94       	lsr	r1
    121c:	d1 f7       	brne	.-12     	; 0x1212 <put_fat+0x126>
    121e:	06 c0       	rjmp	.+12     	; 0x122c <put_fat+0x140>
    1220:	90 81       	ld	r25, Z
    1222:	90 7f       	andi	r25, 0xF0	; 240
    1224:	85 2d       	mov	r24, r5
    1226:	8f 70       	andi	r24, 0x0F	; 15
    1228:	49 2e       	mov	r4, r25
    122a:	48 2a       	or	r4, r24
    122c:	40 82       	st	Z, r4
    122e:	81 e0       	ldi	r24, 0x01	; 1
    1230:	eb 81       	ldd	r30, Y+3	; 0x03
    1232:	fc 81       	ldd	r31, Y+4	; 0x04
    1234:	83 83       	std	Z+3, r24	; 0x03
    1236:	6c c0       	rjmp	.+216    	; 0x1310 <put_fat+0x224>
    1238:	eb 81       	ldd	r30, Y+3	; 0x03
    123a:	fc 81       	ldd	r31, Y+4	; 0x04
    123c:	43 a1       	ldd	r20, Z+35	; 0x23
    123e:	54 a1       	ldd	r21, Z+36	; 0x24
    1240:	65 a1       	ldd	r22, Z+37	; 0x25
    1242:	76 a1       	ldd	r23, Z+38	; 0x26
    1244:	bb 27       	eor	r27, r27
    1246:	af 2d       	mov	r26, r15
    1248:	9e 2d       	mov	r25, r14
    124a:	8d 2d       	mov	r24, r13
    124c:	48 0f       	add	r20, r24
    124e:	59 1f       	adc	r21, r25
    1250:	6a 1f       	adc	r22, r26
    1252:	7b 1f       	adc	r23, r27
    1254:	cf 01       	movw	r24, r30
    1256:	0e 94 21 05 	call	0xa42	; 0xa42 <move_window>
    125a:	18 2f       	mov	r17, r24
    125c:	81 11       	cpse	r24, r1
    125e:	58 c0       	rjmp	.+176    	; 0x1310 <put_fat+0x224>
    1260:	2b 81       	ldd	r18, Y+3	; 0x03
    1262:	3c 81       	ldd	r19, Y+4	; 0x04
    1264:	2d 5c       	subi	r18, 0xCD	; 205
    1266:	3f 4f       	sbci	r19, 0xFF	; 255
    1268:	cc 0c       	add	r12, r12
    126a:	dd 1c       	adc	r13, r13
    126c:	c6 01       	movw	r24, r12
    126e:	8e 7f       	andi	r24, 0xFE	; 254
    1270:	91 70       	andi	r25, 0x01	; 1
    1272:	b2 01       	movw	r22, r4
    1274:	82 0f       	add	r24, r18
    1276:	93 1f       	adc	r25, r19
    1278:	0e 94 5b 02 	call	0x4b6	; 0x4b6 <st_word>
    127c:	81 e0       	ldi	r24, 0x01	; 1
    127e:	eb 81       	ldd	r30, Y+3	; 0x03
    1280:	fc 81       	ldd	r31, Y+4	; 0x04
    1282:	83 83       	std	Z+3, r24	; 0x03
    1284:	45 c0       	rjmp	.+138    	; 0x1310 <put_fat+0x224>
    1286:	eb 81       	ldd	r30, Y+3	; 0x03
    1288:	fc 81       	ldd	r31, Y+4	; 0x04
    128a:	43 a1       	ldd	r20, Z+35	; 0x23
    128c:	54 a1       	ldd	r21, Z+36	; 0x24
    128e:	65 a1       	ldd	r22, Z+37	; 0x25
    1290:	76 a1       	ldd	r23, Z+38	; 0x26
    1292:	d7 01       	movw	r26, r14
    1294:	c6 01       	movw	r24, r12
    1296:	68 94       	set
    1298:	16 f8       	bld	r1, 6
    129a:	b6 95       	lsr	r27
    129c:	a7 95       	ror	r26
    129e:	97 95       	ror	r25
    12a0:	87 95       	ror	r24
    12a2:	16 94       	lsr	r1
    12a4:	d1 f7       	brne	.-12     	; 0x129a <put_fat+0x1ae>
    12a6:	48 0f       	add	r20, r24
    12a8:	59 1f       	adc	r21, r25
    12aa:	6a 1f       	adc	r22, r26
    12ac:	7b 1f       	adc	r23, r27
    12ae:	cf 01       	movw	r24, r30
    12b0:	0e 94 21 05 	call	0xa42	; 0xa42 <move_window>
    12b4:	18 2f       	mov	r17, r24
    12b6:	81 11       	cpse	r24, r1
    12b8:	2b c0       	rjmp	.+86     	; 0x1310 <put_fat+0x224>
    12ba:	ff e0       	ldi	r31, 0x0F	; 15
    12bc:	7f 22       	and	r7, r31
    12be:	8b 81       	ldd	r24, Y+3	; 0x03
    12c0:	9c 81       	ldd	r25, Y+4	; 0x04
    12c2:	c3 96       	adiw	r24, 0x33	; 51
    12c4:	cc 0c       	add	r12, r12
    12c6:	dd 1c       	adc	r13, r13
    12c8:	cc 0c       	add	r12, r12
    12ca:	dd 1c       	adc	r13, r13
    12cc:	2c ef       	ldi	r18, 0xFC	; 252
    12ce:	c2 22       	and	r12, r18
    12d0:	21 e0       	ldi	r18, 0x01	; 1
    12d2:	d2 22       	and	r13, r18
    12d4:	c8 0e       	add	r12, r24
    12d6:	d9 1e       	adc	r13, r25
    12d8:	c6 01       	movw	r24, r12
    12da:	0e 94 40 02 	call	0x480	; 0x480 <ld_dword>
    12de:	dc 01       	movw	r26, r24
    12e0:	cb 01       	movw	r24, r22
    12e2:	88 27       	eor	r24, r24
    12e4:	99 27       	eor	r25, r25
    12e6:	aa 27       	eor	r26, r26
    12e8:	b0 7f       	andi	r27, 0xF0	; 240
    12ea:	b3 01       	movw	r22, r6
    12ec:	a2 01       	movw	r20, r4
    12ee:	48 2b       	or	r20, r24
    12f0:	59 2b       	or	r21, r25
    12f2:	6a 2b       	or	r22, r26
    12f4:	7b 2b       	or	r23, r27
    12f6:	c6 01       	movw	r24, r12
    12f8:	0e 94 5f 02 	call	0x4be	; 0x4be <st_dword>
    12fc:	81 e0       	ldi	r24, 0x01	; 1
    12fe:	eb 81       	ldd	r30, Y+3	; 0x03
    1300:	fc 81       	ldd	r31, Y+4	; 0x04
    1302:	83 83       	std	Z+3, r24	; 0x03
    1304:	05 c0       	rjmp	.+10     	; 0x1310 <put_fat+0x224>
    1306:	12 e0       	ldi	r17, 0x02	; 2
    1308:	03 c0       	rjmp	.+6      	; 0x1310 <put_fat+0x224>
    130a:	12 e0       	ldi	r17, 0x02	; 2
    130c:	01 c0       	rjmp	.+2      	; 0x1310 <put_fat+0x224>
    130e:	12 e0       	ldi	r17, 0x02	; 2
    1310:	81 2f       	mov	r24, r17
    1312:	24 96       	adiw	r28, 0x04	; 4
    1314:	cd bf       	out	0x3d, r28	; 61
    1316:	de bf       	out	0x3e, r29	; 62
    1318:	df 91       	pop	r29
    131a:	cf 91       	pop	r28
    131c:	1f 91       	pop	r17
    131e:	0f 91       	pop	r16
    1320:	ff 90       	pop	r15
    1322:	ef 90       	pop	r14
    1324:	df 90       	pop	r13
    1326:	cf 90       	pop	r12
    1328:	bf 90       	pop	r11
    132a:	af 90       	pop	r10
    132c:	9f 90       	pop	r9
    132e:	8f 90       	pop	r8
    1330:	7f 90       	pop	r7
    1332:	6f 90       	pop	r6
    1334:	5f 90       	pop	r5
    1336:	4f 90       	pop	r4
    1338:	3f 90       	pop	r3
    133a:	2f 90       	pop	r2
    133c:	08 95       	ret

0000133e <get_fat>:
    133e:	af 92       	push	r10
    1340:	bf 92       	push	r11
    1342:	cf 92       	push	r12
    1344:	df 92       	push	r13
    1346:	ef 92       	push	r14
    1348:	ff 92       	push	r15
    134a:	0f 93       	push	r16
    134c:	1f 93       	push	r17
    134e:	cf 93       	push	r28
    1350:	df 93       	push	r29
    1352:	fc 01       	movw	r30, r24
    1354:	c0 81       	ld	r28, Z
    1356:	d1 81       	ldd	r29, Z+1	; 0x01
    1358:	42 30       	cpi	r20, 0x02	; 2
    135a:	51 05       	cpc	r21, r1
    135c:	61 05       	cpc	r22, r1
    135e:	71 05       	cpc	r23, r1
    1360:	08 f4       	brcc	.+2      	; 0x1364 <get_fat+0x26>
    1362:	a6 c0       	rjmp	.+332    	; 0x14b0 <get_fat+0x172>
    1364:	8f 89       	ldd	r24, Y+23	; 0x17
    1366:	98 8d       	ldd	r25, Y+24	; 0x18
    1368:	a9 8d       	ldd	r26, Y+25	; 0x19
    136a:	ba 8d       	ldd	r27, Y+26	; 0x1a
    136c:	48 17       	cp	r20, r24
    136e:	59 07       	cpc	r21, r25
    1370:	6a 07       	cpc	r22, r26
    1372:	7b 07       	cpc	r23, r27
    1374:	08 f0       	brcs	.+2      	; 0x1378 <get_fat+0x3a>
    1376:	a1 c0       	rjmp	.+322    	; 0x14ba <get_fat+0x17c>
    1378:	6a 01       	movw	r12, r20
    137a:	7b 01       	movw	r14, r22
    137c:	88 81       	ld	r24, Y
    137e:	82 30       	cpi	r24, 0x02	; 2
    1380:	09 f4       	brne	.+2      	; 0x1384 <get_fat+0x46>
    1382:	50 c0       	rjmp	.+160    	; 0x1424 <get_fat+0xe6>
    1384:	83 30       	cpi	r24, 0x03	; 3
    1386:	09 f4       	brne	.+2      	; 0x138a <get_fat+0x4c>
    1388:	6d c0       	rjmp	.+218    	; 0x1464 <get_fat+0x126>
    138a:	81 30       	cpi	r24, 0x01	; 1
    138c:	09 f0       	breq	.+2      	; 0x1390 <get_fat+0x52>
    138e:	9a c0       	rjmp	.+308    	; 0x14c4 <get_fat+0x186>
    1390:	8a 01       	movw	r16, r20
    1392:	16 95       	lsr	r17
    1394:	07 95       	ror	r16
    1396:	04 0f       	add	r16, r20
    1398:	15 1f       	adc	r17, r21
    139a:	4b a1       	ldd	r20, Y+35	; 0x23
    139c:	5c a1       	ldd	r21, Y+36	; 0x24
    139e:	6d a1       	ldd	r22, Y+37	; 0x25
    13a0:	7e a1       	ldd	r23, Y+38	; 0x26
    13a2:	c8 01       	movw	r24, r16
    13a4:	89 2f       	mov	r24, r25
    13a6:	99 27       	eor	r25, r25
    13a8:	86 95       	lsr	r24
    13aa:	48 0f       	add	r20, r24
    13ac:	59 1f       	adc	r21, r25
    13ae:	61 1d       	adc	r22, r1
    13b0:	71 1d       	adc	r23, r1
    13b2:	ce 01       	movw	r24, r28
    13b4:	0e 94 21 05 	call	0xa42	; 0xa42 <move_window>
    13b8:	81 11       	cpse	r24, r1
    13ba:	89 c0       	rjmp	.+274    	; 0x14ce <get_fat+0x190>
    13bc:	58 01       	movw	r10, r16
    13be:	ff ef       	ldi	r31, 0xFF	; 255
    13c0:	af 1a       	sub	r10, r31
    13c2:	bf 0a       	sbc	r11, r31
    13c4:	11 70       	andi	r17, 0x01	; 1
    13c6:	fe 01       	movw	r30, r28
    13c8:	e0 0f       	add	r30, r16
    13ca:	f1 1f       	adc	r31, r17
    13cc:	03 a9       	ldd	r16, Z+51	; 0x33
    13ce:	10 e0       	ldi	r17, 0x00	; 0
    13d0:	4b a1       	ldd	r20, Y+35	; 0x23
    13d2:	5c a1       	ldd	r21, Y+36	; 0x24
    13d4:	6d a1       	ldd	r22, Y+37	; 0x25
    13d6:	7e a1       	ldd	r23, Y+38	; 0x26
    13d8:	c5 01       	movw	r24, r10
    13da:	89 2f       	mov	r24, r25
    13dc:	99 27       	eor	r25, r25
    13de:	86 95       	lsr	r24
    13e0:	48 0f       	add	r20, r24
    13e2:	59 1f       	adc	r21, r25
    13e4:	61 1d       	adc	r22, r1
    13e6:	71 1d       	adc	r23, r1
    13e8:	ce 01       	movw	r24, r28
    13ea:	0e 94 21 05 	call	0xa42	; 0xa42 <move_window>
    13ee:	81 11       	cpse	r24, r1
    13f0:	72 c0       	rjmp	.+228    	; 0x14d6 <get_fat+0x198>
    13f2:	81 e0       	ldi	r24, 0x01	; 1
    13f4:	b8 22       	and	r11, r24
    13f6:	ca 0d       	add	r28, r10
    13f8:	db 1d       	adc	r29, r11
    13fa:	6b a9       	ldd	r22, Y+51	; 0x33
    13fc:	70 e0       	ldi	r23, 0x00	; 0
    13fe:	76 2f       	mov	r23, r22
    1400:	66 27       	eor	r22, r22
    1402:	60 2b       	or	r22, r16
    1404:	71 2b       	or	r23, r17
    1406:	c0 fe       	sbrs	r12, 0
    1408:	09 c0       	rjmp	.+18     	; 0x141c <get_fat+0xde>
    140a:	72 95       	swap	r23
    140c:	62 95       	swap	r22
    140e:	6f 70       	andi	r22, 0x0F	; 15
    1410:	67 27       	eor	r22, r23
    1412:	7f 70       	andi	r23, 0x0F	; 15
    1414:	67 27       	eor	r22, r23
    1416:	80 e0       	ldi	r24, 0x00	; 0
    1418:	90 e0       	ldi	r25, 0x00	; 0
    141a:	68 c0       	rjmp	.+208    	; 0x14ec <get_fat+0x1ae>
    141c:	7f 70       	andi	r23, 0x0F	; 15
    141e:	80 e0       	ldi	r24, 0x00	; 0
    1420:	90 e0       	ldi	r25, 0x00	; 0
    1422:	64 c0       	rjmp	.+200    	; 0x14ec <get_fat+0x1ae>
    1424:	4b a1       	ldd	r20, Y+35	; 0x23
    1426:	5c a1       	ldd	r21, Y+36	; 0x24
    1428:	6d a1       	ldd	r22, Y+37	; 0x25
    142a:	7e a1       	ldd	r23, Y+38	; 0x26
    142c:	bb 27       	eor	r27, r27
    142e:	af 2d       	mov	r26, r15
    1430:	9e 2d       	mov	r25, r14
    1432:	8d 2d       	mov	r24, r13
    1434:	48 0f       	add	r20, r24
    1436:	59 1f       	adc	r21, r25
    1438:	6a 1f       	adc	r22, r26
    143a:	7b 1f       	adc	r23, r27
    143c:	ce 01       	movw	r24, r28
    143e:	0e 94 21 05 	call	0xa42	; 0xa42 <move_window>
    1442:	81 11       	cpse	r24, r1
    1444:	4c c0       	rjmp	.+152    	; 0x14de <get_fat+0x1a0>
    1446:	ce 01       	movw	r24, r28
    1448:	c3 96       	adiw	r24, 0x33	; 51
    144a:	a6 01       	movw	r20, r12
    144c:	44 0f       	add	r20, r20
    144e:	55 1f       	adc	r21, r21
    1450:	4e 7f       	andi	r20, 0xFE	; 254
    1452:	51 70       	andi	r21, 0x01	; 1
    1454:	84 0f       	add	r24, r20
    1456:	95 1f       	adc	r25, r21
    1458:	0e 94 36 02 	call	0x46c	; 0x46c <ld_word>
    145c:	bc 01       	movw	r22, r24
    145e:	80 e0       	ldi	r24, 0x00	; 0
    1460:	90 e0       	ldi	r25, 0x00	; 0
    1462:	44 c0       	rjmp	.+136    	; 0x14ec <get_fat+0x1ae>
    1464:	4b a1       	ldd	r20, Y+35	; 0x23
    1466:	5c a1       	ldd	r21, Y+36	; 0x24
    1468:	6d a1       	ldd	r22, Y+37	; 0x25
    146a:	7e a1       	ldd	r23, Y+38	; 0x26
    146c:	d7 01       	movw	r26, r14
    146e:	c6 01       	movw	r24, r12
    1470:	68 94       	set
    1472:	16 f8       	bld	r1, 6
    1474:	b6 95       	lsr	r27
    1476:	a7 95       	ror	r26
    1478:	97 95       	ror	r25
    147a:	87 95       	ror	r24
    147c:	16 94       	lsr	r1
    147e:	d1 f7       	brne	.-12     	; 0x1474 <get_fat+0x136>
    1480:	48 0f       	add	r20, r24
    1482:	59 1f       	adc	r21, r25
    1484:	6a 1f       	adc	r22, r26
    1486:	7b 1f       	adc	r23, r27
    1488:	ce 01       	movw	r24, r28
    148a:	0e 94 21 05 	call	0xa42	; 0xa42 <move_window>
    148e:	81 11       	cpse	r24, r1
    1490:	2a c0       	rjmp	.+84     	; 0x14e6 <get_fat+0x1a8>
    1492:	e3 96       	adiw	r28, 0x33	; 51
    1494:	a6 01       	movw	r20, r12
    1496:	44 0f       	add	r20, r20
    1498:	55 1f       	adc	r21, r21
    149a:	44 0f       	add	r20, r20
    149c:	55 1f       	adc	r21, r21
    149e:	ca 01       	movw	r24, r20
    14a0:	8c 7f       	andi	r24, 0xFC	; 252
    14a2:	91 70       	andi	r25, 0x01	; 1
    14a4:	8c 0f       	add	r24, r28
    14a6:	9d 1f       	adc	r25, r29
    14a8:	0e 94 40 02 	call	0x480	; 0x480 <ld_dword>
    14ac:	9f 70       	andi	r25, 0x0F	; 15
    14ae:	1e c0       	rjmp	.+60     	; 0x14ec <get_fat+0x1ae>
    14b0:	61 e0       	ldi	r22, 0x01	; 1
    14b2:	70 e0       	ldi	r23, 0x00	; 0
    14b4:	80 e0       	ldi	r24, 0x00	; 0
    14b6:	90 e0       	ldi	r25, 0x00	; 0
    14b8:	19 c0       	rjmp	.+50     	; 0x14ec <get_fat+0x1ae>
    14ba:	61 e0       	ldi	r22, 0x01	; 1
    14bc:	70 e0       	ldi	r23, 0x00	; 0
    14be:	80 e0       	ldi	r24, 0x00	; 0
    14c0:	90 e0       	ldi	r25, 0x00	; 0
    14c2:	14 c0       	rjmp	.+40     	; 0x14ec <get_fat+0x1ae>
    14c4:	61 e0       	ldi	r22, 0x01	; 1
    14c6:	70 e0       	ldi	r23, 0x00	; 0
    14c8:	80 e0       	ldi	r24, 0x00	; 0
    14ca:	90 e0       	ldi	r25, 0x00	; 0
    14cc:	0f c0       	rjmp	.+30     	; 0x14ec <get_fat+0x1ae>
    14ce:	6f ef       	ldi	r22, 0xFF	; 255
    14d0:	7f ef       	ldi	r23, 0xFF	; 255
    14d2:	cb 01       	movw	r24, r22
    14d4:	0b c0       	rjmp	.+22     	; 0x14ec <get_fat+0x1ae>
    14d6:	6f ef       	ldi	r22, 0xFF	; 255
    14d8:	7f ef       	ldi	r23, 0xFF	; 255
    14da:	cb 01       	movw	r24, r22
    14dc:	07 c0       	rjmp	.+14     	; 0x14ec <get_fat+0x1ae>
    14de:	6f ef       	ldi	r22, 0xFF	; 255
    14e0:	7f ef       	ldi	r23, 0xFF	; 255
    14e2:	cb 01       	movw	r24, r22
    14e4:	03 c0       	rjmp	.+6      	; 0x14ec <get_fat+0x1ae>
    14e6:	6f ef       	ldi	r22, 0xFF	; 255
    14e8:	7f ef       	ldi	r23, 0xFF	; 255
    14ea:	cb 01       	movw	r24, r22
    14ec:	df 91       	pop	r29
    14ee:	cf 91       	pop	r28
    14f0:	1f 91       	pop	r17
    14f2:	0f 91       	pop	r16
    14f4:	ff 90       	pop	r15
    14f6:	ef 90       	pop	r14
    14f8:	df 90       	pop	r13
    14fa:	cf 90       	pop	r12
    14fc:	bf 90       	pop	r11
    14fe:	af 90       	pop	r10
    1500:	08 95       	ret

00001502 <dir_sdi>:
    1502:	4f 92       	push	r4
    1504:	5f 92       	push	r5
    1506:	6f 92       	push	r6
    1508:	7f 92       	push	r7
    150a:	8f 92       	push	r8
    150c:	9f 92       	push	r9
    150e:	af 92       	push	r10
    1510:	bf 92       	push	r11
    1512:	cf 92       	push	r12
    1514:	df 92       	push	r13
    1516:	ef 92       	push	r14
    1518:	ff 92       	push	r15
    151a:	0f 93       	push	r16
    151c:	1f 93       	push	r17
    151e:	cf 93       	push	r28
    1520:	df 93       	push	r29
    1522:	ec 01       	movw	r28, r24
    1524:	6a 01       	movw	r12, r20
    1526:	7b 01       	movw	r14, r22
    1528:	08 81       	ld	r16, Y
    152a:	19 81       	ldd	r17, Y+1	; 0x01
    152c:	41 15       	cp	r20, r1
    152e:	51 05       	cpc	r21, r1
    1530:	80 e2       	ldi	r24, 0x20	; 32
    1532:	68 07       	cpc	r22, r24
    1534:	71 05       	cpc	r23, r1
    1536:	08 f0       	brcs	.+2      	; 0x153a <dir_sdi+0x38>
    1538:	ac c0       	rjmp	.+344    	; 0x1692 <dir_sdi+0x190>
    153a:	db 01       	movw	r26, r22
    153c:	ca 01       	movw	r24, r20
    153e:	8f 71       	andi	r24, 0x1F	; 31
    1540:	99 27       	eor	r25, r25
    1542:	aa 27       	eor	r26, r26
    1544:	bb 27       	eor	r27, r27
    1546:	89 2b       	or	r24, r25
    1548:	8a 2b       	or	r24, r26
    154a:	8b 2b       	or	r24, r27
    154c:	09 f0       	breq	.+2      	; 0x1550 <dir_sdi+0x4e>
    154e:	a3 c0       	rjmp	.+326    	; 0x1696 <dir_sdi+0x194>
    1550:	4e 87       	std	Y+14, r20	; 0x0e
    1552:	5f 87       	std	Y+15, r21	; 0x0f
    1554:	68 8b       	std	Y+16, r22	; 0x10
    1556:	79 8b       	std	Y+17, r23	; 0x11
    1558:	8e 80       	ldd	r8, Y+6	; 0x06
    155a:	9f 80       	ldd	r9, Y+7	; 0x07
    155c:	a8 84       	ldd	r10, Y+8	; 0x08
    155e:	b9 84       	ldd	r11, Y+9	; 0x09
    1560:	81 14       	cp	r8, r1
    1562:	91 04       	cpc	r9, r1
    1564:	a1 04       	cpc	r10, r1
    1566:	b1 04       	cpc	r11, r1
    1568:	41 f4       	brne	.+16     	; 0x157a <dir_sdi+0x78>
    156a:	f8 01       	movw	r30, r16
    156c:	80 81       	ld	r24, Z
    156e:	83 30       	cpi	r24, 0x03	; 3
    1570:	20 f0       	brcs	.+8      	; 0x157a <dir_sdi+0x78>
    1572:	87 a0       	ldd	r8, Z+39	; 0x27
    1574:	90 a4       	ldd	r9, Z+40	; 0x28
    1576:	a1 a4       	ldd	r10, Z+41	; 0x29
    1578:	b2 a4       	ldd	r11, Z+42	; 0x2a
    157a:	81 14       	cp	r8, r1
    157c:	91 04       	cpc	r9, r1
    157e:	a1 04       	cpc	r10, r1
    1580:	b1 04       	cpc	r11, r1
    1582:	f1 f4       	brne	.+60     	; 0x15c0 <dir_sdi+0xbe>
    1584:	f8 01       	movw	r30, r16
    1586:	87 81       	ldd	r24, Z+7	; 0x07
    1588:	90 85       	ldd	r25, Z+8	; 0x08
    158a:	a0 e0       	ldi	r26, 0x00	; 0
    158c:	b0 e0       	ldi	r27, 0x00	; 0
    158e:	b7 01       	movw	r22, r14
    1590:	a6 01       	movw	r20, r12
    1592:	68 94       	set
    1594:	14 f8       	bld	r1, 4
    1596:	76 95       	lsr	r23
    1598:	67 95       	ror	r22
    159a:	57 95       	ror	r21
    159c:	47 95       	ror	r20
    159e:	16 94       	lsr	r1
    15a0:	d1 f7       	brne	.-12     	; 0x1596 <dir_sdi+0x94>
    15a2:	48 17       	cp	r20, r24
    15a4:	59 07       	cpc	r21, r25
    15a6:	6a 07       	cpc	r22, r26
    15a8:	7b 07       	cpc	r23, r27
    15aa:	08 f0       	brcs	.+2      	; 0x15ae <dir_sdi+0xac>
    15ac:	76 c0       	rjmp	.+236    	; 0x169a <dir_sdi+0x198>
    15ae:	87 a1       	ldd	r24, Z+39	; 0x27
    15b0:	90 a5       	ldd	r25, Z+40	; 0x28
    15b2:	a1 a5       	ldd	r26, Z+41	; 0x29
    15b4:	b2 a5       	ldd	r27, Z+42	; 0x2a
    15b6:	8e 8b       	std	Y+22, r24	; 0x16
    15b8:	9f 8b       	std	Y+23, r25	; 0x17
    15ba:	a8 8f       	std	Y+24, r26	; 0x18
    15bc:	b9 8f       	std	Y+25, r27	; 0x19
    15be:	40 c0       	rjmp	.+128    	; 0x1640 <dir_sdi+0x13e>
    15c0:	f8 01       	movw	r30, r16
    15c2:	41 84       	ldd	r4, Z+9	; 0x09
    15c4:	52 84       	ldd	r5, Z+10	; 0x0a
    15c6:	61 2c       	mov	r6, r1
    15c8:	71 2c       	mov	r7, r1
    15ca:	03 2e       	mov	r0, r19
    15cc:	39 e0       	ldi	r19, 0x09	; 9
    15ce:	44 0c       	add	r4, r4
    15d0:	55 1c       	adc	r5, r5
    15d2:	66 1c       	adc	r6, r6
    15d4:	77 1c       	adc	r7, r7
    15d6:	3a 95       	dec	r19
    15d8:	d1 f7       	brne	.-12     	; 0x15ce <dir_sdi+0xcc>
    15da:	30 2d       	mov	r19, r0
    15dc:	23 c0       	rjmp	.+70     	; 0x1624 <dir_sdi+0x122>
    15de:	b5 01       	movw	r22, r10
    15e0:	a4 01       	movw	r20, r8
    15e2:	ce 01       	movw	r24, r28
    15e4:	0e 94 9f 09 	call	0x133e	; 0x133e <get_fat>
    15e8:	4b 01       	movw	r8, r22
    15ea:	5c 01       	movw	r10, r24
    15ec:	6f 3f       	cpi	r22, 0xFF	; 255
    15ee:	7f 4f       	sbci	r23, 0xFF	; 255
    15f0:	8f 4f       	sbci	r24, 0xFF	; 255
    15f2:	9f 4f       	sbci	r25, 0xFF	; 255
    15f4:	09 f4       	brne	.+2      	; 0x15f8 <dir_sdi+0xf6>
    15f6:	53 c0       	rjmp	.+166    	; 0x169e <dir_sdi+0x19c>
    15f8:	82 e0       	ldi	r24, 0x02	; 2
    15fa:	88 16       	cp	r8, r24
    15fc:	91 04       	cpc	r9, r1
    15fe:	a1 04       	cpc	r10, r1
    1600:	b1 04       	cpc	r11, r1
    1602:	08 f4       	brcc	.+2      	; 0x1606 <dir_sdi+0x104>
    1604:	4e c0       	rjmp	.+156    	; 0x16a2 <dir_sdi+0x1a0>
    1606:	f8 01       	movw	r30, r16
    1608:	87 89       	ldd	r24, Z+23	; 0x17
    160a:	90 8d       	ldd	r25, Z+24	; 0x18
    160c:	a1 8d       	ldd	r26, Z+25	; 0x19
    160e:	b2 8d       	ldd	r27, Z+26	; 0x1a
    1610:	88 16       	cp	r8, r24
    1612:	99 06       	cpc	r9, r25
    1614:	aa 06       	cpc	r10, r26
    1616:	bb 06       	cpc	r11, r27
    1618:	08 f0       	brcs	.+2      	; 0x161c <dir_sdi+0x11a>
    161a:	45 c0       	rjmp	.+138    	; 0x16a6 <dir_sdi+0x1a4>
    161c:	c4 18       	sub	r12, r4
    161e:	d5 08       	sbc	r13, r5
    1620:	e6 08       	sbc	r14, r6
    1622:	f7 08       	sbc	r15, r7
    1624:	c4 14       	cp	r12, r4
    1626:	d5 04       	cpc	r13, r5
    1628:	e6 04       	cpc	r14, r6
    162a:	f7 04       	cpc	r15, r7
    162c:	c0 f6       	brcc	.-80     	; 0x15de <dir_sdi+0xdc>
    162e:	b5 01       	movw	r22, r10
    1630:	a4 01       	movw	r20, r8
    1632:	c8 01       	movw	r24, r16
    1634:	0e 94 d2 02 	call	0x5a4	; 0x5a4 <clst2sect>
    1638:	6e 8b       	std	Y+22, r22	; 0x16
    163a:	7f 8b       	std	Y+23, r23	; 0x17
    163c:	88 8f       	std	Y+24, r24	; 0x18
    163e:	99 8f       	std	Y+25, r25	; 0x19
    1640:	8a 8a       	std	Y+18, r8	; 0x12
    1642:	9b 8a       	std	Y+19, r9	; 0x13
    1644:	ac 8a       	std	Y+20, r10	; 0x14
    1646:	bd 8a       	std	Y+21, r11	; 0x15
    1648:	8e 89       	ldd	r24, Y+22	; 0x16
    164a:	9f 89       	ldd	r25, Y+23	; 0x17
    164c:	a8 8d       	ldd	r26, Y+24	; 0x18
    164e:	b9 8d       	ldd	r27, Y+25	; 0x19
    1650:	00 97       	sbiw	r24, 0x00	; 0
    1652:	a1 05       	cpc	r26, r1
    1654:	b1 05       	cpc	r27, r1
    1656:	49 f1       	breq	.+82     	; 0x16aa <dir_sdi+0x1a8>
    1658:	b7 01       	movw	r22, r14
    165a:	a6 01       	movw	r20, r12
    165c:	03 2e       	mov	r0, r19
    165e:	39 e0       	ldi	r19, 0x09	; 9
    1660:	76 95       	lsr	r23
    1662:	67 95       	ror	r22
    1664:	57 95       	ror	r21
    1666:	47 95       	ror	r20
    1668:	3a 95       	dec	r19
    166a:	d1 f7       	brne	.-12     	; 0x1660 <dir_sdi+0x15e>
    166c:	30 2d       	mov	r19, r0
    166e:	84 0f       	add	r24, r20
    1670:	95 1f       	adc	r25, r21
    1672:	a6 1f       	adc	r26, r22
    1674:	b7 1f       	adc	r27, r23
    1676:	8e 8b       	std	Y+22, r24	; 0x16
    1678:	9f 8b       	std	Y+23, r25	; 0x17
    167a:	a8 8f       	std	Y+24, r26	; 0x18
    167c:	b9 8f       	std	Y+25, r27	; 0x19
    167e:	0d 5c       	subi	r16, 0xCD	; 205
    1680:	1f 4f       	sbci	r17, 0xFF	; 255
    1682:	f1 e0       	ldi	r31, 0x01	; 1
    1684:	df 22       	and	r13, r31
    1686:	c0 0e       	add	r12, r16
    1688:	d1 1e       	adc	r13, r17
    168a:	ca 8e       	std	Y+26, r12	; 0x1a
    168c:	db 8e       	std	Y+27, r13	; 0x1b
    168e:	80 e0       	ldi	r24, 0x00	; 0
    1690:	0d c0       	rjmp	.+26     	; 0x16ac <dir_sdi+0x1aa>
    1692:	82 e0       	ldi	r24, 0x02	; 2
    1694:	0b c0       	rjmp	.+22     	; 0x16ac <dir_sdi+0x1aa>
    1696:	82 e0       	ldi	r24, 0x02	; 2
    1698:	09 c0       	rjmp	.+18     	; 0x16ac <dir_sdi+0x1aa>
    169a:	82 e0       	ldi	r24, 0x02	; 2
    169c:	07 c0       	rjmp	.+14     	; 0x16ac <dir_sdi+0x1aa>
    169e:	81 e0       	ldi	r24, 0x01	; 1
    16a0:	05 c0       	rjmp	.+10     	; 0x16ac <dir_sdi+0x1aa>
    16a2:	82 e0       	ldi	r24, 0x02	; 2
    16a4:	03 c0       	rjmp	.+6      	; 0x16ac <dir_sdi+0x1aa>
    16a6:	82 e0       	ldi	r24, 0x02	; 2
    16a8:	01 c0       	rjmp	.+2      	; 0x16ac <dir_sdi+0x1aa>
    16aa:	82 e0       	ldi	r24, 0x02	; 2
    16ac:	df 91       	pop	r29
    16ae:	cf 91       	pop	r28
    16b0:	1f 91       	pop	r17
    16b2:	0f 91       	pop	r16
    16b4:	ff 90       	pop	r15
    16b6:	ef 90       	pop	r14
    16b8:	df 90       	pop	r13
    16ba:	cf 90       	pop	r12
    16bc:	bf 90       	pop	r11
    16be:	af 90       	pop	r10
    16c0:	9f 90       	pop	r9
    16c2:	8f 90       	pop	r8
    16c4:	7f 90       	pop	r7
    16c6:	6f 90       	pop	r6
    16c8:	5f 90       	pop	r5
    16ca:	4f 90       	pop	r4
    16cc:	08 95       	ret

000016ce <create_chain>:
    16ce:	4f 92       	push	r4
    16d0:	5f 92       	push	r5
    16d2:	6f 92       	push	r6
    16d4:	7f 92       	push	r7
    16d6:	8f 92       	push	r8
    16d8:	9f 92       	push	r9
    16da:	af 92       	push	r10
    16dc:	bf 92       	push	r11
    16de:	cf 92       	push	r12
    16e0:	df 92       	push	r13
    16e2:	ef 92       	push	r14
    16e4:	ff 92       	push	r15
    16e6:	0f 93       	push	r16
    16e8:	1f 93       	push	r17
    16ea:	cf 93       	push	r28
    16ec:	df 93       	push	r29
    16ee:	8c 01       	movw	r16, r24
    16f0:	2a 01       	movw	r4, r20
    16f2:	3b 01       	movw	r6, r22
    16f4:	fc 01       	movw	r30, r24
    16f6:	c0 81       	ld	r28, Z
    16f8:	d1 81       	ldd	r29, Z+1	; 0x01
    16fa:	41 15       	cp	r20, r1
    16fc:	51 05       	cpc	r21, r1
    16fe:	61 05       	cpc	r22, r1
    1700:	71 05       	cpc	r23, r1
    1702:	99 f4       	brne	.+38     	; 0x172a <create_chain+0x5c>
    1704:	8b 84       	ldd	r8, Y+11	; 0x0b
    1706:	9c 84       	ldd	r9, Y+12	; 0x0c
    1708:	ad 84       	ldd	r10, Y+13	; 0x0d
    170a:	be 84       	ldd	r11, Y+14	; 0x0e
    170c:	81 14       	cp	r8, r1
    170e:	91 04       	cpc	r9, r1
    1710:	a1 04       	cpc	r10, r1
    1712:	b1 04       	cpc	r11, r1
    1714:	31 f1       	breq	.+76     	; 0x1762 <create_chain+0x94>
    1716:	8f 89       	ldd	r24, Y+23	; 0x17
    1718:	98 8d       	ldd	r25, Y+24	; 0x18
    171a:	a9 8d       	ldd	r26, Y+25	; 0x19
    171c:	ba 8d       	ldd	r27, Y+26	; 0x1a
    171e:	88 16       	cp	r8, r24
    1720:	99 06       	cpc	r9, r25
    1722:	aa 06       	cpc	r10, r26
    1724:	bb 06       	cpc	r11, r27
    1726:	10 f5       	brcc	.+68     	; 0x176c <create_chain+0x9e>
    1728:	25 c0       	rjmp	.+74     	; 0x1774 <create_chain+0xa6>
    172a:	0e 94 9f 09 	call	0x133e	; 0x133e <get_fat>
    172e:	62 30       	cpi	r22, 0x02	; 2
    1730:	71 05       	cpc	r23, r1
    1732:	81 05       	cpc	r24, r1
    1734:	91 05       	cpc	r25, r1
    1736:	08 f4       	brcc	.+2      	; 0x173a <create_chain+0x6c>
    1738:	f9 c0       	rjmp	.+498    	; 0x192c <create_chain+0x25e>
    173a:	6f 3f       	cpi	r22, 0xFF	; 255
    173c:	ff ef       	ldi	r31, 0xFF	; 255
    173e:	7f 07       	cpc	r23, r31
    1740:	8f 07       	cpc	r24, r31
    1742:	9f 07       	cpc	r25, r31
    1744:	09 f4       	brne	.+2      	; 0x1748 <create_chain+0x7a>
    1746:	03 c1       	rjmp	.+518    	; 0x194e <create_chain+0x280>
    1748:	cf 88       	ldd	r12, Y+23	; 0x17
    174a:	d8 8c       	ldd	r13, Y+24	; 0x18
    174c:	e9 8c       	ldd	r14, Y+25	; 0x19
    174e:	fa 8c       	ldd	r15, Y+26	; 0x1a
    1750:	6c 15       	cp	r22, r12
    1752:	7d 05       	cpc	r23, r13
    1754:	8e 05       	cpc	r24, r14
    1756:	9f 05       	cpc	r25, r15
    1758:	08 f4       	brcc	.+2      	; 0x175c <create_chain+0x8e>
    175a:	f9 c0       	rjmp	.+498    	; 0x194e <create_chain+0x280>
    175c:	53 01       	movw	r10, r6
    175e:	42 01       	movw	r8, r4
    1760:	09 c0       	rjmp	.+18     	; 0x1774 <create_chain+0xa6>
    1762:	81 2c       	mov	r8, r1
    1764:	91 2c       	mov	r9, r1
    1766:	54 01       	movw	r10, r8
    1768:	83 94       	inc	r8
    176a:	04 c0       	rjmp	.+8      	; 0x1774 <create_chain+0xa6>
    176c:	81 2c       	mov	r8, r1
    176e:	91 2c       	mov	r9, r1
    1770:	54 01       	movw	r10, r8
    1772:	83 94       	inc	r8
    1774:	6f 85       	ldd	r22, Y+15	; 0x0f
    1776:	78 89       	ldd	r23, Y+16	; 0x10
    1778:	89 89       	ldd	r24, Y+17	; 0x11
    177a:	9a 89       	ldd	r25, Y+18	; 0x12
    177c:	61 15       	cp	r22, r1
    177e:	71 05       	cpc	r23, r1
    1780:	81 05       	cpc	r24, r1
    1782:	91 05       	cpc	r25, r1
    1784:	09 f4       	brne	.+2      	; 0x1788 <create_chain+0xba>
    1786:	e3 c0       	rjmp	.+454    	; 0x194e <create_chain+0x280>
    1788:	84 14       	cp	r8, r4
    178a:	95 04       	cpc	r9, r5
    178c:	a6 04       	cpc	r10, r6
    178e:	b7 04       	cpc	r11, r7
    1790:	09 f0       	breq	.+2      	; 0x1794 <create_chain+0xc6>
    1792:	41 c0       	rjmp	.+130    	; 0x1816 <create_chain+0x148>
    1794:	75 01       	movw	r14, r10
    1796:	64 01       	movw	r12, r8
    1798:	2f ef       	ldi	r18, 0xFF	; 255
    179a:	c2 1a       	sub	r12, r18
    179c:	d2 0a       	sbc	r13, r18
    179e:	e2 0a       	sbc	r14, r18
    17a0:	f2 0a       	sbc	r15, r18
    17a2:	8f 89       	ldd	r24, Y+23	; 0x17
    17a4:	98 8d       	ldd	r25, Y+24	; 0x18
    17a6:	a9 8d       	ldd	r26, Y+25	; 0x19
    17a8:	ba 8d       	ldd	r27, Y+26	; 0x1a
    17aa:	c8 16       	cp	r12, r24
    17ac:	d9 06       	cpc	r13, r25
    17ae:	ea 06       	cpc	r14, r26
    17b0:	fb 06       	cpc	r15, r27
    17b2:	28 f0       	brcs	.+10     	; 0x17be <create_chain+0xf0>
    17b4:	c1 2c       	mov	r12, r1
    17b6:	d1 2c       	mov	r13, r1
    17b8:	76 01       	movw	r14, r12
    17ba:	68 94       	set
    17bc:	c1 f8       	bld	r12, 1
    17be:	b7 01       	movw	r22, r14
    17c0:	a6 01       	movw	r20, r12
    17c2:	c8 01       	movw	r24, r16
    17c4:	0e 94 9f 09 	call	0x133e	; 0x133e <get_fat>
    17c8:	61 30       	cpi	r22, 0x01	; 1
    17ca:	71 05       	cpc	r23, r1
    17cc:	81 05       	cpc	r24, r1
    17ce:	91 05       	cpc	r25, r1
    17d0:	09 f4       	brne	.+2      	; 0x17d4 <create_chain+0x106>
    17d2:	bd c0       	rjmp	.+378    	; 0x194e <create_chain+0x280>
    17d4:	6f 3f       	cpi	r22, 0xFF	; 255
    17d6:	ef ef       	ldi	r30, 0xFF	; 255
    17d8:	7e 07       	cpc	r23, r30
    17da:	8e 07       	cpc	r24, r30
    17dc:	9e 07       	cpc	r25, r30
    17de:	09 f4       	brne	.+2      	; 0x17e2 <create_chain+0x114>
    17e0:	b6 c0       	rjmp	.+364    	; 0x194e <create_chain+0x280>
    17e2:	67 2b       	or	r22, r23
    17e4:	68 2b       	or	r22, r24
    17e6:	69 2b       	or	r22, r25
    17e8:	19 f1       	breq	.+70     	; 0x1830 <create_chain+0x162>
    17ea:	8b 85       	ldd	r24, Y+11	; 0x0b
    17ec:	9c 85       	ldd	r25, Y+12	; 0x0c
    17ee:	ad 85       	ldd	r26, Y+13	; 0x0d
    17f0:	be 85       	ldd	r27, Y+14	; 0x0e
    17f2:	82 30       	cpi	r24, 0x02	; 2
    17f4:	91 05       	cpc	r25, r1
    17f6:	a1 05       	cpc	r26, r1
    17f8:	b1 05       	cpc	r27, r1
    17fa:	88 f0       	brcs	.+34     	; 0x181e <create_chain+0x150>
    17fc:	4f 89       	ldd	r20, Y+23	; 0x17
    17fe:	58 8d       	ldd	r21, Y+24	; 0x18
    1800:	69 8d       	ldd	r22, Y+25	; 0x19
    1802:	7a 8d       	ldd	r23, Y+26	; 0x1a
    1804:	84 17       	cp	r24, r20
    1806:	95 07       	cpc	r25, r21
    1808:	a6 07       	cpc	r26, r22
    180a:	b7 07       	cpc	r27, r23
    180c:	60 f0       	brcs	.+24     	; 0x1826 <create_chain+0x158>
    180e:	c1 2c       	mov	r12, r1
    1810:	d1 2c       	mov	r13, r1
    1812:	76 01       	movw	r14, r12
    1814:	0d c0       	rjmp	.+26     	; 0x1830 <create_chain+0x162>
    1816:	c1 2c       	mov	r12, r1
    1818:	d1 2c       	mov	r13, r1
    181a:	76 01       	movw	r14, r12
    181c:	09 c0       	rjmp	.+18     	; 0x1830 <create_chain+0x162>
    181e:	c1 2c       	mov	r12, r1
    1820:	d1 2c       	mov	r13, r1
    1822:	76 01       	movw	r14, r12
    1824:	05 c0       	rjmp	.+10     	; 0x1830 <create_chain+0x162>
    1826:	4c 01       	movw	r8, r24
    1828:	5d 01       	movw	r10, r26
    182a:	c1 2c       	mov	r12, r1
    182c:	d1 2c       	mov	r13, r1
    182e:	76 01       	movw	r14, r12
    1830:	c1 14       	cp	r12, r1
    1832:	d1 04       	cpc	r13, r1
    1834:	e1 04       	cpc	r14, r1
    1836:	f1 04       	cpc	r15, r1
    1838:	c9 f5       	brne	.+114    	; 0x18ac <create_chain+0x1de>
    183a:	75 01       	movw	r14, r10
    183c:	64 01       	movw	r12, r8
    183e:	ff ef       	ldi	r31, 0xFF	; 255
    1840:	cf 1a       	sub	r12, r31
    1842:	df 0a       	sbc	r13, r31
    1844:	ef 0a       	sbc	r14, r31
    1846:	ff 0a       	sbc	r15, r31
    1848:	8f 89       	ldd	r24, Y+23	; 0x17
    184a:	98 8d       	ldd	r25, Y+24	; 0x18
    184c:	a9 8d       	ldd	r26, Y+25	; 0x19
    184e:	ba 8d       	ldd	r27, Y+26	; 0x1a
    1850:	c8 16       	cp	r12, r24
    1852:	d9 06       	cpc	r13, r25
    1854:	ea 06       	cpc	r14, r26
    1856:	fb 06       	cpc	r15, r27
    1858:	60 f0       	brcs	.+24     	; 0x1872 <create_chain+0x1a4>
    185a:	22 e0       	ldi	r18, 0x02	; 2
    185c:	82 16       	cp	r8, r18
    185e:	91 04       	cpc	r9, r1
    1860:	a1 04       	cpc	r10, r1
    1862:	b1 04       	cpc	r11, r1
    1864:	08 f4       	brcc	.+2      	; 0x1868 <create_chain+0x19a>
    1866:	67 c0       	rjmp	.+206    	; 0x1936 <create_chain+0x268>
    1868:	c1 2c       	mov	r12, r1
    186a:	d1 2c       	mov	r13, r1
    186c:	76 01       	movw	r14, r12
    186e:	68 94       	set
    1870:	c1 f8       	bld	r12, 1
    1872:	b7 01       	movw	r22, r14
    1874:	a6 01       	movw	r20, r12
    1876:	c8 01       	movw	r24, r16
    1878:	0e 94 9f 09 	call	0x133e	; 0x133e <get_fat>
    187c:	61 15       	cp	r22, r1
    187e:	71 05       	cpc	r23, r1
    1880:	81 05       	cpc	r24, r1
    1882:	91 05       	cpc	r25, r1
    1884:	99 f0       	breq	.+38     	; 0x18ac <create_chain+0x1de>
    1886:	61 30       	cpi	r22, 0x01	; 1
    1888:	71 05       	cpc	r23, r1
    188a:	81 05       	cpc	r24, r1
    188c:	91 05       	cpc	r25, r1
    188e:	09 f4       	brne	.+2      	; 0x1892 <create_chain+0x1c4>
    1890:	5e c0       	rjmp	.+188    	; 0x194e <create_chain+0x280>
    1892:	6f 3f       	cpi	r22, 0xFF	; 255
    1894:	ef ef       	ldi	r30, 0xFF	; 255
    1896:	7e 07       	cpc	r23, r30
    1898:	8e 07       	cpc	r24, r30
    189a:	9e 07       	cpc	r25, r30
    189c:	09 f4       	brne	.+2      	; 0x18a0 <create_chain+0x1d2>
    189e:	57 c0       	rjmp	.+174    	; 0x194e <create_chain+0x280>
    18a0:	c8 14       	cp	r12, r8
    18a2:	d9 04       	cpc	r13, r9
    18a4:	ea 04       	cpc	r14, r10
    18a6:	fb 04       	cpc	r15, r11
    18a8:	51 f6       	brne	.-108    	; 0x183e <create_chain+0x170>
    18aa:	49 c0       	rjmp	.+146    	; 0x193e <create_chain+0x270>
    18ac:	0f ef       	ldi	r16, 0xFF	; 255
    18ae:	1f ef       	ldi	r17, 0xFF	; 255
    18b0:	98 01       	movw	r18, r16
    18b2:	b7 01       	movw	r22, r14
    18b4:	a6 01       	movw	r20, r12
    18b6:	ce 01       	movw	r24, r28
    18b8:	0e 94 76 08 	call	0x10ec	; 0x10ec <put_fat>
    18bc:	81 11       	cpse	r24, r1
    18be:	0c c0       	rjmp	.+24     	; 0x18d8 <create_chain+0x20a>
    18c0:	41 14       	cp	r4, r1
    18c2:	51 04       	cpc	r5, r1
    18c4:	61 04       	cpc	r6, r1
    18c6:	71 04       	cpc	r7, r1
    18c8:	39 f0       	breq	.+14     	; 0x18d8 <create_chain+0x20a>
    18ca:	97 01       	movw	r18, r14
    18cc:	86 01       	movw	r16, r12
    18ce:	b3 01       	movw	r22, r6
    18d0:	a2 01       	movw	r20, r4
    18d2:	ce 01       	movw	r24, r28
    18d4:	0e 94 76 08 	call	0x10ec	; 0x10ec <put_fat>
    18d8:	81 11       	cpse	r24, r1
    18da:	22 c0       	rjmp	.+68     	; 0x1920 <create_chain+0x252>
    18dc:	cb 86       	std	Y+11, r12	; 0x0b
    18de:	dc 86       	std	Y+12, r13	; 0x0c
    18e0:	ed 86       	std	Y+13, r14	; 0x0d
    18e2:	fe 86       	std	Y+14, r15	; 0x0e
    18e4:	4f 85       	ldd	r20, Y+15	; 0x0f
    18e6:	58 89       	ldd	r21, Y+16	; 0x10
    18e8:	69 89       	ldd	r22, Y+17	; 0x11
    18ea:	7a 89       	ldd	r23, Y+18	; 0x12
    18ec:	8f 89       	ldd	r24, Y+23	; 0x17
    18ee:	98 8d       	ldd	r25, Y+24	; 0x18
    18f0:	a9 8d       	ldd	r26, Y+25	; 0x19
    18f2:	ba 8d       	ldd	r27, Y+26	; 0x1a
    18f4:	02 97       	sbiw	r24, 0x02	; 2
    18f6:	a1 09       	sbc	r26, r1
    18f8:	b1 09       	sbc	r27, r1
    18fa:	84 17       	cp	r24, r20
    18fc:	95 07       	cpc	r25, r21
    18fe:	a6 07       	cpc	r26, r22
    1900:	b7 07       	cpc	r27, r23
    1902:	40 f0       	brcs	.+16     	; 0x1914 <create_chain+0x246>
    1904:	41 50       	subi	r20, 0x01	; 1
    1906:	51 09       	sbc	r21, r1
    1908:	61 09       	sbc	r22, r1
    190a:	71 09       	sbc	r23, r1
    190c:	4f 87       	std	Y+15, r20	; 0x0f
    190e:	58 8b       	std	Y+16, r21	; 0x10
    1910:	69 8b       	std	Y+17, r22	; 0x11
    1912:	7a 8b       	std	Y+18, r23	; 0x12
    1914:	8c 81       	ldd	r24, Y+4	; 0x04
    1916:	81 60       	ori	r24, 0x01	; 1
    1918:	8c 83       	std	Y+4, r24	; 0x04
    191a:	c7 01       	movw	r24, r14
    191c:	b6 01       	movw	r22, r12
    191e:	17 c0       	rjmp	.+46     	; 0x194e <create_chain+0x280>
    1920:	81 30       	cpi	r24, 0x01	; 1
    1922:	89 f4       	brne	.+34     	; 0x1946 <create_chain+0x278>
    1924:	6f ef       	ldi	r22, 0xFF	; 255
    1926:	7f ef       	ldi	r23, 0xFF	; 255
    1928:	cb 01       	movw	r24, r22
    192a:	11 c0       	rjmp	.+34     	; 0x194e <create_chain+0x280>
    192c:	61 e0       	ldi	r22, 0x01	; 1
    192e:	70 e0       	ldi	r23, 0x00	; 0
    1930:	80 e0       	ldi	r24, 0x00	; 0
    1932:	90 e0       	ldi	r25, 0x00	; 0
    1934:	0c c0       	rjmp	.+24     	; 0x194e <create_chain+0x280>
    1936:	60 e0       	ldi	r22, 0x00	; 0
    1938:	70 e0       	ldi	r23, 0x00	; 0
    193a:	cb 01       	movw	r24, r22
    193c:	08 c0       	rjmp	.+16     	; 0x194e <create_chain+0x280>
    193e:	60 e0       	ldi	r22, 0x00	; 0
    1940:	70 e0       	ldi	r23, 0x00	; 0
    1942:	cb 01       	movw	r24, r22
    1944:	04 c0       	rjmp	.+8      	; 0x194e <create_chain+0x280>
    1946:	61 e0       	ldi	r22, 0x01	; 1
    1948:	70 e0       	ldi	r23, 0x00	; 0
    194a:	80 e0       	ldi	r24, 0x00	; 0
    194c:	90 e0       	ldi	r25, 0x00	; 0
    194e:	df 91       	pop	r29
    1950:	cf 91       	pop	r28
    1952:	1f 91       	pop	r17
    1954:	0f 91       	pop	r16
    1956:	ff 90       	pop	r15
    1958:	ef 90       	pop	r14
    195a:	df 90       	pop	r13
    195c:	cf 90       	pop	r12
    195e:	bf 90       	pop	r11
    1960:	af 90       	pop	r10
    1962:	9f 90       	pop	r9
    1964:	8f 90       	pop	r8
    1966:	7f 90       	pop	r7
    1968:	6f 90       	pop	r6
    196a:	5f 90       	pop	r5
    196c:	4f 90       	pop	r4
    196e:	08 95       	ret

00001970 <remove_chain>:
    1970:	4f 92       	push	r4
    1972:	5f 92       	push	r5
    1974:	6f 92       	push	r6
    1976:	7f 92       	push	r7
    1978:	af 92       	push	r10
    197a:	bf 92       	push	r11
    197c:	cf 92       	push	r12
    197e:	df 92       	push	r13
    1980:	ef 92       	push	r14
    1982:	ff 92       	push	r15
    1984:	0f 93       	push	r16
    1986:	1f 93       	push	r17
    1988:	cf 93       	push	r28
    198a:	df 93       	push	r29
    198c:	5c 01       	movw	r10, r24
    198e:	6a 01       	movw	r12, r20
    1990:	7b 01       	movw	r14, r22
    1992:	b9 01       	movw	r22, r18
    1994:	a8 01       	movw	r20, r16
    1996:	fc 01       	movw	r30, r24
    1998:	c0 81       	ld	r28, Z
    199a:	d1 81       	ldd	r29, Z+1	; 0x01
    199c:	f2 e0       	ldi	r31, 0x02	; 2
    199e:	cf 16       	cp	r12, r31
    19a0:	d1 04       	cpc	r13, r1
    19a2:	e1 04       	cpc	r14, r1
    19a4:	f1 04       	cpc	r15, r1
    19a6:	08 f4       	brcc	.+2      	; 0x19aa <remove_chain+0x3a>
    19a8:	60 c0       	rjmp	.+192    	; 0x1a6a <remove_chain+0xfa>
    19aa:	8f 89       	ldd	r24, Y+23	; 0x17
    19ac:	98 8d       	ldd	r25, Y+24	; 0x18
    19ae:	a9 8d       	ldd	r26, Y+25	; 0x19
    19b0:	ba 8d       	ldd	r27, Y+26	; 0x1a
    19b2:	c8 16       	cp	r12, r24
    19b4:	d9 06       	cpc	r13, r25
    19b6:	ea 06       	cpc	r14, r26
    19b8:	fb 06       	cpc	r15, r27
    19ba:	08 f0       	brcs	.+2      	; 0x19be <remove_chain+0x4e>
    19bc:	58 c0       	rjmp	.+176    	; 0x1a6e <remove_chain+0xfe>
    19be:	01 2b       	or	r16, r17
    19c0:	02 2b       	or	r16, r18
    19c2:	03 2b       	or	r16, r19
    19c4:	41 f0       	breq	.+16     	; 0x19d6 <remove_chain+0x66>
    19c6:	0f ef       	ldi	r16, 0xFF	; 255
    19c8:	1f ef       	ldi	r17, 0xFF	; 255
    19ca:	98 01       	movw	r18, r16
    19cc:	ce 01       	movw	r24, r28
    19ce:	0e 94 76 08 	call	0x10ec	; 0x10ec <put_fat>
    19d2:	81 11       	cpse	r24, r1
    19d4:	53 c0       	rjmp	.+166    	; 0x1a7c <remove_chain+0x10c>
    19d6:	b7 01       	movw	r22, r14
    19d8:	a6 01       	movw	r20, r12
    19da:	c5 01       	movw	r24, r10
    19dc:	0e 94 9f 09 	call	0x133e	; 0x133e <get_fat>
    19e0:	2b 01       	movw	r4, r22
    19e2:	3c 01       	movw	r6, r24
    19e4:	61 15       	cp	r22, r1
    19e6:	71 05       	cpc	r23, r1
    19e8:	81 05       	cpc	r24, r1
    19ea:	91 05       	cpc	r25, r1
    19ec:	09 f4       	brne	.+2      	; 0x19f0 <remove_chain+0x80>
    19ee:	41 c0       	rjmp	.+130    	; 0x1a72 <remove_chain+0x102>
    19f0:	61 30       	cpi	r22, 0x01	; 1
    19f2:	71 05       	cpc	r23, r1
    19f4:	81 05       	cpc	r24, r1
    19f6:	91 05       	cpc	r25, r1
    19f8:	f1 f1       	breq	.+124    	; 0x1a76 <remove_chain+0x106>
    19fa:	8f ef       	ldi	r24, 0xFF	; 255
    19fc:	48 16       	cp	r4, r24
    19fe:	58 06       	cpc	r5, r24
    1a00:	68 06       	cpc	r6, r24
    1a02:	78 06       	cpc	r7, r24
    1a04:	d1 f1       	breq	.+116    	; 0x1a7a <remove_chain+0x10a>
    1a06:	00 e0       	ldi	r16, 0x00	; 0
    1a08:	10 e0       	ldi	r17, 0x00	; 0
    1a0a:	98 01       	movw	r18, r16
    1a0c:	b7 01       	movw	r22, r14
    1a0e:	a6 01       	movw	r20, r12
    1a10:	ce 01       	movw	r24, r28
    1a12:	0e 94 76 08 	call	0x10ec	; 0x10ec <put_fat>
    1a16:	81 11       	cpse	r24, r1
    1a18:	31 c0       	rjmp	.+98     	; 0x1a7c <remove_chain+0x10c>
    1a1a:	8f 85       	ldd	r24, Y+15	; 0x0f
    1a1c:	98 89       	ldd	r25, Y+16	; 0x10
    1a1e:	a9 89       	ldd	r26, Y+17	; 0x11
    1a20:	ba 89       	ldd	r27, Y+18	; 0x12
    1a22:	4f 89       	ldd	r20, Y+23	; 0x17
    1a24:	58 8d       	ldd	r21, Y+24	; 0x18
    1a26:	69 8d       	ldd	r22, Y+25	; 0x19
    1a28:	7a 8d       	ldd	r23, Y+26	; 0x1a
    1a2a:	6a 01       	movw	r12, r20
    1a2c:	7b 01       	movw	r14, r22
    1a2e:	e2 e0       	ldi	r30, 0x02	; 2
    1a30:	ce 1a       	sub	r12, r30
    1a32:	d1 08       	sbc	r13, r1
    1a34:	e1 08       	sbc	r14, r1
    1a36:	f1 08       	sbc	r15, r1
    1a38:	8c 15       	cp	r24, r12
    1a3a:	9d 05       	cpc	r25, r13
    1a3c:	ae 05       	cpc	r26, r14
    1a3e:	bf 05       	cpc	r27, r15
    1a40:	50 f4       	brcc	.+20     	; 0x1a56 <remove_chain+0xe6>
    1a42:	01 96       	adiw	r24, 0x01	; 1
    1a44:	a1 1d       	adc	r26, r1
    1a46:	b1 1d       	adc	r27, r1
    1a48:	8f 87       	std	Y+15, r24	; 0x0f
    1a4a:	98 8b       	std	Y+16, r25	; 0x10
    1a4c:	a9 8b       	std	Y+17, r26	; 0x11
    1a4e:	ba 8b       	std	Y+18, r27	; 0x12
    1a50:	8c 81       	ldd	r24, Y+4	; 0x04
    1a52:	81 60       	ori	r24, 0x01	; 1
    1a54:	8c 83       	std	Y+4, r24	; 0x04
    1a56:	73 01       	movw	r14, r6
    1a58:	62 01       	movw	r12, r4
    1a5a:	44 16       	cp	r4, r20
    1a5c:	55 06       	cpc	r5, r21
    1a5e:	66 06       	cpc	r6, r22
    1a60:	77 06       	cpc	r7, r23
    1a62:	08 f4       	brcc	.+2      	; 0x1a66 <remove_chain+0xf6>
    1a64:	b8 cf       	rjmp	.-144    	; 0x19d6 <remove_chain+0x66>
    1a66:	80 e0       	ldi	r24, 0x00	; 0
    1a68:	09 c0       	rjmp	.+18     	; 0x1a7c <remove_chain+0x10c>
    1a6a:	82 e0       	ldi	r24, 0x02	; 2
    1a6c:	07 c0       	rjmp	.+14     	; 0x1a7c <remove_chain+0x10c>
    1a6e:	82 e0       	ldi	r24, 0x02	; 2
    1a70:	05 c0       	rjmp	.+10     	; 0x1a7c <remove_chain+0x10c>
    1a72:	80 e0       	ldi	r24, 0x00	; 0
    1a74:	03 c0       	rjmp	.+6      	; 0x1a7c <remove_chain+0x10c>
    1a76:	82 e0       	ldi	r24, 0x02	; 2
    1a78:	01 c0       	rjmp	.+2      	; 0x1a7c <remove_chain+0x10c>
    1a7a:	81 e0       	ldi	r24, 0x01	; 1
    1a7c:	df 91       	pop	r29
    1a7e:	cf 91       	pop	r28
    1a80:	1f 91       	pop	r17
    1a82:	0f 91       	pop	r16
    1a84:	ff 90       	pop	r15
    1a86:	ef 90       	pop	r14
    1a88:	df 90       	pop	r13
    1a8a:	cf 90       	pop	r12
    1a8c:	bf 90       	pop	r11
    1a8e:	af 90       	pop	r10
    1a90:	7f 90       	pop	r7
    1a92:	6f 90       	pop	r6
    1a94:	5f 90       	pop	r5
    1a96:	4f 90       	pop	r4
    1a98:	08 95       	ret

00001a9a <dir_clear>:
    1a9a:	8f 92       	push	r8
    1a9c:	9f 92       	push	r9
    1a9e:	af 92       	push	r10
    1aa0:	bf 92       	push	r11
    1aa2:	cf 92       	push	r12
    1aa4:	df 92       	push	r13
    1aa6:	ef 92       	push	r14
    1aa8:	ff 92       	push	r15
    1aaa:	0f 93       	push	r16
    1aac:	1f 93       	push	r17
    1aae:	cf 93       	push	r28
    1ab0:	df 93       	push	r29
    1ab2:	ec 01       	movw	r28, r24
    1ab4:	6a 01       	movw	r12, r20
    1ab6:	7b 01       	movw	r14, r22
    1ab8:	0e 94 c7 04 	call	0x98e	; 0x98e <sync_window>
    1abc:	81 11       	cpse	r24, r1
    1abe:	37 c0       	rjmp	.+110    	; 0x1b2e <dir_clear+0x94>
    1ac0:	b7 01       	movw	r22, r14
    1ac2:	a6 01       	movw	r20, r12
    1ac4:	ce 01       	movw	r24, r28
    1ac6:	0e 94 d2 02 	call	0x5a4	; 0x5a4 <clst2sect>
    1aca:	4b 01       	movw	r8, r22
    1acc:	5c 01       	movw	r10, r24
    1ace:	6f a7       	std	Y+47, r22	; 0x2f
    1ad0:	78 ab       	std	Y+48, r23	; 0x30
    1ad2:	89 ab       	std	Y+49, r24	; 0x31
    1ad4:	9a ab       	std	Y+50, r25	; 0x32
    1ad6:	6e 01       	movw	r12, r28
    1ad8:	83 e3       	ldi	r24, 0x33	; 51
    1ada:	c8 0e       	add	r12, r24
    1adc:	d1 1c       	adc	r13, r1
    1ade:	40 e0       	ldi	r20, 0x00	; 0
    1ae0:	52 e0       	ldi	r21, 0x02	; 2
    1ae2:	60 e0       	ldi	r22, 0x00	; 0
    1ae4:	70 e0       	ldi	r23, 0x00	; 0
    1ae6:	c6 01       	movw	r24, r12
    1ae8:	0e 94 74 02 	call	0x4e8	; 0x4e8 <mem_set>
    1aec:	e1 2c       	mov	r14, r1
    1aee:	f1 2c       	mov	r15, r1
    1af0:	03 c0       	rjmp	.+6      	; 0x1af8 <dir_clear+0x5e>
    1af2:	8f ef       	ldi	r24, 0xFF	; 255
    1af4:	e8 1a       	sub	r14, r24
    1af6:	f8 0a       	sbc	r15, r24
    1af8:	89 85       	ldd	r24, Y+9	; 0x09
    1afa:	9a 85       	ldd	r25, Y+10	; 0x0a
    1afc:	e8 16       	cp	r14, r24
    1afe:	f9 06       	cpc	r15, r25
    1b00:	70 f4       	brcc	.+28     	; 0x1b1e <dir_clear+0x84>
    1b02:	01 e0       	ldi	r16, 0x01	; 1
    1b04:	10 e0       	ldi	r17, 0x00	; 0
    1b06:	a5 01       	movw	r20, r10
    1b08:	94 01       	movw	r18, r8
    1b0a:	2e 0d       	add	r18, r14
    1b0c:	3f 1d       	adc	r19, r15
    1b0e:	41 1d       	adc	r20, r1
    1b10:	51 1d       	adc	r21, r1
    1b12:	b6 01       	movw	r22, r12
    1b14:	89 81       	ldd	r24, Y+1	; 0x01
    1b16:	0e 94 df 1b 	call	0x37be	; 0x37be <disk_write>
    1b1a:	88 23       	and	r24, r24
    1b1c:	51 f3       	breq	.-44     	; 0x1af2 <dir_clear+0x58>
    1b1e:	29 85       	ldd	r18, Y+9	; 0x09
    1b20:	3a 85       	ldd	r19, Y+10	; 0x0a
    1b22:	81 e0       	ldi	r24, 0x01	; 1
    1b24:	e2 16       	cp	r14, r18
    1b26:	f3 06       	cpc	r15, r19
    1b28:	19 f4       	brne	.+6      	; 0x1b30 <dir_clear+0x96>
    1b2a:	80 e0       	ldi	r24, 0x00	; 0
    1b2c:	01 c0       	rjmp	.+2      	; 0x1b30 <dir_clear+0x96>
    1b2e:	81 e0       	ldi	r24, 0x01	; 1
    1b30:	df 91       	pop	r29
    1b32:	cf 91       	pop	r28
    1b34:	1f 91       	pop	r17
    1b36:	0f 91       	pop	r16
    1b38:	ff 90       	pop	r15
    1b3a:	ef 90       	pop	r14
    1b3c:	df 90       	pop	r13
    1b3e:	cf 90       	pop	r12
    1b40:	bf 90       	pop	r11
    1b42:	af 90       	pop	r10
    1b44:	9f 90       	pop	r9
    1b46:	8f 90       	pop	r8
    1b48:	08 95       	ret

00001b4a <dir_next>:
    1b4a:	4f 92       	push	r4
    1b4c:	5f 92       	push	r5
    1b4e:	6f 92       	push	r6
    1b50:	7f 92       	push	r7
    1b52:	8f 92       	push	r8
    1b54:	9f 92       	push	r9
    1b56:	af 92       	push	r10
    1b58:	bf 92       	push	r11
    1b5a:	ef 92       	push	r14
    1b5c:	ff 92       	push	r15
    1b5e:	0f 93       	push	r16
    1b60:	1f 93       	push	r17
    1b62:	cf 93       	push	r28
    1b64:	df 93       	push	r29
    1b66:	fc 01       	movw	r30, r24
    1b68:	00 81       	ld	r16, Z
    1b6a:	11 81       	ldd	r17, Z+1	; 0x01
    1b6c:	86 84       	ldd	r8, Z+14	; 0x0e
    1b6e:	97 84       	ldd	r9, Z+15	; 0x0f
    1b70:	a0 88       	ldd	r10, Z+16	; 0x10
    1b72:	b1 88       	ldd	r11, Z+17	; 0x11
    1b74:	20 e2       	ldi	r18, 0x20	; 32
    1b76:	82 0e       	add	r8, r18
    1b78:	91 1c       	adc	r9, r1
    1b7a:	a1 1c       	adc	r10, r1
    1b7c:	b1 1c       	adc	r11, r1
    1b7e:	86 89       	ldd	r24, Z+22	; 0x16
    1b80:	97 89       	ldd	r25, Z+23	; 0x17
    1b82:	a0 8d       	ldd	r26, Z+24	; 0x18
    1b84:	b1 8d       	ldd	r27, Z+25	; 0x19
    1b86:	00 97       	sbiw	r24, 0x00	; 0
    1b88:	a1 05       	cpc	r26, r1
    1b8a:	b1 05       	cpc	r27, r1
    1b8c:	09 f4       	brne	.+2      	; 0x1b90 <dir_next+0x46>
    1b8e:	b7 c0       	rjmp	.+366    	; 0x1cfe <dir_next+0x1b4>
    1b90:	81 14       	cp	r8, r1
    1b92:	91 04       	cpc	r9, r1
    1b94:	20 e2       	ldi	r18, 0x20	; 32
    1b96:	a2 06       	cpc	r10, r18
    1b98:	b1 04       	cpc	r11, r1
    1b9a:	08 f0       	brcs	.+2      	; 0x1b9e <dir_next+0x54>
    1b9c:	b2 c0       	rjmp	.+356    	; 0x1d02 <dir_next+0x1b8>
    1b9e:	7b 01       	movw	r14, r22
    1ba0:	ef 01       	movw	r28, r30
    1ba2:	b5 01       	movw	r22, r10
    1ba4:	a4 01       	movw	r20, r8
    1ba6:	51 70       	andi	r21, 0x01	; 1
    1ba8:	66 27       	eor	r22, r22
    1baa:	77 27       	eor	r23, r23
    1bac:	45 2b       	or	r20, r21
    1bae:	46 2b       	or	r20, r22
    1bb0:	47 2b       	or	r20, r23
    1bb2:	09 f0       	breq	.+2      	; 0x1bb6 <dir_next+0x6c>
    1bb4:	96 c0       	rjmp	.+300    	; 0x1ce2 <dir_next+0x198>
    1bb6:	01 96       	adiw	r24, 0x01	; 1
    1bb8:	a1 1d       	adc	r26, r1
    1bba:	b1 1d       	adc	r27, r1
    1bbc:	86 8b       	std	Z+22, r24	; 0x16
    1bbe:	97 8b       	std	Z+23, r25	; 0x17
    1bc0:	a0 8f       	std	Z+24, r26	; 0x18
    1bc2:	b1 8f       	std	Z+25, r27	; 0x19
    1bc4:	42 89       	ldd	r20, Z+18	; 0x12
    1bc6:	53 89       	ldd	r21, Z+19	; 0x13
    1bc8:	64 89       	ldd	r22, Z+20	; 0x14
    1bca:	75 89       	ldd	r23, Z+21	; 0x15
    1bcc:	41 15       	cp	r20, r1
    1bce:	51 05       	cpc	r21, r1
    1bd0:	61 05       	cpc	r22, r1
    1bd2:	71 05       	cpc	r23, r1
    1bd4:	d9 f4       	brne	.+54     	; 0x1c0c <dir_next+0xc2>
    1bd6:	f8 01       	movw	r30, r16
    1bd8:	87 81       	ldd	r24, Z+7	; 0x07
    1bda:	90 85       	ldd	r25, Z+8	; 0x08
    1bdc:	a0 e0       	ldi	r26, 0x00	; 0
    1bde:	b0 e0       	ldi	r27, 0x00	; 0
    1be0:	b5 01       	movw	r22, r10
    1be2:	a4 01       	movw	r20, r8
    1be4:	68 94       	set
    1be6:	14 f8       	bld	r1, 4
    1be8:	76 95       	lsr	r23
    1bea:	67 95       	ror	r22
    1bec:	57 95       	ror	r21
    1bee:	47 95       	ror	r20
    1bf0:	16 94       	lsr	r1
    1bf2:	d1 f7       	brne	.-12     	; 0x1be8 <dir_next+0x9e>
    1bf4:	48 17       	cp	r20, r24
    1bf6:	59 07       	cpc	r21, r25
    1bf8:	6a 07       	cpc	r22, r26
    1bfa:	7b 07       	cpc	r23, r27
    1bfc:	08 f4       	brcc	.+2      	; 0x1c00 <dir_next+0xb6>
    1bfe:	71 c0       	rjmp	.+226    	; 0x1ce2 <dir_next+0x198>
    1c00:	1e 8a       	std	Y+22, r1	; 0x16
    1c02:	1f 8a       	std	Y+23, r1	; 0x17
    1c04:	18 8e       	std	Y+24, r1	; 0x18
    1c06:	19 8e       	std	Y+25, r1	; 0x19
    1c08:	84 e0       	ldi	r24, 0x04	; 4
    1c0a:	88 c0       	rjmp	.+272    	; 0x1d1c <dir_next+0x1d2>
    1c0c:	f8 01       	movw	r30, r16
    1c0e:	81 85       	ldd	r24, Z+9	; 0x09
    1c10:	92 85       	ldd	r25, Z+10	; 0x0a
    1c12:	01 97       	sbiw	r24, 0x01	; 1
    1c14:	2c 01       	movw	r4, r24
    1c16:	61 2c       	mov	r6, r1
    1c18:	71 2c       	mov	r7, r1
    1c1a:	d5 01       	movw	r26, r10
    1c1c:	c4 01       	movw	r24, r8
    1c1e:	07 2e       	mov	r0, r23
    1c20:	79 e0       	ldi	r23, 0x09	; 9
    1c22:	b6 95       	lsr	r27
    1c24:	a7 95       	ror	r26
    1c26:	97 95       	ror	r25
    1c28:	87 95       	ror	r24
    1c2a:	7a 95       	dec	r23
    1c2c:	d1 f7       	brne	.-12     	; 0x1c22 <dir_next+0xd8>
    1c2e:	70 2d       	mov	r23, r0
    1c30:	84 21       	and	r24, r4
    1c32:	95 21       	and	r25, r5
    1c34:	a6 21       	and	r26, r6
    1c36:	b7 21       	and	r27, r7
    1c38:	89 2b       	or	r24, r25
    1c3a:	8a 2b       	or	r24, r26
    1c3c:	8b 2b       	or	r24, r27
    1c3e:	09 f0       	breq	.+2      	; 0x1c42 <dir_next+0xf8>
    1c40:	50 c0       	rjmp	.+160    	; 0x1ce2 <dir_next+0x198>
    1c42:	ce 01       	movw	r24, r28
    1c44:	0e 94 9f 09 	call	0x133e	; 0x133e <get_fat>
    1c48:	2b 01       	movw	r4, r22
    1c4a:	3c 01       	movw	r6, r24
    1c4c:	62 30       	cpi	r22, 0x02	; 2
    1c4e:	71 05       	cpc	r23, r1
    1c50:	81 05       	cpc	r24, r1
    1c52:	91 05       	cpc	r25, r1
    1c54:	08 f4       	brcc	.+2      	; 0x1c58 <dir_next+0x10e>
    1c56:	57 c0       	rjmp	.+174    	; 0x1d06 <dir_next+0x1bc>
    1c58:	6f 3f       	cpi	r22, 0xFF	; 255
    1c5a:	7f 4f       	sbci	r23, 0xFF	; 255
    1c5c:	8f 4f       	sbci	r24, 0xFF	; 255
    1c5e:	9f 4f       	sbci	r25, 0xFF	; 255
    1c60:	09 f4       	brne	.+2      	; 0x1c64 <dir_next+0x11a>
    1c62:	53 c0       	rjmp	.+166    	; 0x1d0a <dir_next+0x1c0>
    1c64:	f8 01       	movw	r30, r16
    1c66:	87 89       	ldd	r24, Z+23	; 0x17
    1c68:	90 8d       	ldd	r25, Z+24	; 0x18
    1c6a:	a1 8d       	ldd	r26, Z+25	; 0x19
    1c6c:	b2 8d       	ldd	r27, Z+26	; 0x1a
    1c6e:	48 16       	cp	r4, r24
    1c70:	59 06       	cpc	r5, r25
    1c72:	6a 06       	cpc	r6, r26
    1c74:	7b 06       	cpc	r7, r27
    1c76:	40 f1       	brcs	.+80     	; 0x1cc8 <dir_next+0x17e>
    1c78:	ef 28       	or	r14, r15
    1c7a:	31 f4       	brne	.+12     	; 0x1c88 <dir_next+0x13e>
    1c7c:	1e 8a       	std	Y+22, r1	; 0x16
    1c7e:	1f 8a       	std	Y+23, r1	; 0x17
    1c80:	18 8e       	std	Y+24, r1	; 0x18
    1c82:	19 8e       	std	Y+25, r1	; 0x19
    1c84:	84 e0       	ldi	r24, 0x04	; 4
    1c86:	4a c0       	rjmp	.+148    	; 0x1d1c <dir_next+0x1d2>
    1c88:	4a 89       	ldd	r20, Y+18	; 0x12
    1c8a:	5b 89       	ldd	r21, Y+19	; 0x13
    1c8c:	6c 89       	ldd	r22, Y+20	; 0x14
    1c8e:	7d 89       	ldd	r23, Y+21	; 0x15
    1c90:	ce 01       	movw	r24, r28
    1c92:	0e 94 67 0b 	call	0x16ce	; 0x16ce <create_chain>
    1c96:	2b 01       	movw	r4, r22
    1c98:	3c 01       	movw	r6, r24
    1c9a:	61 15       	cp	r22, r1
    1c9c:	71 05       	cpc	r23, r1
    1c9e:	81 05       	cpc	r24, r1
    1ca0:	91 05       	cpc	r25, r1
    1ca2:	a9 f1       	breq	.+106    	; 0x1d0e <dir_next+0x1c4>
    1ca4:	61 30       	cpi	r22, 0x01	; 1
    1ca6:	71 05       	cpc	r23, r1
    1ca8:	81 05       	cpc	r24, r1
    1caa:	91 05       	cpc	r25, r1
    1cac:	91 f1       	breq	.+100    	; 0x1d12 <dir_next+0x1c8>
    1cae:	6f 3f       	cpi	r22, 0xFF	; 255
    1cb0:	2f ef       	ldi	r18, 0xFF	; 255
    1cb2:	72 07       	cpc	r23, r18
    1cb4:	82 07       	cpc	r24, r18
    1cb6:	92 07       	cpc	r25, r18
    1cb8:	71 f1       	breq	.+92     	; 0x1d16 <dir_next+0x1cc>
    1cba:	ab 01       	movw	r20, r22
    1cbc:	bc 01       	movw	r22, r24
    1cbe:	c8 01       	movw	r24, r16
    1cc0:	0e 94 4d 0d 	call	0x1a9a	; 0x1a9a <dir_clear>
    1cc4:	81 11       	cpse	r24, r1
    1cc6:	29 c0       	rjmp	.+82     	; 0x1d1a <dir_next+0x1d0>
    1cc8:	4a 8a       	std	Y+18, r4	; 0x12
    1cca:	5b 8a       	std	Y+19, r5	; 0x13
    1ccc:	6c 8a       	std	Y+20, r6	; 0x14
    1cce:	7d 8a       	std	Y+21, r7	; 0x15
    1cd0:	b3 01       	movw	r22, r6
    1cd2:	a2 01       	movw	r20, r4
    1cd4:	c8 01       	movw	r24, r16
    1cd6:	0e 94 d2 02 	call	0x5a4	; 0x5a4 <clst2sect>
    1cda:	6e 8b       	std	Y+22, r22	; 0x16
    1cdc:	7f 8b       	std	Y+23, r23	; 0x17
    1cde:	88 8f       	std	Y+24, r24	; 0x18
    1ce0:	99 8f       	std	Y+25, r25	; 0x19
    1ce2:	8e 86       	std	Y+14, r8	; 0x0e
    1ce4:	9f 86       	std	Y+15, r9	; 0x0f
    1ce6:	a8 8a       	std	Y+16, r10	; 0x10
    1ce8:	b9 8a       	std	Y+17, r11	; 0x11
    1cea:	0d 5c       	subi	r16, 0xCD	; 205
    1cec:	1f 4f       	sbci	r17, 0xFF	; 255
    1cee:	81 e0       	ldi	r24, 0x01	; 1
    1cf0:	98 22       	and	r9, r24
    1cf2:	80 0e       	add	r8, r16
    1cf4:	91 1e       	adc	r9, r17
    1cf6:	8a 8e       	std	Y+26, r8	; 0x1a
    1cf8:	9b 8e       	std	Y+27, r9	; 0x1b
    1cfa:	80 e0       	ldi	r24, 0x00	; 0
    1cfc:	0f c0       	rjmp	.+30     	; 0x1d1c <dir_next+0x1d2>
    1cfe:	84 e0       	ldi	r24, 0x04	; 4
    1d00:	0d c0       	rjmp	.+26     	; 0x1d1c <dir_next+0x1d2>
    1d02:	84 e0       	ldi	r24, 0x04	; 4
    1d04:	0b c0       	rjmp	.+22     	; 0x1d1c <dir_next+0x1d2>
    1d06:	82 e0       	ldi	r24, 0x02	; 2
    1d08:	09 c0       	rjmp	.+18     	; 0x1d1c <dir_next+0x1d2>
    1d0a:	81 e0       	ldi	r24, 0x01	; 1
    1d0c:	07 c0       	rjmp	.+14     	; 0x1d1c <dir_next+0x1d2>
    1d0e:	87 e0       	ldi	r24, 0x07	; 7
    1d10:	05 c0       	rjmp	.+10     	; 0x1d1c <dir_next+0x1d2>
    1d12:	82 e0       	ldi	r24, 0x02	; 2
    1d14:	03 c0       	rjmp	.+6      	; 0x1d1c <dir_next+0x1d2>
    1d16:	81 e0       	ldi	r24, 0x01	; 1
    1d18:	01 c0       	rjmp	.+2      	; 0x1d1c <dir_next+0x1d2>
    1d1a:	81 e0       	ldi	r24, 0x01	; 1
    1d1c:	df 91       	pop	r29
    1d1e:	cf 91       	pop	r28
    1d20:	1f 91       	pop	r17
    1d22:	0f 91       	pop	r16
    1d24:	ff 90       	pop	r15
    1d26:	ef 90       	pop	r14
    1d28:	bf 90       	pop	r11
    1d2a:	af 90       	pop	r10
    1d2c:	9f 90       	pop	r9
    1d2e:	8f 90       	pop	r8
    1d30:	7f 90       	pop	r7
    1d32:	6f 90       	pop	r6
    1d34:	5f 90       	pop	r5
    1d36:	4f 90       	pop	r4
    1d38:	08 95       	ret

00001d3a <dir_find>:
    1d3a:	ef 92       	push	r14
    1d3c:	ff 92       	push	r15
    1d3e:	1f 93       	push	r17
    1d40:	cf 93       	push	r28
    1d42:	df 93       	push	r29
    1d44:	ec 01       	movw	r28, r24
    1d46:	e8 80       	ld	r14, Y
    1d48:	f9 80       	ldd	r15, Y+1	; 0x01
    1d4a:	40 e0       	ldi	r20, 0x00	; 0
    1d4c:	50 e0       	ldi	r21, 0x00	; 0
    1d4e:	ba 01       	movw	r22, r20
    1d50:	0e 94 81 0a 	call	0x1502	; 0x1502 <dir_sdi>
    1d54:	81 11       	cpse	r24, r1
    1d56:	2b c0       	rjmp	.+86     	; 0x1dae <dir_find+0x74>
    1d58:	4e 89       	ldd	r20, Y+22	; 0x16
    1d5a:	5f 89       	ldd	r21, Y+23	; 0x17
    1d5c:	68 8d       	ldd	r22, Y+24	; 0x18
    1d5e:	79 8d       	ldd	r23, Y+25	; 0x19
    1d60:	c7 01       	movw	r24, r14
    1d62:	0e 94 21 05 	call	0xa42	; 0xa42 <move_window>
    1d66:	18 2f       	mov	r17, r24
    1d68:	81 11       	cpse	r24, r1
    1d6a:	1d c0       	rjmp	.+58     	; 0x1da6 <dir_find+0x6c>
    1d6c:	ea 8d       	ldd	r30, Y+26	; 0x1a
    1d6e:	fb 8d       	ldd	r31, Y+27	; 0x1b
    1d70:	80 81       	ld	r24, Z
    1d72:	88 23       	and	r24, r24
    1d74:	c9 f0       	breq	.+50     	; 0x1da8 <dir_find+0x6e>
    1d76:	83 85       	ldd	r24, Z+11	; 0x0b
    1d78:	8f 73       	andi	r24, 0x3F	; 63
    1d7a:	8c 83       	std	Y+4, r24	; 0x04
    1d7c:	83 85       	ldd	r24, Z+11	; 0x0b
    1d7e:	83 fd       	sbrc	r24, 3
    1d80:	0a c0       	rjmp	.+20     	; 0x1d96 <dir_find+0x5c>
    1d82:	4b e0       	ldi	r20, 0x0B	; 11
    1d84:	50 e0       	ldi	r21, 0x00	; 0
    1d86:	be 01       	movw	r22, r28
    1d88:	64 5e       	subi	r22, 0xE4	; 228
    1d8a:	7f 4f       	sbci	r23, 0xFF	; 255
    1d8c:	cf 01       	movw	r24, r30
    1d8e:	0e 94 7d 02 	call	0x4fa	; 0x4fa <mem_cmp>
    1d92:	89 2b       	or	r24, r25
    1d94:	59 f0       	breq	.+22     	; 0x1dac <dir_find+0x72>
    1d96:	60 e0       	ldi	r22, 0x00	; 0
    1d98:	70 e0       	ldi	r23, 0x00	; 0
    1d9a:	ce 01       	movw	r24, r28
    1d9c:	0e 94 a5 0d 	call	0x1b4a	; 0x1b4a <dir_next>
    1da0:	88 23       	and	r24, r24
    1da2:	d1 f2       	breq	.-76     	; 0x1d58 <dir_find+0x1e>
    1da4:	04 c0       	rjmp	.+8      	; 0x1dae <dir_find+0x74>
    1da6:	03 c0       	rjmp	.+6      	; 0x1dae <dir_find+0x74>
    1da8:	84 e0       	ldi	r24, 0x04	; 4
    1daa:	01 c0       	rjmp	.+2      	; 0x1dae <dir_find+0x74>
    1dac:	81 2f       	mov	r24, r17
    1dae:	df 91       	pop	r29
    1db0:	cf 91       	pop	r28
    1db2:	1f 91       	pop	r17
    1db4:	ff 90       	pop	r15
    1db6:	ef 90       	pop	r14
    1db8:	08 95       	ret

00001dba <follow_path>:
    1dba:	df 92       	push	r13
    1dbc:	ef 92       	push	r14
    1dbe:	ff 92       	push	r15
    1dc0:	0f 93       	push	r16
    1dc2:	1f 93       	push	r17
    1dc4:	cf 93       	push	r28
    1dc6:	df 93       	push	r29
    1dc8:	00 d0       	rcall	.+0      	; 0x1dca <follow_path+0x10>
    1dca:	cd b7       	in	r28, 0x3d	; 61
    1dcc:	de b7       	in	r29, 0x3e	; 62
    1dce:	8c 01       	movw	r16, r24
    1dd0:	fb 01       	movw	r30, r22
    1dd2:	69 83       	std	Y+1, r22	; 0x01
    1dd4:	7a 83       	std	Y+2, r23	; 0x02
    1dd6:	dc 01       	movw	r26, r24
    1dd8:	ed 90       	ld	r14, X+
    1dda:	fc 90       	ld	r15, X
    1ddc:	80 81       	ld	r24, Z
    1dde:	8f 32       	cpi	r24, 0x2F	; 47
    1de0:	81 f0       	breq	.+32     	; 0x1e02 <follow_path+0x48>
    1de2:	8c 35       	cpi	r24, 0x5C	; 92
    1de4:	71 f0       	breq	.+28     	; 0x1e02 <follow_path+0x48>
    1de6:	f7 01       	movw	r30, r14
    1de8:	83 89       	ldd	r24, Z+19	; 0x13
    1dea:	94 89       	ldd	r25, Z+20	; 0x14
    1dec:	a5 89       	ldd	r26, Z+21	; 0x15
    1dee:	b6 89       	ldd	r27, Z+22	; 0x16
    1df0:	f8 01       	movw	r30, r16
    1df2:	86 83       	std	Z+6, r24	; 0x06
    1df4:	97 83       	std	Z+7, r25	; 0x07
    1df6:	a0 87       	std	Z+8, r26	; 0x08
    1df8:	b1 87       	std	Z+9, r27	; 0x09
    1dfa:	11 c0       	rjmp	.+34     	; 0x1e1e <follow_path+0x64>
    1dfc:	31 96       	adiw	r30, 0x01	; 1
    1dfe:	e9 83       	std	Y+1, r30	; 0x01
    1e00:	fa 83       	std	Y+2, r31	; 0x02
    1e02:	e9 81       	ldd	r30, Y+1	; 0x01
    1e04:	fa 81       	ldd	r31, Y+2	; 0x02
    1e06:	80 81       	ld	r24, Z
    1e08:	8f 32       	cpi	r24, 0x2F	; 47
    1e0a:	c1 f3       	breq	.-16     	; 0x1dfc <follow_path+0x42>
    1e0c:	8c 35       	cpi	r24, 0x5C	; 92
    1e0e:	b1 f3       	breq	.-20     	; 0x1dfc <follow_path+0x42>
    1e10:	d8 01       	movw	r26, r16
    1e12:	16 96       	adiw	r26, 0x06	; 6
    1e14:	1d 92       	st	X+, r1
    1e16:	1d 92       	st	X+, r1
    1e18:	1d 92       	st	X+, r1
    1e1a:	1c 92       	st	X, r1
    1e1c:	19 97       	sbiw	r26, 0x09	; 9
    1e1e:	e9 81       	ldd	r30, Y+1	; 0x01
    1e20:	fa 81       	ldd	r31, Y+2	; 0x02
    1e22:	80 81       	ld	r24, Z
    1e24:	80 32       	cpi	r24, 0x20	; 32
    1e26:	58 f4       	brcc	.+22     	; 0x1e3e <follow_path+0x84>
    1e28:	80 e8       	ldi	r24, 0x80	; 128
    1e2a:	f8 01       	movw	r30, r16
    1e2c:	87 a3       	std	Z+39, r24	; 0x27
    1e2e:	40 e0       	ldi	r20, 0x00	; 0
    1e30:	50 e0       	ldi	r21, 0x00	; 0
    1e32:	ba 01       	movw	r22, r20
    1e34:	c8 01       	movw	r24, r16
    1e36:	0e 94 81 0a 	call	0x1502	; 0x1502 <dir_sdi>
    1e3a:	d8 2e       	mov	r13, r24
    1e3c:	48 c0       	rjmp	.+144    	; 0x1ece <follow_path+0x114>
    1e3e:	be 01       	movw	r22, r28
    1e40:	6f 5f       	subi	r22, 0xFF	; 255
    1e42:	7f 4f       	sbci	r23, 0xFF	; 255
    1e44:	c8 01       	movw	r24, r16
    1e46:	0e 94 52 03 	call	0x6a4	; 0x6a4 <create_name>
    1e4a:	d8 2e       	mov	r13, r24
    1e4c:	81 11       	cpse	r24, r1
    1e4e:	3f c0       	rjmp	.+126    	; 0x1ece <follow_path+0x114>
    1e50:	c8 01       	movw	r24, r16
    1e52:	0e 94 9d 0e 	call	0x1d3a	; 0x1d3a <dir_find>
    1e56:	d8 01       	movw	r26, r16
    1e58:	97 96       	adiw	r26, 0x27	; 39
    1e5a:	9c 91       	ld	r25, X
    1e5c:	97 97       	sbiw	r26, 0x27	; 39
    1e5e:	88 23       	and	r24, r24
    1e60:	71 f0       	breq	.+28     	; 0x1e7e <follow_path+0xc4>
    1e62:	84 30       	cpi	r24, 0x04	; 4
    1e64:	39 f5       	brne	.+78     	; 0x1eb4 <follow_path+0xfa>
    1e66:	95 ff       	sbrs	r25, 5
    1e68:	06 c0       	rjmp	.+12     	; 0x1e76 <follow_path+0xbc>
    1e6a:	92 ff       	sbrs	r25, 2
    1e6c:	e8 cf       	rjmp	.-48     	; 0x1e3e <follow_path+0x84>
    1e6e:	80 e8       	ldi	r24, 0x80	; 128
    1e70:	97 96       	adiw	r26, 0x27	; 39
    1e72:	8c 93       	st	X, r24
    1e74:	2c c0       	rjmp	.+88     	; 0x1ece <follow_path+0x114>
    1e76:	92 ff       	sbrs	r25, 2
    1e78:	1f c0       	rjmp	.+62     	; 0x1eb8 <follow_path+0xfe>
    1e7a:	d8 2e       	mov	r13, r24
    1e7c:	28 c0       	rjmp	.+80     	; 0x1ece <follow_path+0x114>
    1e7e:	92 fd       	sbrc	r25, 2
    1e80:	20 c0       	rjmp	.+64     	; 0x1ec2 <follow_path+0x108>
    1e82:	f8 01       	movw	r30, r16
    1e84:	84 81       	ldd	r24, Z+4	; 0x04
    1e86:	84 ff       	sbrs	r24, 4
    1e88:	1e c0       	rjmp	.+60     	; 0x1ec6 <follow_path+0x10c>
    1e8a:	86 85       	ldd	r24, Z+14	; 0x0e
    1e8c:	97 85       	ldd	r25, Z+15	; 0x0f
    1e8e:	a0 89       	ldd	r26, Z+16	; 0x10
    1e90:	b1 89       	ldd	r27, Z+17	; 0x11
    1e92:	91 70       	andi	r25, 0x01	; 1
    1e94:	b7 01       	movw	r22, r14
    1e96:	6d 5c       	subi	r22, 0xCD	; 205
    1e98:	7f 4f       	sbci	r23, 0xFF	; 255
    1e9a:	68 0f       	add	r22, r24
    1e9c:	79 1f       	adc	r23, r25
    1e9e:	c7 01       	movw	r24, r14
    1ea0:	0e 94 00 03 	call	0x600	; 0x600 <ld_clust>
    1ea4:	d8 01       	movw	r26, r16
    1ea6:	16 96       	adiw	r26, 0x06	; 6
    1ea8:	6d 93       	st	X+, r22
    1eaa:	7d 93       	st	X+, r23
    1eac:	8d 93       	st	X+, r24
    1eae:	9c 93       	st	X, r25
    1eb0:	19 97       	sbiw	r26, 0x09	; 9
    1eb2:	c5 cf       	rjmp	.-118    	; 0x1e3e <follow_path+0x84>
    1eb4:	d8 2e       	mov	r13, r24
    1eb6:	0b c0       	rjmp	.+22     	; 0x1ece <follow_path+0x114>
    1eb8:	0f 2e       	mov	r0, r31
    1eba:	f5 e0       	ldi	r31, 0x05	; 5
    1ebc:	df 2e       	mov	r13, r31
    1ebe:	f0 2d       	mov	r31, r0
    1ec0:	06 c0       	rjmp	.+12     	; 0x1ece <follow_path+0x114>
    1ec2:	d8 2e       	mov	r13, r24
    1ec4:	04 c0       	rjmp	.+8      	; 0x1ece <follow_path+0x114>
    1ec6:	0f 2e       	mov	r0, r31
    1ec8:	f5 e0       	ldi	r31, 0x05	; 5
    1eca:	df 2e       	mov	r13, r31
    1ecc:	f0 2d       	mov	r31, r0
    1ece:	8d 2d       	mov	r24, r13
    1ed0:	0f 90       	pop	r0
    1ed2:	0f 90       	pop	r0
    1ed4:	df 91       	pop	r29
    1ed6:	cf 91       	pop	r28
    1ed8:	1f 91       	pop	r17
    1eda:	0f 91       	pop	r16
    1edc:	ff 90       	pop	r15
    1ede:	ef 90       	pop	r14
    1ee0:	df 90       	pop	r13
    1ee2:	08 95       	ret

00001ee4 <dir_alloc>:
    1ee4:	cf 92       	push	r12
    1ee6:	df 92       	push	r13
    1ee8:	ef 92       	push	r14
    1eea:	ff 92       	push	r15
    1eec:	0f 93       	push	r16
    1eee:	1f 93       	push	r17
    1ef0:	cf 93       	push	r28
    1ef2:	df 93       	push	r29
    1ef4:	ec 01       	movw	r28, r24
    1ef6:	6b 01       	movw	r12, r22
    1ef8:	e8 80       	ld	r14, Y
    1efa:	f9 80       	ldd	r15, Y+1	; 0x01
    1efc:	40 e0       	ldi	r20, 0x00	; 0
    1efe:	50 e0       	ldi	r21, 0x00	; 0
    1f00:	ba 01       	movw	r22, r20
    1f02:	0e 94 81 0a 	call	0x1502	; 0x1502 <dir_sdi>
    1f06:	81 11       	cpse	r24, r1
    1f08:	21 c0       	rjmp	.+66     	; 0x1f4c <dir_alloc+0x68>
    1f0a:	00 e0       	ldi	r16, 0x00	; 0
    1f0c:	10 e0       	ldi	r17, 0x00	; 0
    1f0e:	4e 89       	ldd	r20, Y+22	; 0x16
    1f10:	5f 89       	ldd	r21, Y+23	; 0x17
    1f12:	68 8d       	ldd	r22, Y+24	; 0x18
    1f14:	79 8d       	ldd	r23, Y+25	; 0x19
    1f16:	c7 01       	movw	r24, r14
    1f18:	0e 94 21 05 	call	0xa42	; 0xa42 <move_window>
    1f1c:	81 11       	cpse	r24, r1
    1f1e:	16 c0       	rjmp	.+44     	; 0x1f4c <dir_alloc+0x68>
    1f20:	ea 8d       	ldd	r30, Y+26	; 0x1a
    1f22:	fb 8d       	ldd	r31, Y+27	; 0x1b
    1f24:	90 81       	ld	r25, Z
    1f26:	95 3e       	cpi	r25, 0xE5	; 229
    1f28:	11 f0       	breq	.+4      	; 0x1f2e <dir_alloc+0x4a>
    1f2a:	91 11       	cpse	r25, r1
    1f2c:	06 c0       	rjmp	.+12     	; 0x1f3a <dir_alloc+0x56>
    1f2e:	0f 5f       	subi	r16, 0xFF	; 255
    1f30:	1f 4f       	sbci	r17, 0xFF	; 255
    1f32:	0c 15       	cp	r16, r12
    1f34:	1d 05       	cpc	r17, r13
    1f36:	19 f4       	brne	.+6      	; 0x1f3e <dir_alloc+0x5a>
    1f38:	09 c0       	rjmp	.+18     	; 0x1f4c <dir_alloc+0x68>
    1f3a:	00 e0       	ldi	r16, 0x00	; 0
    1f3c:	10 e0       	ldi	r17, 0x00	; 0
    1f3e:	61 e0       	ldi	r22, 0x01	; 1
    1f40:	70 e0       	ldi	r23, 0x00	; 0
    1f42:	ce 01       	movw	r24, r28
    1f44:	0e 94 a5 0d 	call	0x1b4a	; 0x1b4a <dir_next>
    1f48:	88 23       	and	r24, r24
    1f4a:	09 f3       	breq	.-62     	; 0x1f0e <dir_alloc+0x2a>
    1f4c:	84 30       	cpi	r24, 0x04	; 4
    1f4e:	09 f4       	brne	.+2      	; 0x1f52 <dir_alloc+0x6e>
    1f50:	87 e0       	ldi	r24, 0x07	; 7
    1f52:	df 91       	pop	r29
    1f54:	cf 91       	pop	r28
    1f56:	1f 91       	pop	r17
    1f58:	0f 91       	pop	r16
    1f5a:	ff 90       	pop	r15
    1f5c:	ef 90       	pop	r14
    1f5e:	df 90       	pop	r13
    1f60:	cf 90       	pop	r12
    1f62:	08 95       	ret

00001f64 <dir_register>:
    1f64:	ef 92       	push	r14
    1f66:	ff 92       	push	r15
    1f68:	1f 93       	push	r17
    1f6a:	cf 93       	push	r28
    1f6c:	df 93       	push	r29
    1f6e:	ec 01       	movw	r28, r24
    1f70:	e8 80       	ld	r14, Y
    1f72:	f9 80       	ldd	r15, Y+1	; 0x01
    1f74:	61 e0       	ldi	r22, 0x01	; 1
    1f76:	70 e0       	ldi	r23, 0x00	; 0
    1f78:	0e 94 72 0f 	call	0x1ee4	; 0x1ee4 <dir_alloc>
    1f7c:	18 2f       	mov	r17, r24
    1f7e:	81 11       	cpse	r24, r1
    1f80:	1e c0       	rjmp	.+60     	; 0x1fbe <dir_register+0x5a>
    1f82:	4e 89       	ldd	r20, Y+22	; 0x16
    1f84:	5f 89       	ldd	r21, Y+23	; 0x17
    1f86:	68 8d       	ldd	r22, Y+24	; 0x18
    1f88:	79 8d       	ldd	r23, Y+25	; 0x19
    1f8a:	c7 01       	movw	r24, r14
    1f8c:	0e 94 21 05 	call	0xa42	; 0xa42 <move_window>
    1f90:	18 2f       	mov	r17, r24
    1f92:	81 11       	cpse	r24, r1
    1f94:	14 c0       	rjmp	.+40     	; 0x1fbe <dir_register+0x5a>
    1f96:	40 e2       	ldi	r20, 0x20	; 32
    1f98:	50 e0       	ldi	r21, 0x00	; 0
    1f9a:	60 e0       	ldi	r22, 0x00	; 0
    1f9c:	70 e0       	ldi	r23, 0x00	; 0
    1f9e:	8a 8d       	ldd	r24, Y+26	; 0x1a
    1fa0:	9b 8d       	ldd	r25, Y+27	; 0x1b
    1fa2:	0e 94 74 02 	call	0x4e8	; 0x4e8 <mem_set>
    1fa6:	be 01       	movw	r22, r28
    1fa8:	64 5e       	subi	r22, 0xE4	; 228
    1faa:	7f 4f       	sbci	r23, 0xFF	; 255
    1fac:	4b e0       	ldi	r20, 0x0B	; 11
    1fae:	50 e0       	ldi	r21, 0x00	; 0
    1fb0:	8a 8d       	ldd	r24, Y+26	; 0x1a
    1fb2:	9b 8d       	ldd	r25, Y+27	; 0x1b
    1fb4:	0e 94 65 02 	call	0x4ca	; 0x4ca <mem_cpy>
    1fb8:	81 e0       	ldi	r24, 0x01	; 1
    1fba:	f7 01       	movw	r30, r14
    1fbc:	83 83       	std	Z+3, r24	; 0x03
    1fbe:	81 2f       	mov	r24, r17
    1fc0:	df 91       	pop	r29
    1fc2:	cf 91       	pop	r28
    1fc4:	1f 91       	pop	r17
    1fc6:	ff 90       	pop	r15
    1fc8:	ef 90       	pop	r14
    1fca:	08 95       	ret

00001fcc <sync_fs>:
    1fcc:	cf 92       	push	r12
    1fce:	df 92       	push	r13
    1fd0:	ff 92       	push	r15
    1fd2:	0f 93       	push	r16
    1fd4:	1f 93       	push	r17
    1fd6:	cf 93       	push	r28
    1fd8:	df 93       	push	r29
    1fda:	ec 01       	movw	r28, r24
    1fdc:	0e 94 c7 04 	call	0x98e	; 0x98e <sync_window>
    1fe0:	f8 2e       	mov	r15, r24
    1fe2:	81 11       	cpse	r24, r1
    1fe4:	5b c0       	rjmp	.+182    	; 0x209c <__DATA_REGION_LENGTH__+0x9c>
    1fe6:	88 81       	ld	r24, Y
    1fe8:	83 30       	cpi	r24, 0x03	; 3
    1fea:	09 f0       	breq	.+2      	; 0x1fee <sync_fs+0x22>
    1fec:	4d c0       	rjmp	.+154    	; 0x2088 <__DATA_REGION_LENGTH__+0x88>
    1fee:	8c 81       	ldd	r24, Y+4	; 0x04
    1ff0:	81 30       	cpi	r24, 0x01	; 1
    1ff2:	09 f0       	breq	.+2      	; 0x1ff6 <sync_fs+0x2a>
    1ff4:	49 c0       	rjmp	.+146    	; 0x2088 <__DATA_REGION_LENGTH__+0x88>
    1ff6:	40 e0       	ldi	r20, 0x00	; 0
    1ff8:	52 e0       	ldi	r21, 0x02	; 2
    1ffa:	60 e0       	ldi	r22, 0x00	; 0
    1ffc:	70 e0       	ldi	r23, 0x00	; 0
    1ffe:	6e 01       	movw	r12, r28
    2000:	83 e3       	ldi	r24, 0x33	; 51
    2002:	c8 0e       	add	r12, r24
    2004:	d1 1c       	adc	r13, r1
    2006:	c6 01       	movw	r24, r12
    2008:	0e 94 74 02 	call	0x4e8	; 0x4e8 <mem_set>
    200c:	65 e5       	ldi	r22, 0x55	; 85
    200e:	7a ea       	ldi	r23, 0xAA	; 170
    2010:	ce 01       	movw	r24, r28
    2012:	8f 5c       	subi	r24, 0xCF	; 207
    2014:	9d 4f       	sbci	r25, 0xFD	; 253
    2016:	0e 94 5b 02 	call	0x4b6	; 0x4b6 <st_word>
    201a:	42 e5       	ldi	r20, 0x52	; 82
    201c:	52 e5       	ldi	r21, 0x52	; 82
    201e:	61 e6       	ldi	r22, 0x61	; 97
    2020:	71 e4       	ldi	r23, 0x41	; 65
    2022:	c6 01       	movw	r24, r12
    2024:	0e 94 5f 02 	call	0x4be	; 0x4be <st_dword>
    2028:	42 e7       	ldi	r20, 0x72	; 114
    202a:	52 e7       	ldi	r21, 0x72	; 114
    202c:	61 e4       	ldi	r22, 0x41	; 65
    202e:	71 e6       	ldi	r23, 0x61	; 97
    2030:	ce 01       	movw	r24, r28
    2032:	89 5e       	subi	r24, 0xE9	; 233
    2034:	9d 4f       	sbci	r25, 0xFD	; 253
    2036:	0e 94 5f 02 	call	0x4be	; 0x4be <st_dword>
    203a:	4f 85       	ldd	r20, Y+15	; 0x0f
    203c:	58 89       	ldd	r21, Y+16	; 0x10
    203e:	69 89       	ldd	r22, Y+17	; 0x11
    2040:	7a 89       	ldd	r23, Y+18	; 0x12
    2042:	ce 01       	movw	r24, r28
    2044:	85 5e       	subi	r24, 0xE5	; 229
    2046:	9d 4f       	sbci	r25, 0xFD	; 253
    2048:	0e 94 5f 02 	call	0x4be	; 0x4be <st_dword>
    204c:	4b 85       	ldd	r20, Y+11	; 0x0b
    204e:	5c 85       	ldd	r21, Y+12	; 0x0c
    2050:	6d 85       	ldd	r22, Y+13	; 0x0d
    2052:	7e 85       	ldd	r23, Y+14	; 0x0e
    2054:	ce 01       	movw	r24, r28
    2056:	81 5e       	subi	r24, 0xE1	; 225
    2058:	9d 4f       	sbci	r25, 0xFD	; 253
    205a:	0e 94 5f 02 	call	0x4be	; 0x4be <st_dword>
    205e:	8f 8d       	ldd	r24, Y+31	; 0x1f
    2060:	98 a1       	ldd	r25, Y+32	; 0x20
    2062:	a9 a1       	ldd	r26, Y+33	; 0x21
    2064:	ba a1       	ldd	r27, Y+34	; 0x22
    2066:	9c 01       	movw	r18, r24
    2068:	ad 01       	movw	r20, r26
    206a:	2f 5f       	subi	r18, 0xFF	; 255
    206c:	3f 4f       	sbci	r19, 0xFF	; 255
    206e:	4f 4f       	sbci	r20, 0xFF	; 255
    2070:	5f 4f       	sbci	r21, 0xFF	; 255
    2072:	2f a7       	std	Y+47, r18	; 0x2f
    2074:	38 ab       	std	Y+48, r19	; 0x30
    2076:	49 ab       	std	Y+49, r20	; 0x31
    2078:	5a ab       	std	Y+50, r21	; 0x32
    207a:	01 e0       	ldi	r16, 0x01	; 1
    207c:	10 e0       	ldi	r17, 0x00	; 0
    207e:	b6 01       	movw	r22, r12
    2080:	89 81       	ldd	r24, Y+1	; 0x01
    2082:	0e 94 df 1b 	call	0x37be	; 0x37be <disk_write>
    2086:	1c 82       	std	Y+4, r1	; 0x04
    2088:	40 e0       	ldi	r20, 0x00	; 0
    208a:	50 e0       	ldi	r21, 0x00	; 0
    208c:	60 e0       	ldi	r22, 0x00	; 0
    208e:	89 81       	ldd	r24, Y+1	; 0x01
    2090:	0e 94 ea 1b 	call	0x37d4	; 0x37d4 <disk_ioctl>
    2094:	88 23       	and	r24, r24
    2096:	11 f0       	breq	.+4      	; 0x209c <__DATA_REGION_LENGTH__+0x9c>
    2098:	ff 24       	eor	r15, r15
    209a:	f3 94       	inc	r15
    209c:	8f 2d       	mov	r24, r15
    209e:	df 91       	pop	r29
    20a0:	cf 91       	pop	r28
    20a2:	1f 91       	pop	r17
    20a4:	0f 91       	pop	r16
    20a6:	ff 90       	pop	r15
    20a8:	df 90       	pop	r13
    20aa:	cf 90       	pop	r12
    20ac:	08 95       	ret

000020ae <f_mount>:
    20ae:	1f 93       	push	r17
    20b0:	cf 93       	push	r28
    20b2:	df 93       	push	r29
    20b4:	cd b7       	in	r28, 0x3d	; 61
    20b6:	de b7       	in	r29, 0x3e	; 62
    20b8:	26 97       	sbiw	r28, 0x06	; 6
    20ba:	cd bf       	out	0x3d, r28	; 61
    20bc:	de bf       	out	0x3e, r29	; 62
    20be:	8b 83       	std	Y+3, r24	; 0x03
    20c0:	9c 83       	std	Y+4, r25	; 0x04
    20c2:	6d 83       	std	Y+5, r22	; 0x05
    20c4:	7e 83       	std	Y+6, r23	; 0x06
    20c6:	14 2f       	mov	r17, r20
    20c8:	69 83       	std	Y+1, r22	; 0x01
    20ca:	7a 83       	std	Y+2, r23	; 0x02
    20cc:	ce 01       	movw	r24, r28
    20ce:	01 96       	adiw	r24, 0x01	; 1
    20d0:	0e 94 53 04 	call	0x8a6	; 0x8a6 <get_ldnumber>
    20d4:	99 23       	and	r25, r25
    20d6:	24 f1       	brlt	.+72     	; 0x2120 <f_mount+0x72>
    20d8:	fc 01       	movw	r30, r24
    20da:	ee 0f       	add	r30, r30
    20dc:	ff 1f       	adc	r31, r31
    20de:	e2 57       	subi	r30, 0x72	; 114
    20e0:	fe 49       	sbci	r31, 0x9E	; 158
    20e2:	01 90       	ld	r0, Z+
    20e4:	f0 81       	ld	r31, Z
    20e6:	e0 2d       	mov	r30, r0
    20e8:	30 97       	sbiw	r30, 0x00	; 0
    20ea:	09 f0       	breq	.+2      	; 0x20ee <f_mount+0x40>
    20ec:	10 82       	st	Z, r1
    20ee:	eb 81       	ldd	r30, Y+3	; 0x03
    20f0:	fc 81       	ldd	r31, Y+4	; 0x04
    20f2:	30 97       	sbiw	r30, 0x00	; 0
    20f4:	09 f0       	breq	.+2      	; 0x20f8 <f_mount+0x4a>
    20f6:	10 82       	st	Z, r1
    20f8:	88 0f       	add	r24, r24
    20fa:	99 1f       	adc	r25, r25
    20fc:	fc 01       	movw	r30, r24
    20fe:	e2 57       	subi	r30, 0x72	; 114
    2100:	fe 49       	sbci	r31, 0x9E	; 158
    2102:	8b 81       	ldd	r24, Y+3	; 0x03
    2104:	9c 81       	ldd	r25, Y+4	; 0x04
    2106:	80 83       	st	Z, r24
    2108:	91 83       	std	Z+1, r25	; 0x01
    210a:	11 23       	and	r17, r17
    210c:	59 f0       	breq	.+22     	; 0x2124 <f_mount+0x76>
    210e:	40 e0       	ldi	r20, 0x00	; 0
    2110:	be 01       	movw	r22, r28
    2112:	6d 5f       	subi	r22, 0xFD	; 253
    2114:	7f 4f       	sbci	r23, 0xFF	; 255
    2116:	ce 01       	movw	r24, r28
    2118:	05 96       	adiw	r24, 0x05	; 5
    211a:	0e 94 a5 05 	call	0xb4a	; 0xb4a <find_volume>
    211e:	03 c0       	rjmp	.+6      	; 0x2126 <f_mount+0x78>
    2120:	8b e0       	ldi	r24, 0x0B	; 11
    2122:	01 c0       	rjmp	.+2      	; 0x2126 <f_mount+0x78>
    2124:	80 e0       	ldi	r24, 0x00	; 0
    2126:	26 96       	adiw	r28, 0x06	; 6
    2128:	cd bf       	out	0x3d, r28	; 61
    212a:	de bf       	out	0x3e, r29	; 62
    212c:	df 91       	pop	r29
    212e:	cf 91       	pop	r28
    2130:	1f 91       	pop	r17
    2132:	08 95       	ret

00002134 <f_open>:
    2134:	2f 92       	push	r2
    2136:	3f 92       	push	r3
    2138:	4f 92       	push	r4
    213a:	5f 92       	push	r5
    213c:	6f 92       	push	r6
    213e:	7f 92       	push	r7
    2140:	8f 92       	push	r8
    2142:	9f 92       	push	r9
    2144:	af 92       	push	r10
    2146:	bf 92       	push	r11
    2148:	cf 92       	push	r12
    214a:	df 92       	push	r13
    214c:	ef 92       	push	r14
    214e:	ff 92       	push	r15
    2150:	0f 93       	push	r16
    2152:	1f 93       	push	r17
    2154:	cf 93       	push	r28
    2156:	df 93       	push	r29
    2158:	cd b7       	in	r28, 0x3d	; 61
    215a:	de b7       	in	r29, 0x3e	; 62
    215c:	ac 97       	sbiw	r28, 0x2c	; 44
    215e:	cd bf       	out	0x3d, r28	; 61
    2160:	de bf       	out	0x3e, r29	; 62
    2162:	6b a7       	std	Y+43, r22	; 0x2b
    2164:	7c a7       	std	Y+44, r23	; 0x2c
    2166:	00 97       	sbiw	r24, 0x00	; 0
    2168:	09 f4       	brne	.+2      	; 0x216c <f_open+0x38>
    216a:	84 c1       	rjmp	.+776    	; 0x2474 <f_open+0x340>
    216c:	14 2f       	mov	r17, r20
    216e:	6c 01       	movw	r12, r24
    2170:	84 2f       	mov	r24, r20
    2172:	8f 73       	andi	r24, 0x3F	; 63
    2174:	e8 2e       	mov	r14, r24
    2176:	48 2f       	mov	r20, r24
    2178:	be 01       	movw	r22, r28
    217a:	67 5d       	subi	r22, 0xD7	; 215
    217c:	7f 4f       	sbci	r23, 0xFF	; 255
    217e:	ce 01       	movw	r24, r28
    2180:	8b 96       	adiw	r24, 0x2b	; 43
    2182:	0e 94 a5 05 	call	0xb4a	; 0xb4a <find_volume>
    2186:	f8 2e       	mov	r15, r24
    2188:	81 11       	cpse	r24, r1
    218a:	6d c1       	rjmp	.+730    	; 0x2466 <f_open+0x332>
    218c:	89 a5       	ldd	r24, Y+41	; 0x29
    218e:	9a a5       	ldd	r25, Y+42	; 0x2a
    2190:	89 83       	std	Y+1, r24	; 0x01
    2192:	9a 83       	std	Y+2, r25	; 0x02
    2194:	6b a5       	ldd	r22, Y+43	; 0x2b
    2196:	7c a5       	ldd	r23, Y+44	; 0x2c
    2198:	ce 01       	movw	r24, r28
    219a:	01 96       	adiw	r24, 0x01	; 1
    219c:	0e 94 dd 0e 	call	0x1dba	; 0x1dba <follow_path>
    21a0:	f8 2e       	mov	r15, r24
    21a2:	81 11       	cpse	r24, r1
    21a4:	07 c0       	rjmp	.+14     	; 0x21b4 <f_open+0x80>
    21a6:	88 a5       	ldd	r24, Y+40	; 0x28
    21a8:	88 23       	and	r24, r24
    21aa:	24 f4       	brge	.+8      	; 0x21b4 <f_open+0x80>
    21ac:	0f 2e       	mov	r0, r31
    21ae:	f6 e0       	ldi	r31, 0x06	; 6
    21b0:	ff 2e       	mov	r15, r31
    21b2:	f0 2d       	mov	r31, r0
    21b4:	81 2f       	mov	r24, r17
    21b6:	8c 71       	andi	r24, 0x1C	; 28
    21b8:	09 f4       	brne	.+2      	; 0x21bc <f_open+0x88>
    21ba:	72 c0       	rjmp	.+228    	; 0x22a0 <f_open+0x16c>
    21bc:	ff 20       	and	r15, r15
    21be:	61 f0       	breq	.+24     	; 0x21d8 <f_open+0xa4>
    21c0:	e4 e0       	ldi	r30, 0x04	; 4
    21c2:	fe 12       	cpse	r15, r30
    21c4:	05 c0       	rjmp	.+10     	; 0x21d0 <f_open+0x9c>
    21c6:	ce 01       	movw	r24, r28
    21c8:	01 96       	adiw	r24, 0x01	; 1
    21ca:	0e 94 b2 0f 	call	0x1f64	; 0x1f64 <dir_register>
    21ce:	f8 2e       	mov	r15, r24
    21d0:	fe 2d       	mov	r31, r14
    21d2:	f8 60       	ori	r31, 0x08	; 8
    21d4:	ef 2e       	mov	r14, r31
    21d6:	0e c0       	rjmp	.+28     	; 0x21f4 <f_open+0xc0>
    21d8:	8d 81       	ldd	r24, Y+5	; 0x05
    21da:	81 71       	andi	r24, 0x11	; 17
    21dc:	19 f4       	brne	.+6      	; 0x21e4 <f_open+0xb0>
    21de:	12 fd       	sbrc	r17, 2
    21e0:	06 c0       	rjmp	.+12     	; 0x21ee <f_open+0xba>
    21e2:	08 c0       	rjmp	.+16     	; 0x21f4 <f_open+0xc0>
    21e4:	0f 2e       	mov	r0, r31
    21e6:	f7 e0       	ldi	r31, 0x07	; 7
    21e8:	ff 2e       	mov	r15, r31
    21ea:	f0 2d       	mov	r31, r0
    21ec:	03 c0       	rjmp	.+6      	; 0x21f4 <f_open+0xc0>
    21ee:	68 94       	set
    21f0:	ff 24       	eor	r15, r15
    21f2:	f3 f8       	bld	r15, 3
    21f4:	f1 10       	cpse	r15, r1
    21f6:	66 c0       	rjmp	.+204    	; 0x22c4 <f_open+0x190>
    21f8:	e3 fe       	sbrs	r14, 3
    21fa:	64 c0       	rjmp	.+200    	; 0x22c4 <f_open+0x190>
    21fc:	6b 8d       	ldd	r22, Y+27	; 0x1b
    21fe:	7c 8d       	ldd	r23, Y+28	; 0x1c
    2200:	89 a5       	ldd	r24, Y+41	; 0x29
    2202:	9a a5       	ldd	r25, Y+42	; 0x2a
    2204:	0e 94 00 03 	call	0x600	; 0x600 <ld_clust>
    2208:	4b 01       	movw	r8, r22
    220a:	5c 01       	movw	r10, r24
    220c:	0e 94 ef 1b 	call	0x37de	; 0x37de <get_fattime>
    2210:	ab 01       	movw	r20, r22
    2212:	bc 01       	movw	r22, r24
    2214:	8b 8d       	ldd	r24, Y+27	; 0x1b
    2216:	9c 8d       	ldd	r25, Y+28	; 0x1c
    2218:	0e 96       	adiw	r24, 0x0e	; 14
    221a:	0e 94 5f 02 	call	0x4be	; 0x4be <st_dword>
    221e:	eb 8d       	ldd	r30, Y+27	; 0x1b
    2220:	fc 8d       	ldd	r31, Y+28	; 0x1c
    2222:	80 e2       	ldi	r24, 0x20	; 32
    2224:	83 87       	std	Z+11, r24	; 0x0b
    2226:	6b 8d       	ldd	r22, Y+27	; 0x1b
    2228:	7c 8d       	ldd	r23, Y+28	; 0x1c
    222a:	20 e0       	ldi	r18, 0x00	; 0
    222c:	30 e0       	ldi	r19, 0x00	; 0
    222e:	a9 01       	movw	r20, r18
    2230:	89 a5       	ldd	r24, Y+41	; 0x29
    2232:	9a a5       	ldd	r25, Y+42	; 0x2a
    2234:	0e 94 2d 03 	call	0x65a	; 0x65a <st_clust>
    2238:	8b 8d       	ldd	r24, Y+27	; 0x1b
    223a:	9c 8d       	ldd	r25, Y+28	; 0x1c
    223c:	40 e0       	ldi	r20, 0x00	; 0
    223e:	50 e0       	ldi	r21, 0x00	; 0
    2240:	ba 01       	movw	r22, r20
    2242:	4c 96       	adiw	r24, 0x1c	; 28
    2244:	0e 94 5f 02 	call	0x4be	; 0x4be <st_dword>
    2248:	e9 a5       	ldd	r30, Y+41	; 0x29
    224a:	fa a5       	ldd	r31, Y+42	; 0x2a
    224c:	81 e0       	ldi	r24, 0x01	; 1
    224e:	83 83       	std	Z+3, r24	; 0x03
    2250:	81 14       	cp	r8, r1
    2252:	91 04       	cpc	r9, r1
    2254:	a1 04       	cpc	r10, r1
    2256:	b1 04       	cpc	r11, r1
    2258:	a9 f1       	breq	.+106    	; 0x22c4 <f_open+0x190>
    225a:	47 a4       	ldd	r4, Z+47	; 0x2f
    225c:	50 a8       	ldd	r5, Z+48	; 0x30
    225e:	61 a8       	ldd	r6, Z+49	; 0x31
    2260:	72 a8       	ldd	r7, Z+50	; 0x32
    2262:	00 e0       	ldi	r16, 0x00	; 0
    2264:	10 e0       	ldi	r17, 0x00	; 0
    2266:	98 01       	movw	r18, r16
    2268:	b5 01       	movw	r22, r10
    226a:	a4 01       	movw	r20, r8
    226c:	ce 01       	movw	r24, r28
    226e:	01 96       	adiw	r24, 0x01	; 1
    2270:	0e 94 b8 0c 	call	0x1970	; 0x1970 <remove_chain>
    2274:	f8 2e       	mov	r15, r24
    2276:	81 11       	cpse	r24, r1
    2278:	25 c0       	rjmp	.+74     	; 0x22c4 <f_open+0x190>
    227a:	b3 01       	movw	r22, r6
    227c:	a2 01       	movw	r20, r4
    227e:	89 a5       	ldd	r24, Y+41	; 0x29
    2280:	9a a5       	ldd	r25, Y+42	; 0x2a
    2282:	0e 94 21 05 	call	0xa42	; 0xa42 <move_window>
    2286:	f8 2e       	mov	r15, r24
    2288:	e9 a5       	ldd	r30, Y+41	; 0x29
    228a:	fa a5       	ldd	r31, Y+42	; 0x2a
    228c:	81 e0       	ldi	r24, 0x01	; 1
    228e:	88 1a       	sub	r8, r24
    2290:	91 08       	sbc	r9, r1
    2292:	a1 08       	sbc	r10, r1
    2294:	b1 08       	sbc	r11, r1
    2296:	83 86       	std	Z+11, r8	; 0x0b
    2298:	94 86       	std	Z+12, r9	; 0x0c
    229a:	a5 86       	std	Z+13, r10	; 0x0d
    229c:	b6 86       	std	Z+14, r11	; 0x0e
    229e:	12 c0       	rjmp	.+36     	; 0x22c4 <f_open+0x190>
    22a0:	f1 10       	cpse	r15, r1
    22a2:	10 c0       	rjmp	.+32     	; 0x22c4 <f_open+0x190>
    22a4:	8d 81       	ldd	r24, Y+5	; 0x05
    22a6:	84 fd       	sbrc	r24, 4
    22a8:	05 c0       	rjmp	.+10     	; 0x22b4 <f_open+0x180>
    22aa:	11 ff       	sbrs	r17, 1
    22ac:	0b c0       	rjmp	.+22     	; 0x22c4 <f_open+0x190>
    22ae:	80 fd       	sbrc	r24, 0
    22b0:	05 c0       	rjmp	.+10     	; 0x22bc <f_open+0x188>
    22b2:	08 c0       	rjmp	.+16     	; 0x22c4 <f_open+0x190>
    22b4:	68 94       	set
    22b6:	ff 24       	eor	r15, r15
    22b8:	f2 f8       	bld	r15, 2
    22ba:	04 c0       	rjmp	.+8      	; 0x22c4 <f_open+0x190>
    22bc:	0f 2e       	mov	r0, r31
    22be:	f7 e0       	ldi	r31, 0x07	; 7
    22c0:	ff 2e       	mov	r15, r31
    22c2:	f0 2d       	mov	r31, r0
    22c4:	f1 10       	cpse	r15, r1
    22c6:	14 c0       	rjmp	.+40     	; 0x22f0 <f_open+0x1bc>
    22c8:	e3 fe       	sbrs	r14, 3
    22ca:	03 c0       	rjmp	.+6      	; 0x22d2 <f_open+0x19e>
    22cc:	ee 2d       	mov	r30, r14
    22ce:	e0 64       	ori	r30, 0x40	; 64
    22d0:	ee 2e       	mov	r14, r30
    22d2:	e9 a5       	ldd	r30, Y+41	; 0x29
    22d4:	fa a5       	ldd	r31, Y+42	; 0x2a
    22d6:	87 a5       	ldd	r24, Z+47	; 0x2f
    22d8:	90 a9       	ldd	r25, Z+48	; 0x30
    22da:	a1 a9       	ldd	r26, Z+49	; 0x31
    22dc:	b2 a9       	ldd	r27, Z+50	; 0x32
    22de:	f6 01       	movw	r30, r12
    22e0:	84 8f       	std	Z+28, r24	; 0x1c
    22e2:	95 8f       	std	Z+29, r25	; 0x1d
    22e4:	a6 8f       	std	Z+30, r26	; 0x1e
    22e6:	b7 8f       	std	Z+31, r27	; 0x1f
    22e8:	8b 8d       	ldd	r24, Y+27	; 0x1b
    22ea:	9c 8d       	ldd	r25, Y+28	; 0x1c
    22ec:	80 a3       	std	Z+32, r24	; 0x20
    22ee:	91 a3       	std	Z+33, r25	; 0x21
    22f0:	f1 10       	cpse	r15, r1
    22f2:	b9 c0       	rjmp	.+370    	; 0x2466 <f_open+0x332>
    22f4:	8b 8c       	ldd	r8, Y+27	; 0x1b
    22f6:	9c 8c       	ldd	r9, Y+28	; 0x1c
    22f8:	a9 a4       	ldd	r10, Y+41	; 0x29
    22fa:	ba a4       	ldd	r11, Y+42	; 0x2a
    22fc:	b4 01       	movw	r22, r8
    22fe:	c5 01       	movw	r24, r10
    2300:	0e 94 00 03 	call	0x600	; 0x600 <ld_clust>
    2304:	f6 01       	movw	r30, r12
    2306:	66 83       	std	Z+6, r22	; 0x06
    2308:	77 83       	std	Z+7, r23	; 0x07
    230a:	80 87       	std	Z+8, r24	; 0x08
    230c:	91 87       	std	Z+9, r25	; 0x09
    230e:	c4 01       	movw	r24, r8
    2310:	4c 96       	adiw	r24, 0x1c	; 28
    2312:	0e 94 40 02 	call	0x480	; 0x480 <ld_dword>
    2316:	f6 01       	movw	r30, r12
    2318:	62 87       	std	Z+10, r22	; 0x0a
    231a:	73 87       	std	Z+11, r23	; 0x0b
    231c:	84 87       	std	Z+12, r24	; 0x0c
    231e:	95 87       	std	Z+13, r25	; 0x0d
    2320:	a0 82       	st	Z, r10
    2322:	b1 82       	std	Z+1, r11	; 0x01
    2324:	f5 01       	movw	r30, r10
    2326:	85 81       	ldd	r24, Z+5	; 0x05
    2328:	96 81       	ldd	r25, Z+6	; 0x06
    232a:	f6 01       	movw	r30, r12
    232c:	82 83       	std	Z+2, r24	; 0x02
    232e:	93 83       	std	Z+3, r25	; 0x03
    2330:	e6 86       	std	Z+14, r14	; 0x0e
    2332:	17 86       	std	Z+15, r1	; 0x0f
    2334:	10 8e       	std	Z+24, r1	; 0x18
    2336:	11 8e       	std	Z+25, r1	; 0x19
    2338:	12 8e       	std	Z+26, r1	; 0x1a
    233a:	13 8e       	std	Z+27, r1	; 0x1b
    233c:	10 8a       	std	Z+16, r1	; 0x10
    233e:	11 8a       	std	Z+17, r1	; 0x11
    2340:	12 8a       	std	Z+18, r1	; 0x12
    2342:	13 8a       	std	Z+19, r1	; 0x13
    2344:	16 01       	movw	r2, r12
    2346:	f2 e2       	ldi	r31, 0x22	; 34
    2348:	2f 0e       	add	r2, r31
    234a:	31 1c       	adc	r3, r1
    234c:	40 e0       	ldi	r20, 0x00	; 0
    234e:	52 e0       	ldi	r21, 0x02	; 2
    2350:	60 e0       	ldi	r22, 0x00	; 0
    2352:	70 e0       	ldi	r23, 0x00	; 0
    2354:	c1 01       	movw	r24, r2
    2356:	0e 94 74 02 	call	0x4e8	; 0x4e8 <mem_set>
    235a:	e5 fe       	sbrs	r14, 5
    235c:	84 c0       	rjmp	.+264    	; 0x2466 <f_open+0x332>
    235e:	f6 01       	movw	r30, r12
    2360:	42 84       	ldd	r4, Z+10	; 0x0a
    2362:	53 84       	ldd	r5, Z+11	; 0x0b
    2364:	64 84       	ldd	r6, Z+12	; 0x0c
    2366:	75 84       	ldd	r7, Z+13	; 0x0d
    2368:	41 14       	cp	r4, r1
    236a:	51 04       	cpc	r5, r1
    236c:	61 04       	cpc	r6, r1
    236e:	71 04       	cpc	r7, r1
    2370:	09 f4       	brne	.+2      	; 0x2374 <f_open+0x240>
    2372:	79 c0       	rjmp	.+242    	; 0x2466 <f_open+0x332>
    2374:	40 8a       	std	Z+16, r4	; 0x10
    2376:	51 8a       	std	Z+17, r5	; 0x11
    2378:	62 8a       	std	Z+18, r6	; 0x12
    237a:	73 8a       	std	Z+19, r7	; 0x13
    237c:	e9 a5       	ldd	r30, Y+41	; 0x29
    237e:	fa a5       	ldd	r31, Y+42	; 0x2a
    2380:	81 85       	ldd	r24, Z+9	; 0x09
    2382:	92 85       	ldd	r25, Z+10	; 0x0a
    2384:	a0 e0       	ldi	r26, 0x00	; 0
    2386:	b0 e0       	ldi	r27, 0x00	; 0
    2388:	4c 01       	movw	r8, r24
    238a:	5d 01       	movw	r10, r26
    238c:	07 2e       	mov	r0, r23
    238e:	79 e0       	ldi	r23, 0x09	; 9
    2390:	88 0c       	add	r8, r8
    2392:	99 1c       	adc	r9, r9
    2394:	aa 1c       	adc	r10, r10
    2396:	bb 1c       	adc	r11, r11
    2398:	7a 95       	dec	r23
    239a:	d1 f7       	brne	.-12     	; 0x2390 <f_open+0x25c>
    239c:	70 2d       	mov	r23, r0
    239e:	f6 01       	movw	r30, r12
    23a0:	46 81       	ldd	r20, Z+6	; 0x06
    23a2:	57 81       	ldd	r21, Z+7	; 0x07
    23a4:	60 85       	ldd	r22, Z+8	; 0x08
    23a6:	71 85       	ldd	r23, Z+9	; 0x09
    23a8:	19 c0       	rjmp	.+50     	; 0x23dc <f_open+0x2a8>
    23aa:	c6 01       	movw	r24, r12
    23ac:	0e 94 9f 09 	call	0x133e	; 0x133e <get_fat>
    23b0:	ab 01       	movw	r20, r22
    23b2:	bc 01       	movw	r22, r24
    23b4:	42 30       	cpi	r20, 0x02	; 2
    23b6:	51 05       	cpc	r21, r1
    23b8:	61 05       	cpc	r22, r1
    23ba:	71 05       	cpc	r23, r1
    23bc:	18 f4       	brcc	.+6      	; 0x23c4 <f_open+0x290>
    23be:	68 94       	set
    23c0:	ff 24       	eor	r15, r15
    23c2:	f1 f8       	bld	r15, 1
    23c4:	4f 3f       	cpi	r20, 0xFF	; 255
    23c6:	ff ef       	ldi	r31, 0xFF	; 255
    23c8:	5f 07       	cpc	r21, r31
    23ca:	6f 07       	cpc	r22, r31
    23cc:	7f 07       	cpc	r23, r31
    23ce:	11 f4       	brne	.+4      	; 0x23d4 <f_open+0x2a0>
    23d0:	ff 24       	eor	r15, r15
    23d2:	f3 94       	inc	r15
    23d4:	48 18       	sub	r4, r8
    23d6:	59 08       	sbc	r5, r9
    23d8:	6a 08       	sbc	r6, r10
    23da:	7b 08       	sbc	r7, r11
    23dc:	f1 10       	cpse	r15, r1
    23de:	05 c0       	rjmp	.+10     	; 0x23ea <f_open+0x2b6>
    23e0:	84 14       	cp	r8, r4
    23e2:	95 04       	cpc	r9, r5
    23e4:	a6 04       	cpc	r10, r6
    23e6:	b7 04       	cpc	r11, r7
    23e8:	00 f3       	brcs	.-64     	; 0x23aa <f_open+0x276>
    23ea:	f6 01       	movw	r30, r12
    23ec:	44 8b       	std	Z+20, r20	; 0x14
    23ee:	55 8b       	std	Z+21, r21	; 0x15
    23f0:	66 8b       	std	Z+22, r22	; 0x16
    23f2:	77 8b       	std	Z+23, r23	; 0x17
    23f4:	f1 10       	cpse	r15, r1
    23f6:	37 c0       	rjmp	.+110    	; 0x2466 <f_open+0x332>
    23f8:	d3 01       	movw	r26, r6
    23fa:	c2 01       	movw	r24, r4
    23fc:	91 70       	andi	r25, 0x01	; 1
    23fe:	aa 27       	eor	r26, r26
    2400:	bb 27       	eor	r27, r27
    2402:	89 2b       	or	r24, r25
    2404:	8a 2b       	or	r24, r26
    2406:	8b 2b       	or	r24, r27
    2408:	71 f1       	breq	.+92     	; 0x2466 <f_open+0x332>
    240a:	89 a4       	ldd	r8, Y+41	; 0x29
    240c:	9a a4       	ldd	r9, Y+42	; 0x2a
    240e:	c4 01       	movw	r24, r8
    2410:	0e 94 d2 02 	call	0x5a4	; 0x5a4 <clst2sect>
    2414:	61 15       	cp	r22, r1
    2416:	71 05       	cpc	r23, r1
    2418:	81 05       	cpc	r24, r1
    241a:	91 05       	cpc	r25, r1
    241c:	f1 f0       	breq	.+60     	; 0x245a <f_open+0x326>
    241e:	03 2e       	mov	r0, r19
    2420:	39 e0       	ldi	r19, 0x09	; 9
    2422:	76 94       	lsr	r7
    2424:	67 94       	ror	r6
    2426:	57 94       	ror	r5
    2428:	47 94       	ror	r4
    242a:	3a 95       	dec	r19
    242c:	d1 f7       	brne	.-12     	; 0x2422 <f_open+0x2ee>
    242e:	30 2d       	mov	r19, r0
    2430:	9b 01       	movw	r18, r22
    2432:	ac 01       	movw	r20, r24
    2434:	24 0d       	add	r18, r4
    2436:	35 1d       	adc	r19, r5
    2438:	46 1d       	adc	r20, r6
    243a:	57 1d       	adc	r21, r7
    243c:	f6 01       	movw	r30, r12
    243e:	20 8f       	std	Z+24, r18	; 0x18
    2440:	31 8f       	std	Z+25, r19	; 0x19
    2442:	42 8f       	std	Z+26, r20	; 0x1a
    2444:	53 8f       	std	Z+27, r21	; 0x1b
    2446:	01 e0       	ldi	r16, 0x01	; 1
    2448:	10 e0       	ldi	r17, 0x00	; 0
    244a:	b1 01       	movw	r22, r2
    244c:	f4 01       	movw	r30, r8
    244e:	81 81       	ldd	r24, Z+1	; 0x01
    2450:	0e 94 d4 1b 	call	0x37a8	; 0x37a8 <disk_read>
    2454:	81 11       	cpse	r24, r1
    2456:	05 c0       	rjmp	.+10     	; 0x2462 <f_open+0x32e>
    2458:	06 c0       	rjmp	.+12     	; 0x2466 <f_open+0x332>
    245a:	68 94       	set
    245c:	ff 24       	eor	r15, r15
    245e:	f1 f8       	bld	r15, 1
    2460:	02 c0       	rjmp	.+4      	; 0x2466 <f_open+0x332>
    2462:	ff 24       	eor	r15, r15
    2464:	f3 94       	inc	r15
    2466:	ff 20       	and	r15, r15
    2468:	39 f0       	breq	.+14     	; 0x2478 <f_open+0x344>
    246a:	f6 01       	movw	r30, r12
    246c:	10 82       	st	Z, r1
    246e:	11 82       	std	Z+1, r1	; 0x01
    2470:	8f 2d       	mov	r24, r15
    2472:	03 c0       	rjmp	.+6      	; 0x247a <f_open+0x346>
    2474:	89 e0       	ldi	r24, 0x09	; 9
    2476:	01 c0       	rjmp	.+2      	; 0x247a <f_open+0x346>
    2478:	8f 2d       	mov	r24, r15
    247a:	ac 96       	adiw	r28, 0x2c	; 44
    247c:	cd bf       	out	0x3d, r28	; 61
    247e:	de bf       	out	0x3e, r29	; 62
    2480:	df 91       	pop	r29
    2482:	cf 91       	pop	r28
    2484:	1f 91       	pop	r17
    2486:	0f 91       	pop	r16
    2488:	ff 90       	pop	r15
    248a:	ef 90       	pop	r14
    248c:	df 90       	pop	r13
    248e:	cf 90       	pop	r12
    2490:	bf 90       	pop	r11
    2492:	af 90       	pop	r10
    2494:	9f 90       	pop	r9
    2496:	8f 90       	pop	r8
    2498:	7f 90       	pop	r7
    249a:	6f 90       	pop	r6
    249c:	5f 90       	pop	r5
    249e:	4f 90       	pop	r4
    24a0:	3f 90       	pop	r3
    24a2:	2f 90       	pop	r2
    24a4:	08 95       	ret

000024a6 <f_write>:
    24a6:	2f 92       	push	r2
    24a8:	3f 92       	push	r3
    24aa:	4f 92       	push	r4
    24ac:	5f 92       	push	r5
    24ae:	6f 92       	push	r6
    24b0:	7f 92       	push	r7
    24b2:	8f 92       	push	r8
    24b4:	9f 92       	push	r9
    24b6:	af 92       	push	r10
    24b8:	bf 92       	push	r11
    24ba:	cf 92       	push	r12
    24bc:	df 92       	push	r13
    24be:	ef 92       	push	r14
    24c0:	ff 92       	push	r15
    24c2:	0f 93       	push	r16
    24c4:	1f 93       	push	r17
    24c6:	cf 93       	push	r28
    24c8:	df 93       	push	r29
    24ca:	cd b7       	in	r28, 0x3d	; 61
    24cc:	de b7       	in	r29, 0x3e	; 62
    24ce:	28 97       	sbiw	r28, 0x08	; 8
    24d0:	cd bf       	out	0x3d, r28	; 61
    24d2:	de bf       	out	0x3e, r29	; 62
    24d4:	7c 01       	movw	r14, r24
    24d6:	4b 01       	movw	r8, r22
    24d8:	6a 01       	movw	r12, r20
    24da:	59 01       	movw	r10, r18
    24dc:	d9 01       	movw	r26, r18
    24de:	1d 92       	st	X+, r1
    24e0:	1c 92       	st	X, r1
    24e2:	8f 83       	std	Y+7, r24	; 0x07
    24e4:	f8 86       	std	Y+8, r15	; 0x08
    24e6:	be 01       	movw	r22, r28
    24e8:	6f 5f       	subi	r22, 0xFF	; 255
    24ea:	7f 4f       	sbci	r23, 0xFF	; 255
    24ec:	0e 94 92 04 	call	0x924	; 0x924 <validate>
    24f0:	81 11       	cpse	r24, r1
    24f2:	87 c1       	rjmp	.+782    	; 0x2802 <f_write+0x35c>
    24f4:	f7 01       	movw	r30, r14
    24f6:	87 85       	ldd	r24, Z+15	; 0x0f
    24f8:	81 11       	cpse	r24, r1
    24fa:	83 c1       	rjmp	.+774    	; 0x2802 <f_write+0x35c>
    24fc:	86 85       	ldd	r24, Z+14	; 0x0e
    24fe:	81 ff       	sbrs	r24, 1
    2500:	7f c1       	rjmp	.+766    	; 0x2800 <f_write+0x35a>
    2502:	80 89       	ldd	r24, Z+16	; 0x10
    2504:	91 89       	ldd	r25, Z+17	; 0x11
    2506:	a2 89       	ldd	r26, Z+18	; 0x12
    2508:	b3 89       	ldd	r27, Z+19	; 0x13
    250a:	ac 01       	movw	r20, r24
    250c:	bd 01       	movw	r22, r26
    250e:	4c 0d       	add	r20, r12
    2510:	5d 1d       	adc	r21, r13
    2512:	61 1d       	adc	r22, r1
    2514:	71 1d       	adc	r23, r1
    2516:	48 17       	cp	r20, r24
    2518:	59 07       	cpc	r21, r25
    251a:	6a 07       	cpc	r22, r26
    251c:	7b 07       	cpc	r23, r27
    251e:	08 f0       	brcs	.+2      	; 0x2522 <f_write+0x7c>
    2520:	62 c1       	rjmp	.+708    	; 0x27e6 <f_write+0x340>
    2522:	6c 01       	movw	r12, r24
    2524:	c0 94       	com	r12
    2526:	d0 94       	com	r13
    2528:	5e c1       	rjmp	.+700    	; 0x27e6 <f_write+0x340>
    252a:	f7 01       	movw	r30, r14
    252c:	80 89       	ldd	r24, Z+16	; 0x10
    252e:	91 89       	ldd	r25, Z+17	; 0x11
    2530:	a2 89       	ldd	r26, Z+18	; 0x12
    2532:	b3 89       	ldd	r27, Z+19	; 0x13
    2534:	ac 01       	movw	r20, r24
    2536:	bd 01       	movw	r22, r26
    2538:	51 70       	andi	r21, 0x01	; 1
    253a:	66 27       	eor	r22, r22
    253c:	77 27       	eor	r23, r23
    253e:	45 2b       	or	r20, r21
    2540:	46 2b       	or	r20, r22
    2542:	47 2b       	or	r20, r23
    2544:	09 f0       	breq	.+2      	; 0x2548 <f_write+0xa2>
    2546:	08 c1       	rjmp	.+528    	; 0x2758 <f_write+0x2b2>
    2548:	e9 81       	ldd	r30, Y+1	; 0x01
    254a:	fa 81       	ldd	r31, Y+2	; 0x02
    254c:	61 84       	ldd	r6, Z+9	; 0x09
    254e:	72 84       	ldd	r7, Z+10	; 0x0a
    2550:	f1 e0       	ldi	r31, 0x01	; 1
    2552:	6f 1a       	sub	r6, r31
    2554:	71 08       	sbc	r7, r1
    2556:	ac 01       	movw	r20, r24
    2558:	bd 01       	movw	r22, r26
    255a:	03 2e       	mov	r0, r19
    255c:	39 e0       	ldi	r19, 0x09	; 9
    255e:	76 95       	lsr	r23
    2560:	67 95       	ror	r22
    2562:	57 95       	ror	r21
    2564:	47 95       	ror	r20
    2566:	3a 95       	dec	r19
    2568:	d1 f7       	brne	.-12     	; 0x255e <f_write+0xb8>
    256a:	30 2d       	mov	r19, r0
    256c:	64 22       	and	r6, r20
    256e:	75 22       	and	r7, r21
    2570:	61 14       	cp	r6, r1
    2572:	71 04       	cpc	r7, r1
    2574:	09 f0       	breq	.+2      	; 0x2578 <f_write+0xd2>
    2576:	51 c0       	rjmp	.+162    	; 0x261a <f_write+0x174>
    2578:	89 2b       	or	r24, r25
    257a:	8a 2b       	or	r24, r26
    257c:	8b 2b       	or	r24, r27
    257e:	a1 f4       	brne	.+40     	; 0x25a8 <f_write+0x102>
    2580:	d7 01       	movw	r26, r14
    2582:	16 96       	adiw	r26, 0x06	; 6
    2584:	6d 91       	ld	r22, X+
    2586:	7d 91       	ld	r23, X+
    2588:	8d 91       	ld	r24, X+
    258a:	9c 91       	ld	r25, X
    258c:	19 97       	sbiw	r26, 0x09	; 9
    258e:	61 15       	cp	r22, r1
    2590:	71 05       	cpc	r23, r1
    2592:	81 05       	cpc	r24, r1
    2594:	91 05       	cpc	r25, r1
    2596:	89 f4       	brne	.+34     	; 0x25ba <f_write+0x114>
    2598:	40 e0       	ldi	r20, 0x00	; 0
    259a:	50 e0       	ldi	r21, 0x00	; 0
    259c:	ba 01       	movw	r22, r20
    259e:	8f 81       	ldd	r24, Y+7	; 0x07
    25a0:	98 85       	ldd	r25, Y+8	; 0x08
    25a2:	0e 94 67 0b 	call	0x16ce	; 0x16ce <create_chain>
    25a6:	09 c0       	rjmp	.+18     	; 0x25ba <f_write+0x114>
    25a8:	f7 01       	movw	r30, r14
    25aa:	44 89       	ldd	r20, Z+20	; 0x14
    25ac:	55 89       	ldd	r21, Z+21	; 0x15
    25ae:	66 89       	ldd	r22, Z+22	; 0x16
    25b0:	77 89       	ldd	r23, Z+23	; 0x17
    25b2:	8f 81       	ldd	r24, Y+7	; 0x07
    25b4:	98 85       	ldd	r25, Y+8	; 0x08
    25b6:	0e 94 67 0b 	call	0x16ce	; 0x16ce <create_chain>
    25ba:	61 15       	cp	r22, r1
    25bc:	71 05       	cpc	r23, r1
    25be:	81 05       	cpc	r24, r1
    25c0:	91 05       	cpc	r25, r1
    25c2:	09 f4       	brne	.+2      	; 0x25c6 <f_write+0x120>
    25c4:	14 c1       	rjmp	.+552    	; 0x27ee <f_write+0x348>
    25c6:	61 30       	cpi	r22, 0x01	; 1
    25c8:	71 05       	cpc	r23, r1
    25ca:	81 05       	cpc	r24, r1
    25cc:	91 05       	cpc	r25, r1
    25ce:	29 f4       	brne	.+10     	; 0x25da <f_write+0x134>
    25d0:	82 e0       	ldi	r24, 0x02	; 2
    25d2:	d7 01       	movw	r26, r14
    25d4:	1f 96       	adiw	r26, 0x0f	; 15
    25d6:	8c 93       	st	X, r24
    25d8:	14 c1       	rjmp	.+552    	; 0x2802 <f_write+0x35c>
    25da:	6f 3f       	cpi	r22, 0xFF	; 255
    25dc:	bf ef       	ldi	r27, 0xFF	; 255
    25de:	7b 07       	cpc	r23, r27
    25e0:	8b 07       	cpc	r24, r27
    25e2:	9b 07       	cpc	r25, r27
    25e4:	21 f4       	brne	.+8      	; 0x25ee <f_write+0x148>
    25e6:	81 e0       	ldi	r24, 0x01	; 1
    25e8:	f7 01       	movw	r30, r14
    25ea:	87 87       	std	Z+15, r24	; 0x0f
    25ec:	0a c1       	rjmp	.+532    	; 0x2802 <f_write+0x35c>
    25ee:	d7 01       	movw	r26, r14
    25f0:	54 96       	adiw	r26, 0x14	; 20
    25f2:	6d 93       	st	X+, r22
    25f4:	7d 93       	st	X+, r23
    25f6:	8d 93       	st	X+, r24
    25f8:	9c 93       	st	X, r25
    25fa:	57 97       	sbiw	r26, 0x17	; 23
    25fc:	16 96       	adiw	r26, 0x06	; 6
    25fe:	0d 91       	ld	r16, X+
    2600:	1d 91       	ld	r17, X+
    2602:	2d 91       	ld	r18, X+
    2604:	3c 91       	ld	r19, X
    2606:	19 97       	sbiw	r26, 0x09	; 9
    2608:	01 2b       	or	r16, r17
    260a:	02 2b       	or	r16, r18
    260c:	03 2b       	or	r16, r19
    260e:	29 f4       	brne	.+10     	; 0x261a <f_write+0x174>
    2610:	f7 01       	movw	r30, r14
    2612:	66 83       	std	Z+6, r22	; 0x06
    2614:	77 83       	std	Z+7, r23	; 0x07
    2616:	80 87       	std	Z+8, r24	; 0x08
    2618:	91 87       	std	Z+9, r25	; 0x09
    261a:	d7 01       	movw	r26, r14
    261c:	1e 96       	adiw	r26, 0x0e	; 14
    261e:	8c 91       	ld	r24, X
    2620:	1e 97       	sbiw	r26, 0x0e	; 14
    2622:	88 23       	and	r24, r24
    2624:	ec f4       	brge	.+58     	; 0x2660 <f_write+0x1ba>
    2626:	e9 81       	ldd	r30, Y+1	; 0x01
    2628:	fa 81       	ldd	r31, Y+2	; 0x02
    262a:	58 96       	adiw	r26, 0x18	; 24
    262c:	2d 91       	ld	r18, X+
    262e:	3d 91       	ld	r19, X+
    2630:	4d 91       	ld	r20, X+
    2632:	5c 91       	ld	r21, X
    2634:	5b 97       	sbiw	r26, 0x1b	; 27
    2636:	01 e0       	ldi	r16, 0x01	; 1
    2638:	10 e0       	ldi	r17, 0x00	; 0
    263a:	b7 01       	movw	r22, r14
    263c:	6e 5d       	subi	r22, 0xDE	; 222
    263e:	7f 4f       	sbci	r23, 0xFF	; 255
    2640:	81 81       	ldd	r24, Z+1	; 0x01
    2642:	0e 94 df 1b 	call	0x37be	; 0x37be <disk_write>
    2646:	88 23       	and	r24, r24
    2648:	21 f0       	breq	.+8      	; 0x2652 <f_write+0x1ac>
    264a:	81 e0       	ldi	r24, 0x01	; 1
    264c:	f7 01       	movw	r30, r14
    264e:	87 87       	std	Z+15, r24	; 0x0f
    2650:	d8 c0       	rjmp	.+432    	; 0x2802 <f_write+0x35c>
    2652:	d7 01       	movw	r26, r14
    2654:	1e 96       	adiw	r26, 0x0e	; 14
    2656:	8c 91       	ld	r24, X
    2658:	1e 97       	sbiw	r26, 0x0e	; 14
    265a:	8f 77       	andi	r24, 0x7F	; 127
    265c:	1e 96       	adiw	r26, 0x0e	; 14
    265e:	8c 93       	st	X, r24
    2660:	f7 01       	movw	r30, r14
    2662:	44 89       	ldd	r20, Z+20	; 0x14
    2664:	55 89       	ldd	r21, Z+21	; 0x15
    2666:	66 89       	ldd	r22, Z+22	; 0x16
    2668:	77 89       	ldd	r23, Z+23	; 0x17
    266a:	89 81       	ldd	r24, Y+1	; 0x01
    266c:	9a 81       	ldd	r25, Y+2	; 0x02
    266e:	8d 83       	std	Y+5, r24	; 0x05
    2670:	9e 83       	std	Y+6, r25	; 0x06
    2672:	0e 94 d2 02 	call	0x5a4	; 0x5a4 <clst2sect>
    2676:	61 15       	cp	r22, r1
    2678:	71 05       	cpc	r23, r1
    267a:	81 05       	cpc	r24, r1
    267c:	91 05       	cpc	r25, r1
    267e:	29 f4       	brne	.+10     	; 0x268a <f_write+0x1e4>
    2680:	82 e0       	ldi	r24, 0x02	; 2
    2682:	d7 01       	movw	r26, r14
    2684:	1f 96       	adiw	r26, 0x0f	; 15
    2686:	8c 93       	st	X, r24
    2688:	bc c0       	rjmp	.+376    	; 0x2802 <f_write+0x35c>
    268a:	1b 01       	movw	r2, r22
    268c:	2c 01       	movw	r4, r24
    268e:	26 0c       	add	r2, r6
    2690:	37 1c       	adc	r3, r7
    2692:	41 1c       	adc	r4, r1
    2694:	51 1c       	adc	r5, r1
    2696:	f6 01       	movw	r30, r12
    2698:	ef 2f       	mov	r30, r31
    269a:	ff 27       	eor	r31, r31
    269c:	e6 95       	lsr	r30
    269e:	eb 83       	std	Y+3, r30	; 0x03
    26a0:	fc 83       	std	Y+4, r31	; 0x04
    26a2:	30 97       	sbiw	r30, 0x00	; 0
    26a4:	41 f1       	breq	.+80     	; 0x26f6 <f_write+0x250>
    26a6:	ad 81       	ldd	r26, Y+5	; 0x05
    26a8:	be 81       	ldd	r27, Y+6	; 0x06
    26aa:	19 96       	adiw	r26, 0x09	; 9
    26ac:	2d 91       	ld	r18, X+
    26ae:	3c 91       	ld	r19, X
    26b0:	1a 97       	sbiw	r26, 0x0a	; 10
    26b2:	cf 01       	movw	r24, r30
    26b4:	86 0d       	add	r24, r6
    26b6:	97 1d       	adc	r25, r7
    26b8:	28 17       	cp	r18, r24
    26ba:	39 07       	cpc	r19, r25
    26bc:	28 f4       	brcc	.+10     	; 0x26c8 <f_write+0x222>
    26be:	f9 01       	movw	r30, r18
    26c0:	e6 19       	sub	r30, r6
    26c2:	f7 09       	sbc	r31, r7
    26c4:	eb 83       	std	Y+3, r30	; 0x03
    26c6:	fc 83       	std	Y+4, r31	; 0x04
    26c8:	0b 81       	ldd	r16, Y+3	; 0x03
    26ca:	1c 81       	ldd	r17, Y+4	; 0x04
    26cc:	a2 01       	movw	r20, r4
    26ce:	91 01       	movw	r18, r2
    26d0:	b4 01       	movw	r22, r8
    26d2:	ad 81       	ldd	r26, Y+5	; 0x05
    26d4:	be 81       	ldd	r27, Y+6	; 0x06
    26d6:	11 96       	adiw	r26, 0x01	; 1
    26d8:	8c 91       	ld	r24, X
    26da:	0e 94 df 1b 	call	0x37be	; 0x37be <disk_write>
    26de:	88 23       	and	r24, r24
    26e0:	21 f0       	breq	.+8      	; 0x26ea <f_write+0x244>
    26e2:	81 e0       	ldi	r24, 0x01	; 1
    26e4:	f7 01       	movw	r30, r14
    26e6:	87 87       	std	Z+15, r24	; 0x0f
    26e8:	8c c0       	rjmp	.+280    	; 0x2802 <f_write+0x35c>
    26ea:	6b 80       	ldd	r6, Y+3	; 0x03
    26ec:	7c 80       	ldd	r7, Y+4	; 0x04
    26ee:	76 2c       	mov	r7, r6
    26f0:	66 24       	eor	r6, r6
    26f2:	77 0c       	add	r7, r7
    26f4:	50 c0       	rjmp	.+160    	; 0x2796 <f_write+0x2f0>
    26f6:	f7 01       	movw	r30, r14
    26f8:	80 8d       	ldd	r24, Z+24	; 0x18
    26fa:	91 8d       	ldd	r25, Z+25	; 0x19
    26fc:	a2 8d       	ldd	r26, Z+26	; 0x1a
    26fe:	b3 8d       	ldd	r27, Z+27	; 0x1b
    2700:	28 16       	cp	r2, r24
    2702:	39 06       	cpc	r3, r25
    2704:	4a 06       	cpc	r4, r26
    2706:	5b 06       	cpc	r5, r27
    2708:	01 f1       	breq	.+64     	; 0x274a <f_write+0x2a4>
    270a:	40 89       	ldd	r20, Z+16	; 0x10
    270c:	51 89       	ldd	r21, Z+17	; 0x11
    270e:	62 89       	ldd	r22, Z+18	; 0x12
    2710:	73 89       	ldd	r23, Z+19	; 0x13
    2712:	82 85       	ldd	r24, Z+10	; 0x0a
    2714:	93 85       	ldd	r25, Z+11	; 0x0b
    2716:	a4 85       	ldd	r26, Z+12	; 0x0c
    2718:	b5 85       	ldd	r27, Z+13	; 0x0d
    271a:	48 17       	cp	r20, r24
    271c:	59 07       	cpc	r21, r25
    271e:	6a 07       	cpc	r22, r26
    2720:	7b 07       	cpc	r23, r27
    2722:	98 f4       	brcc	.+38     	; 0x274a <f_write+0x2a4>
    2724:	01 e0       	ldi	r16, 0x01	; 1
    2726:	10 e0       	ldi	r17, 0x00	; 0
    2728:	a2 01       	movw	r20, r4
    272a:	91 01       	movw	r18, r2
    272c:	b7 01       	movw	r22, r14
    272e:	6e 5d       	subi	r22, 0xDE	; 222
    2730:	7f 4f       	sbci	r23, 0xFF	; 255
    2732:	ad 81       	ldd	r26, Y+5	; 0x05
    2734:	be 81       	ldd	r27, Y+6	; 0x06
    2736:	11 96       	adiw	r26, 0x01	; 1
    2738:	8c 91       	ld	r24, X
    273a:	0e 94 d4 1b 	call	0x37a8	; 0x37a8 <disk_read>
    273e:	88 23       	and	r24, r24
    2740:	21 f0       	breq	.+8      	; 0x274a <f_write+0x2a4>
    2742:	81 e0       	ldi	r24, 0x01	; 1
    2744:	f7 01       	movw	r30, r14
    2746:	87 87       	std	Z+15, r24	; 0x0f
    2748:	5c c0       	rjmp	.+184    	; 0x2802 <f_write+0x35c>
    274a:	d7 01       	movw	r26, r14
    274c:	58 96       	adiw	r26, 0x18	; 24
    274e:	2d 92       	st	X+, r2
    2750:	3d 92       	st	X+, r3
    2752:	4d 92       	st	X+, r4
    2754:	5c 92       	st	X, r5
    2756:	5b 97       	sbiw	r26, 0x1b	; 27
    2758:	f7 01       	movw	r30, r14
    275a:	80 89       	ldd	r24, Z+16	; 0x10
    275c:	91 89       	ldd	r25, Z+17	; 0x11
    275e:	a2 89       	ldd	r26, Z+18	; 0x12
    2760:	b3 89       	ldd	r27, Z+19	; 0x13
    2762:	91 70       	andi	r25, 0x01	; 1
    2764:	20 e0       	ldi	r18, 0x00	; 0
    2766:	32 e0       	ldi	r19, 0x02	; 2
    2768:	39 01       	movw	r6, r18
    276a:	68 1a       	sub	r6, r24
    276c:	79 0a       	sbc	r7, r25
    276e:	c6 14       	cp	r12, r6
    2770:	d7 04       	cpc	r13, r7
    2772:	08 f4       	brcc	.+2      	; 0x2776 <f_write+0x2d0>
    2774:	36 01       	movw	r6, r12
    2776:	a3 01       	movw	r20, r6
    2778:	b4 01       	movw	r22, r8
    277a:	97 01       	movw	r18, r14
    277c:	2e 5d       	subi	r18, 0xDE	; 222
    277e:	3f 4f       	sbci	r19, 0xFF	; 255
    2780:	82 0f       	add	r24, r18
    2782:	93 1f       	adc	r25, r19
    2784:	0e 94 65 02 	call	0x4ca	; 0x4ca <mem_cpy>
    2788:	d7 01       	movw	r26, r14
    278a:	1e 96       	adiw	r26, 0x0e	; 14
    278c:	8c 91       	ld	r24, X
    278e:	1e 97       	sbiw	r26, 0x0e	; 14
    2790:	80 68       	ori	r24, 0x80	; 128
    2792:	1e 96       	adiw	r26, 0x0e	; 14
    2794:	8c 93       	st	X, r24
    2796:	c6 18       	sub	r12, r6
    2798:	d7 08       	sbc	r13, r7
    279a:	f5 01       	movw	r30, r10
    279c:	80 81       	ld	r24, Z
    279e:	91 81       	ldd	r25, Z+1	; 0x01
    27a0:	86 0d       	add	r24, r6
    27a2:	97 1d       	adc	r25, r7
    27a4:	80 83       	st	Z, r24
    27a6:	91 83       	std	Z+1, r25	; 0x01
    27a8:	86 0c       	add	r8, r6
    27aa:	97 1c       	adc	r9, r7
    27ac:	f7 01       	movw	r30, r14
    27ae:	80 89       	ldd	r24, Z+16	; 0x10
    27b0:	91 89       	ldd	r25, Z+17	; 0x11
    27b2:	a2 89       	ldd	r26, Z+18	; 0x12
    27b4:	b3 89       	ldd	r27, Z+19	; 0x13
    27b6:	86 0d       	add	r24, r6
    27b8:	97 1d       	adc	r25, r7
    27ba:	a1 1d       	adc	r26, r1
    27bc:	b1 1d       	adc	r27, r1
    27be:	80 8b       	std	Z+16, r24	; 0x10
    27c0:	91 8b       	std	Z+17, r25	; 0x11
    27c2:	a2 8b       	std	Z+18, r26	; 0x12
    27c4:	b3 8b       	std	Z+19, r27	; 0x13
    27c6:	42 85       	ldd	r20, Z+10	; 0x0a
    27c8:	53 85       	ldd	r21, Z+11	; 0x0b
    27ca:	64 85       	ldd	r22, Z+12	; 0x0c
    27cc:	75 85       	ldd	r23, Z+13	; 0x0d
    27ce:	84 17       	cp	r24, r20
    27d0:	95 07       	cpc	r25, r21
    27d2:	a6 07       	cpc	r26, r22
    27d4:	b7 07       	cpc	r27, r23
    27d6:	10 f4       	brcc	.+4      	; 0x27dc <f_write+0x336>
    27d8:	db 01       	movw	r26, r22
    27da:	ca 01       	movw	r24, r20
    27dc:	f7 01       	movw	r30, r14
    27de:	82 87       	std	Z+10, r24	; 0x0a
    27e0:	93 87       	std	Z+11, r25	; 0x0b
    27e2:	a4 87       	std	Z+12, r26	; 0x0c
    27e4:	b5 87       	std	Z+13, r27	; 0x0d
    27e6:	c1 14       	cp	r12, r1
    27e8:	d1 04       	cpc	r13, r1
    27ea:	09 f0       	breq	.+2      	; 0x27ee <f_write+0x348>
    27ec:	9e ce       	rjmp	.-708    	; 0x252a <f_write+0x84>
    27ee:	d7 01       	movw	r26, r14
    27f0:	1e 96       	adiw	r26, 0x0e	; 14
    27f2:	8c 91       	ld	r24, X
    27f4:	1e 97       	sbiw	r26, 0x0e	; 14
    27f6:	80 64       	ori	r24, 0x40	; 64
    27f8:	1e 96       	adiw	r26, 0x0e	; 14
    27fa:	8c 93       	st	X, r24
    27fc:	80 e0       	ldi	r24, 0x00	; 0
    27fe:	01 c0       	rjmp	.+2      	; 0x2802 <f_write+0x35c>
    2800:	87 e0       	ldi	r24, 0x07	; 7
    2802:	28 96       	adiw	r28, 0x08	; 8
    2804:	cd bf       	out	0x3d, r28	; 61
    2806:	de bf       	out	0x3e, r29	; 62
    2808:	df 91       	pop	r29
    280a:	cf 91       	pop	r28
    280c:	1f 91       	pop	r17
    280e:	0f 91       	pop	r16
    2810:	ff 90       	pop	r15
    2812:	ef 90       	pop	r14
    2814:	df 90       	pop	r13
    2816:	cf 90       	pop	r12
    2818:	bf 90       	pop	r11
    281a:	af 90       	pop	r10
    281c:	9f 90       	pop	r9
    281e:	8f 90       	pop	r8
    2820:	7f 90       	pop	r7
    2822:	6f 90       	pop	r6
    2824:	5f 90       	pop	r5
    2826:	4f 90       	pop	r4
    2828:	3f 90       	pop	r3
    282a:	2f 90       	pop	r2
    282c:	08 95       	ret

0000282e <putc_bfd>:
    282e:	ef 92       	push	r14
    2830:	ff 92       	push	r15
    2832:	0f 93       	push	r16
    2834:	1f 93       	push	r17
    2836:	cf 93       	push	r28
    2838:	df 93       	push	r29
    283a:	00 d0       	rcall	.+0      	; 0x283c <putc_bfd+0xe>
    283c:	cd b7       	in	r28, 0x3d	; 61
    283e:	de b7       	in	r29, 0x3e	; 62
    2840:	fc 01       	movw	r30, r24
    2842:	22 81       	ldd	r18, Z+2	; 0x02
    2844:	33 81       	ldd	r19, Z+3	; 0x03
    2846:	33 23       	and	r19, r19
    2848:	64 f1       	brlt	.+88     	; 0x28a2 <putc_bfd+0x74>
    284a:	8c 01       	movw	r16, r24
    284c:	79 01       	movw	r14, r18
    284e:	ff ef       	ldi	r31, 0xFF	; 255
    2850:	ef 1a       	sub	r14, r31
    2852:	ff 0a       	sbc	r15, r31
    2854:	fc 01       	movw	r30, r24
    2856:	e2 0f       	add	r30, r18
    2858:	f3 1f       	adc	r31, r19
    285a:	66 83       	std	Z+6, r22	; 0x06
    285c:	8d e3       	ldi	r24, 0x3D	; 61
    285e:	e8 16       	cp	r14, r24
    2860:	f1 04       	cpc	r15, r1
    2862:	bc f0       	brlt	.+46     	; 0x2892 <putc_bfd+0x64>
    2864:	9e 01       	movw	r18, r28
    2866:	2f 5f       	subi	r18, 0xFF	; 255
    2868:	3f 4f       	sbci	r19, 0xFF	; 255
    286a:	a7 01       	movw	r20, r14
    286c:	b8 01       	movw	r22, r16
    286e:	6a 5f       	subi	r22, 0xFA	; 250
    2870:	7f 4f       	sbci	r23, 0xFF	; 255
    2872:	f8 01       	movw	r30, r16
    2874:	80 81       	ld	r24, Z
    2876:	91 81       	ldd	r25, Z+1	; 0x01
    2878:	0e 94 53 12 	call	0x24a6	; 0x24a6 <f_write>
    287c:	89 81       	ldd	r24, Y+1	; 0x01
    287e:	9a 81       	ldd	r25, Y+2	; 0x02
    2880:	e8 16       	cp	r14, r24
    2882:	f9 06       	cpc	r15, r25
    2884:	19 f4       	brne	.+6      	; 0x288c <putc_bfd+0x5e>
    2886:	e1 2c       	mov	r14, r1
    2888:	f1 2c       	mov	r15, r1
    288a:	03 c0       	rjmp	.+6      	; 0x2892 <putc_bfd+0x64>
    288c:	ee 24       	eor	r14, r14
    288e:	ea 94       	dec	r14
    2890:	fe 2c       	mov	r15, r14
    2892:	f8 01       	movw	r30, r16
    2894:	e2 82       	std	Z+2, r14	; 0x02
    2896:	f3 82       	std	Z+3, r15	; 0x03
    2898:	84 81       	ldd	r24, Z+4	; 0x04
    289a:	95 81       	ldd	r25, Z+5	; 0x05
    289c:	01 96       	adiw	r24, 0x01	; 1
    289e:	84 83       	std	Z+4, r24	; 0x04
    28a0:	95 83       	std	Z+5, r25	; 0x05
    28a2:	0f 90       	pop	r0
    28a4:	0f 90       	pop	r0
    28a6:	df 91       	pop	r29
    28a8:	cf 91       	pop	r28
    28aa:	1f 91       	pop	r17
    28ac:	0f 91       	pop	r16
    28ae:	ff 90       	pop	r15
    28b0:	ef 90       	pop	r14
    28b2:	08 95       	ret

000028b4 <putc_flush>:
    28b4:	0f 93       	push	r16
    28b6:	1f 93       	push	r17
    28b8:	cf 93       	push	r28
    28ba:	df 93       	push	r29
    28bc:	00 d0       	rcall	.+0      	; 0x28be <putc_flush+0xa>
    28be:	cd b7       	in	r28, 0x3d	; 61
    28c0:	de b7       	in	r29, 0x3e	; 62
    28c2:	fc 01       	movw	r30, r24
    28c4:	42 81       	ldd	r20, Z+2	; 0x02
    28c6:	53 81       	ldd	r21, Z+3	; 0x03
    28c8:	55 23       	and	r21, r21
    28ca:	c4 f0       	brlt	.+48     	; 0x28fc <putc_flush+0x48>
    28cc:	8c 01       	movw	r16, r24
    28ce:	bc 01       	movw	r22, r24
    28d0:	6a 5f       	subi	r22, 0xFA	; 250
    28d2:	7f 4f       	sbci	r23, 0xFF	; 255
    28d4:	9e 01       	movw	r18, r28
    28d6:	2f 5f       	subi	r18, 0xFF	; 255
    28d8:	3f 4f       	sbci	r19, 0xFF	; 255
    28da:	80 81       	ld	r24, Z
    28dc:	91 81       	ldd	r25, Z+1	; 0x01
    28de:	0e 94 53 12 	call	0x24a6	; 0x24a6 <f_write>
    28e2:	81 11       	cpse	r24, r1
    28e4:	0e c0       	rjmp	.+28     	; 0x2902 <putc_flush+0x4e>
    28e6:	f8 01       	movw	r30, r16
    28e8:	22 81       	ldd	r18, Z+2	; 0x02
    28ea:	33 81       	ldd	r19, Z+3	; 0x03
    28ec:	89 81       	ldd	r24, Y+1	; 0x01
    28ee:	9a 81       	ldd	r25, Y+2	; 0x02
    28f0:	28 17       	cp	r18, r24
    28f2:	39 07       	cpc	r19, r25
    28f4:	49 f4       	brne	.+18     	; 0x2908 <putc_flush+0x54>
    28f6:	84 81       	ldd	r24, Z+4	; 0x04
    28f8:	95 81       	ldd	r25, Z+5	; 0x05
    28fa:	08 c0       	rjmp	.+16     	; 0x290c <putc_flush+0x58>
    28fc:	8f ef       	ldi	r24, 0xFF	; 255
    28fe:	9f ef       	ldi	r25, 0xFF	; 255
    2900:	05 c0       	rjmp	.+10     	; 0x290c <putc_flush+0x58>
    2902:	8f ef       	ldi	r24, 0xFF	; 255
    2904:	9f ef       	ldi	r25, 0xFF	; 255
    2906:	02 c0       	rjmp	.+4      	; 0x290c <putc_flush+0x58>
    2908:	8f ef       	ldi	r24, 0xFF	; 255
    290a:	9f ef       	ldi	r25, 0xFF	; 255
    290c:	0f 90       	pop	r0
    290e:	0f 90       	pop	r0
    2910:	df 91       	pop	r29
    2912:	cf 91       	pop	r28
    2914:	1f 91       	pop	r17
    2916:	0f 91       	pop	r16
    2918:	08 95       	ret

0000291a <f_sync>:
    291a:	8f 92       	push	r8
    291c:	9f 92       	push	r9
    291e:	af 92       	push	r10
    2920:	bf 92       	push	r11
    2922:	ef 92       	push	r14
    2924:	ff 92       	push	r15
    2926:	0f 93       	push	r16
    2928:	1f 93       	push	r17
    292a:	cf 93       	push	r28
    292c:	df 93       	push	r29
    292e:	00 d0       	rcall	.+0      	; 0x2930 <f_sync+0x16>
    2930:	cd b7       	in	r28, 0x3d	; 61
    2932:	de b7       	in	r29, 0x3e	; 62
    2934:	7c 01       	movw	r14, r24
    2936:	be 01       	movw	r22, r28
    2938:	6f 5f       	subi	r22, 0xFF	; 255
    293a:	7f 4f       	sbci	r23, 0xFF	; 255
    293c:	0e 94 92 04 	call	0x924	; 0x924 <validate>
    2940:	81 11       	cpse	r24, r1
    2942:	65 c0       	rjmp	.+202    	; 0x2a0e <f_sync+0xf4>
    2944:	d7 01       	movw	r26, r14
    2946:	1e 96       	adiw	r26, 0x0e	; 14
    2948:	9c 91       	ld	r25, X
    294a:	1e 97       	sbiw	r26, 0x0e	; 14
    294c:	96 ff       	sbrs	r25, 6
    294e:	5f c0       	rjmp	.+190    	; 0x2a0e <f_sync+0xf4>
    2950:	99 23       	and	r25, r25
    2952:	b4 f4       	brge	.+44     	; 0x2980 <f_sync+0x66>
    2954:	e9 81       	ldd	r30, Y+1	; 0x01
    2956:	fa 81       	ldd	r31, Y+2	; 0x02
    2958:	58 96       	adiw	r26, 0x18	; 24
    295a:	2d 91       	ld	r18, X+
    295c:	3d 91       	ld	r19, X+
    295e:	4d 91       	ld	r20, X+
    2960:	5c 91       	ld	r21, X
    2962:	5b 97       	sbiw	r26, 0x1b	; 27
    2964:	01 e0       	ldi	r16, 0x01	; 1
    2966:	10 e0       	ldi	r17, 0x00	; 0
    2968:	b7 01       	movw	r22, r14
    296a:	6e 5d       	subi	r22, 0xDE	; 222
    296c:	7f 4f       	sbci	r23, 0xFF	; 255
    296e:	81 81       	ldd	r24, Z+1	; 0x01
    2970:	0e 94 df 1b 	call	0x37be	; 0x37be <disk_write>
    2974:	81 11       	cpse	r24, r1
    2976:	4a c0       	rjmp	.+148    	; 0x2a0c <f_sync+0xf2>
    2978:	f7 01       	movw	r30, r14
    297a:	86 85       	ldd	r24, Z+14	; 0x0e
    297c:	8f 77       	andi	r24, 0x7F	; 127
    297e:	86 87       	std	Z+14, r24	; 0x0e
    2980:	0e 94 ef 1b 	call	0x37de	; 0x37de <get_fattime>
    2984:	4b 01       	movw	r8, r22
    2986:	5c 01       	movw	r10, r24
    2988:	d7 01       	movw	r26, r14
    298a:	5c 96       	adiw	r26, 0x1c	; 28
    298c:	4d 91       	ld	r20, X+
    298e:	5d 91       	ld	r21, X+
    2990:	6d 91       	ld	r22, X+
    2992:	7c 91       	ld	r23, X
    2994:	5f 97       	sbiw	r26, 0x1f	; 31
    2996:	89 81       	ldd	r24, Y+1	; 0x01
    2998:	9a 81       	ldd	r25, Y+2	; 0x02
    299a:	0e 94 21 05 	call	0xa42	; 0xa42 <move_window>
    299e:	81 11       	cpse	r24, r1
    29a0:	36 c0       	rjmp	.+108    	; 0x2a0e <f_sync+0xf4>
    29a2:	f7 01       	movw	r30, r14
    29a4:	00 a1       	ldd	r16, Z+32	; 0x20
    29a6:	11 a1       	ldd	r17, Z+33	; 0x21
    29a8:	d8 01       	movw	r26, r16
    29aa:	1b 96       	adiw	r26, 0x0b	; 11
    29ac:	8c 91       	ld	r24, X
    29ae:	1b 97       	sbiw	r26, 0x0b	; 11
    29b0:	80 62       	ori	r24, 0x20	; 32
    29b2:	1b 96       	adiw	r26, 0x0b	; 11
    29b4:	8c 93       	st	X, r24
    29b6:	26 81       	ldd	r18, Z+6	; 0x06
    29b8:	37 81       	ldd	r19, Z+7	; 0x07
    29ba:	40 85       	ldd	r20, Z+8	; 0x08
    29bc:	51 85       	ldd	r21, Z+9	; 0x09
    29be:	b8 01       	movw	r22, r16
    29c0:	80 81       	ld	r24, Z
    29c2:	91 81       	ldd	r25, Z+1	; 0x01
    29c4:	0e 94 2d 03 	call	0x65a	; 0x65a <st_clust>
    29c8:	f7 01       	movw	r30, r14
    29ca:	42 85       	ldd	r20, Z+10	; 0x0a
    29cc:	53 85       	ldd	r21, Z+11	; 0x0b
    29ce:	64 85       	ldd	r22, Z+12	; 0x0c
    29d0:	75 85       	ldd	r23, Z+13	; 0x0d
    29d2:	c8 01       	movw	r24, r16
    29d4:	4c 96       	adiw	r24, 0x1c	; 28
    29d6:	0e 94 5f 02 	call	0x4be	; 0x4be <st_dword>
    29da:	b5 01       	movw	r22, r10
    29dc:	a4 01       	movw	r20, r8
    29de:	c8 01       	movw	r24, r16
    29e0:	46 96       	adiw	r24, 0x16	; 22
    29e2:	0e 94 5f 02 	call	0x4be	; 0x4be <st_dword>
    29e6:	60 e0       	ldi	r22, 0x00	; 0
    29e8:	70 e0       	ldi	r23, 0x00	; 0
    29ea:	c8 01       	movw	r24, r16
    29ec:	42 96       	adiw	r24, 0x12	; 18
    29ee:	0e 94 5b 02 	call	0x4b6	; 0x4b6 <st_word>
    29f2:	89 81       	ldd	r24, Y+1	; 0x01
    29f4:	9a 81       	ldd	r25, Y+2	; 0x02
    29f6:	21 e0       	ldi	r18, 0x01	; 1
    29f8:	dc 01       	movw	r26, r24
    29fa:	13 96       	adiw	r26, 0x03	; 3
    29fc:	2c 93       	st	X, r18
    29fe:	0e 94 e6 0f 	call	0x1fcc	; 0x1fcc <sync_fs>
    2a02:	f7 01       	movw	r30, r14
    2a04:	96 85       	ldd	r25, Z+14	; 0x0e
    2a06:	9f 7b       	andi	r25, 0xBF	; 191
    2a08:	96 87       	std	Z+14, r25	; 0x0e
    2a0a:	01 c0       	rjmp	.+2      	; 0x2a0e <f_sync+0xf4>
    2a0c:	81 e0       	ldi	r24, 0x01	; 1
    2a0e:	0f 90       	pop	r0
    2a10:	0f 90       	pop	r0
    2a12:	df 91       	pop	r29
    2a14:	cf 91       	pop	r28
    2a16:	1f 91       	pop	r17
    2a18:	0f 91       	pop	r16
    2a1a:	ff 90       	pop	r15
    2a1c:	ef 90       	pop	r14
    2a1e:	bf 90       	pop	r11
    2a20:	af 90       	pop	r10
    2a22:	9f 90       	pop	r9
    2a24:	8f 90       	pop	r8
    2a26:	08 95       	ret

00002a28 <f_close>:
    2a28:	0f 93       	push	r16
    2a2a:	1f 93       	push	r17
    2a2c:	cf 93       	push	r28
    2a2e:	df 93       	push	r29
    2a30:	00 d0       	rcall	.+0      	; 0x2a32 <f_close+0xa>
    2a32:	cd b7       	in	r28, 0x3d	; 61
    2a34:	de b7       	in	r29, 0x3e	; 62
    2a36:	8c 01       	movw	r16, r24
    2a38:	0e 94 8d 14 	call	0x291a	; 0x291a <f_sync>
    2a3c:	81 11       	cpse	r24, r1
    2a3e:	0b c0       	rjmp	.+22     	; 0x2a56 <f_close+0x2e>
    2a40:	be 01       	movw	r22, r28
    2a42:	6f 5f       	subi	r22, 0xFF	; 255
    2a44:	7f 4f       	sbci	r23, 0xFF	; 255
    2a46:	c8 01       	movw	r24, r16
    2a48:	0e 94 92 04 	call	0x924	; 0x924 <validate>
    2a4c:	81 11       	cpse	r24, r1
    2a4e:	03 c0       	rjmp	.+6      	; 0x2a56 <f_close+0x2e>
    2a50:	f8 01       	movw	r30, r16
    2a52:	10 82       	st	Z, r1
    2a54:	11 82       	std	Z+1, r1	; 0x01
    2a56:	0f 90       	pop	r0
    2a58:	0f 90       	pop	r0
    2a5a:	df 91       	pop	r29
    2a5c:	cf 91       	pop	r28
    2a5e:	1f 91       	pop	r17
    2a60:	0f 91       	pop	r16
    2a62:	08 95       	ret

00002a64 <f_puts>:

int f_puts (
	const TCHAR* str,	/* Pointer to the string to be output */
	FIL* fp				/* Pointer to the file object */
)
{
    2a64:	0f 93       	push	r16
    2a66:	1f 93       	push	r17
    2a68:	cf 93       	push	r28
    2a6a:	df 93       	push	r29
    2a6c:	cd b7       	in	r28, 0x3d	; 61
    2a6e:	de b7       	in	r29, 0x3e	; 62
    2a70:	c6 54       	subi	r28, 0x46	; 70
    2a72:	d1 09       	sbc	r29, r1
    2a74:	cd bf       	out	0x3d, r28	; 61
    2a76:	de bf       	out	0x3e, r29	; 62
    2a78:	8c 01       	movw	r16, r24
	putbuff pb;


	putc_init(&pb, fp);
    2a7a:	ce 01       	movw	r24, r28
    2a7c:	01 96       	adiw	r24, 0x01	; 1
    2a7e:	0e 94 8a 04 	call	0x914	; 0x914 <putc_init>
	while (*str) putc_bfd(&pb, *str++);		/* Put the string */
    2a82:	06 c0       	rjmp	.+12     	; 0x2a90 <f_puts+0x2c>
    2a84:	0f 5f       	subi	r16, 0xFF	; 255
    2a86:	1f 4f       	sbci	r17, 0xFF	; 255
    2a88:	ce 01       	movw	r24, r28
    2a8a:	01 96       	adiw	r24, 0x01	; 1
    2a8c:	0e 94 17 14 	call	0x282e	; 0x282e <putc_bfd>
    2a90:	f8 01       	movw	r30, r16
    2a92:	60 81       	ld	r22, Z
    2a94:	61 11       	cpse	r22, r1
    2a96:	f6 cf       	rjmp	.-20     	; 0x2a84 <f_puts+0x20>
	return putc_flush(&pb);
    2a98:	ce 01       	movw	r24, r28
    2a9a:	01 96       	adiw	r24, 0x01	; 1
    2a9c:	0e 94 5a 14 	call	0x28b4	; 0x28b4 <putc_flush>
}
    2aa0:	ca 5b       	subi	r28, 0xBA	; 186
    2aa2:	df 4f       	sbci	r29, 0xFF	; 255
    2aa4:	cd bf       	out	0x3d, r28	; 61
    2aa6:	de bf       	out	0x3e, r29	; 62
    2aa8:	df 91       	pop	r29
    2aaa:	cf 91       	pop	r28
    2aac:	1f 91       	pop	r17
    2aae:	0f 91       	pop	r16
    2ab0:	08 95       	ret

00002ab2 <power_on>:
/* is nothing to do in these functions and chk_power always returns 1.   */

static
void power_on (void)
{
	for (Timer1 = 2; Timer1; ); /* Wait for 20ms 12.09.09 */
    2ab2:	82 e0       	ldi	r24, 0x02	; 2
    2ab4:	80 93 92 61 	sts	0x6192, r24	; 0x806192 <Timer1>
    2ab8:	80 91 92 61 	lds	r24, 0x6192	; 0x806192 <Timer1>
    2abc:	81 11       	cpse	r24, r1
    2abe:	fc cf       	rjmp	.-8      	; 0x2ab8 <power_on+0x6>
	
	PORTC.DIR |= PIN0_bm;  //SPIMiMOSIj
    2ac0:	e0 e4       	ldi	r30, 0x40	; 64
    2ac2:	f4 e0       	ldi	r31, 0x04	; 4
    2ac4:	80 81       	ld	r24, Z
    2ac6:	81 60       	ori	r24, 0x01	; 1
    2ac8:	80 83       	st	Z, r24
	PORTC.DIR &= ~PIN1_bm; //SPIMiMISOj
    2aca:	80 81       	ld	r24, Z
    2acc:	8d 7f       	andi	r24, 0xFD	; 253
    2ace:	80 83       	st	Z, r24
	PORTC.DIR |= PIN2_bm;  //SPIMiSCKj
    2ad0:	80 81       	ld	r24, Z
    2ad2:	84 60       	ori	r24, 0x04	; 4
    2ad4:	80 83       	st	Z, r24
	PORTC.DIR |= PIN3_bm;  //SPIMiCSj
    2ad6:	80 81       	ld	r24, Z
    2ad8:	88 60       	ori	r24, 0x08	; 8
    2ada:	80 83       	st	Z, r24
	PORTC.OUTSET = PIN1_bm; // MISOHi
    2adc:	82 e0       	ldi	r24, 0x02	; 2
    2ade:	85 83       	std	Z+5, r24	; 0x05
	PORTC.OUTSET = PIN2_bm; // SCKHi	
    2ae0:	84 e0       	ldi	r24, 0x04	; 4
    2ae2:	85 83       	std	Z+5, r24	; 0x05
	
	//SPI1.CTRLA |= SPI_ENABLE_bm;  //Enable SPI function

	SPI1.CTRLA =
    2ae4:	e0 e6       	ldi	r30, 0x60	; 96
    2ae6:	f9 e0       	ldi	r31, 0x09	; 9
    2ae8:	83 e2       	ldi	r24, 0x23	; 35
    2aea:	80 83       	st	Z, r24
		SPI_ENABLE_bm | // P
		SPI_MASTER_bm | // uSPIP
		SPI_PRESC_DIV16_gc; // 16 
		
	SPI1.CTRLA &= ~SPI_CLK2X_bm;  //SPI 2x mode
    2aec:	80 81       	ld	r24, Z
    2aee:	8f 7e       	andi	r24, 0xEF	; 239
    2af0:	80 83       	st	Z, r24
    2af2:	08 95       	ret

00002af4 <power_off>:

static
void power_off (void)
{
	//SPCR = 0; /* Disable SPI function */
	SPI1.CTRLA &= ~SPI_ENABLE_bm;  //Disable SPI function
    2af4:	e0 e6       	ldi	r30, 0x60	; 96
    2af6:	f9 e0       	ldi	r31, 0x09	; 9
    2af8:	80 81       	ld	r24, Z
    2afa:	8e 7f       	andi	r24, 0xFE	; 254
    2afc:	80 83       	st	Z, r24
	Stat |= STA_NOINIT;
    2afe:	80 91 06 60 	lds	r24, 0x6006	; 0x806006 <Stat>
    2b02:	81 60       	ori	r24, 0x01	; 1
    2b04:	80 93 06 60 	sts	0x6006, r24	; 0x806006 <Stat>
    2b08:	08 95       	ret

00002b0a <xchg_spi>:
{
	//SPDR = dat;
	//loop_until_bit_is_set(SPSR, SPIF);
	//return SPDR;
	
	SPI1.DATA = dat;
    2b0a:	80 93 64 09 	sts	0x0964, r24	; 0x800964 <__TEXT_REGION_LENGTH__+0x7f0964>
	while (!(SPI1.INTFLAGS & SPI_IF_bm)); //f[^
    2b0e:	80 91 63 09 	lds	r24, 0x0963	; 0x800963 <__TEXT_REGION_LENGTH__+0x7f0963>
    2b12:	88 23       	and	r24, r24
    2b14:	e4 f7       	brge	.-8      	; 0x2b0e <xchg_spi+0x4>
	return SPI1.DATA;
    2b16:	80 91 64 09 	lds	r24, 0x0964	; 0x800964 <__TEXT_REGION_LENGTH__+0x7f0964>
}
    2b1a:	08 95       	ret

00002b1c <rcvr_spi_multi>:
static
void rcvr_spi_multi (
	BYTE *p,	/* Data read buffer */
	UINT cnt	/* Size of data block */
)
{
    2b1c:	fc 01       	movw	r30, r24
    2b1e:	01 c0       	rjmp	.+2      	; 0x2b22 <rcvr_spi_multi+0x6>
		SPI1.DATA = 0xFF;
		while (!(SPI1.INTFLAGS & SPI_IF_bm)); //f[^
		*p++ = SPI1.DATA;
		SPI1.DATA = 0xFF;
		while (!(SPI1.INTFLAGS & SPI_IF_bm)); //f[^
		*p++ = SPI1.DATA;		
    2b20:	f9 01       	movw	r30, r18
		*p++ = SPDR;
		SPDR = 0xFF;
		loop_until_bit_is_set(SPSR, SPIF);
		*p++ = SPDR;*/
		
		SPI1.DATA = 0xFF;
    2b22:	8f ef       	ldi	r24, 0xFF	; 255
    2b24:	80 93 64 09 	sts	0x0964, r24	; 0x800964 <__TEXT_REGION_LENGTH__+0x7f0964>
		while (!(SPI1.INTFLAGS & SPI_IF_bm)); //f[^
    2b28:	90 91 63 09 	lds	r25, 0x0963	; 0x800963 <__TEXT_REGION_LENGTH__+0x7f0963>
    2b2c:	99 23       	and	r25, r25
    2b2e:	e4 f7       	brge	.-8      	; 0x2b28 <rcvr_spi_multi+0xc>
		*p++ = SPI1.DATA;
    2b30:	a0 e6       	ldi	r26, 0x60	; 96
    2b32:	b9 e0       	ldi	r27, 0x09	; 9
    2b34:	14 96       	adiw	r26, 0x04	; 4
    2b36:	8c 91       	ld	r24, X
    2b38:	14 97       	sbiw	r26, 0x04	; 4
    2b3a:	80 83       	st	Z, r24
		SPI1.DATA = 0xFF;
    2b3c:	8f ef       	ldi	r24, 0xFF	; 255
    2b3e:	14 96       	adiw	r26, 0x04	; 4
    2b40:	8c 93       	st	X, r24
		while (!(SPI1.INTFLAGS & SPI_IF_bm)); //f[^
    2b42:	90 91 63 09 	lds	r25, 0x0963	; 0x800963 <__TEXT_REGION_LENGTH__+0x7f0963>
    2b46:	99 23       	and	r25, r25
    2b48:	e4 f7       	brge	.-8      	; 0x2b42 <rcvr_spi_multi+0x26>
		*p++ = SPI1.DATA;		
    2b4a:	9f 01       	movw	r18, r30
    2b4c:	2e 5f       	subi	r18, 0xFE	; 254
    2b4e:	3f 4f       	sbci	r19, 0xFF	; 255
    2b50:	80 91 64 09 	lds	r24, 0x0964	; 0x800964 <__TEXT_REGION_LENGTH__+0x7f0964>
    2b54:	81 83       	std	Z+1, r24	; 0x01
	} while (cnt -= 2);
    2b56:	62 50       	subi	r22, 0x02	; 2
    2b58:	71 09       	sbc	r23, r1
    2b5a:	11 f7       	brne	.-60     	; 0x2b20 <rcvr_spi_multi+0x4>
}
    2b5c:	08 95       	ret

00002b5e <xmit_spi_multi>:
static
void xmit_spi_multi (
	const BYTE *p,	/* Data block to be sent */
	UINT cnt		/* Size of data block */
)
{
    2b5e:	fc 01       	movw	r30, r24
    2b60:	01 c0       	rjmp	.+2      	; 0x2b64 <xmit_spi_multi+0x6>
		SPDR = *p++;
		loop_until_bit_is_set(SPSR, SPIF);*/
		
		SPI1.DATA = *p++;
		while (!(SPI1.INTFLAGS & SPI_IF_bm)); //f[^
		SPI1.DATA = *p++;
    2b62:	f9 01       	movw	r30, r18
		/*SPDR = *p++;
		loop_until_bit_is_set(SPSR, SPIF);
		SPDR = *p++;
		loop_until_bit_is_set(SPSR, SPIF);*/
		
		SPI1.DATA = *p++;
    2b64:	80 81       	ld	r24, Z
    2b66:	80 93 64 09 	sts	0x0964, r24	; 0x800964 <__TEXT_REGION_LENGTH__+0x7f0964>
		while (!(SPI1.INTFLAGS & SPI_IF_bm)); //f[^
    2b6a:	90 91 63 09 	lds	r25, 0x0963	; 0x800963 <__TEXT_REGION_LENGTH__+0x7f0963>
    2b6e:	99 23       	and	r25, r25
    2b70:	e4 f7       	brge	.-8      	; 0x2b6a <xmit_spi_multi+0xc>
		SPI1.DATA = *p++;
    2b72:	9f 01       	movw	r18, r30
    2b74:	2e 5f       	subi	r18, 0xFE	; 254
    2b76:	3f 4f       	sbci	r19, 0xFF	; 255
    2b78:	81 81       	ldd	r24, Z+1	; 0x01
    2b7a:	80 93 64 09 	sts	0x0964, r24	; 0x800964 <__TEXT_REGION_LENGTH__+0x7f0964>
		while (!(SPI1.INTFLAGS & SPI_IF_bm)); //f[^
    2b7e:	80 91 63 09 	lds	r24, 0x0963	; 0x800963 <__TEXT_REGION_LENGTH__+0x7f0963>
    2b82:	88 23       	and	r24, r24
    2b84:	e4 f7       	brge	.-8      	; 0x2b7e <xmit_spi_multi+0x20>
	} while (cnt -= 2);
    2b86:	62 50       	subi	r22, 0x02	; 2
    2b88:	71 09       	sbc	r23, r1
    2b8a:	59 f7       	brne	.-42     	; 0x2b62 <xmit_spi_multi+0x4>
}
    2b8c:	08 95       	ret

00002b8e <wait_ready>:
)
{
	BYTE d;


	Timer2 = wt / 10;
    2b8e:	9c 01       	movw	r18, r24
    2b90:	ad ec       	ldi	r26, 0xCD	; 205
    2b92:	bc ec       	ldi	r27, 0xCC	; 204
    2b94:	0e 94 5e 37 	call	0x6ebc	; 0x6ebc <__umulhisi3>
    2b98:	96 95       	lsr	r25
    2b9a:	87 95       	ror	r24
    2b9c:	96 95       	lsr	r25
    2b9e:	87 95       	ror	r24
    2ba0:	96 95       	lsr	r25
    2ba2:	87 95       	ror	r24
    2ba4:	80 93 91 61 	sts	0x6191, r24	; 0x806191 <Timer2>
	do
		d = xchg_spi(0xFF);
    2ba8:	8f ef       	ldi	r24, 0xFF	; 255
    2baa:	0e 94 85 15 	call	0x2b0a	; 0x2b0a <xchg_spi>

		/* This loop takes a time. Insert rot_rdq() here for multitask envilonment. */

	while (d != 0xFF && Timer2);
    2bae:	8f 3f       	cpi	r24, 0xFF	; 255
    2bb0:	21 f0       	breq	.+8      	; 0x2bba <wait_ready+0x2c>
    2bb2:	90 91 91 61 	lds	r25, 0x6191	; 0x806191 <Timer2>
    2bb6:	91 11       	cpse	r25, r1
    2bb8:	f7 cf       	rjmp	.-18     	; 0x2ba8 <wait_ready+0x1a>

	return (d == 0xFF) ? 1 : 0;
    2bba:	91 e0       	ldi	r25, 0x01	; 1
    2bbc:	8f 3f       	cpi	r24, 0xFF	; 255
    2bbe:	09 f0       	breq	.+2      	; 0x2bc2 <wait_ready+0x34>
    2bc0:	90 e0       	ldi	r25, 0x00	; 0
}
    2bc2:	89 2f       	mov	r24, r25
    2bc4:	90 e0       	ldi	r25, 0x00	; 0
    2bc6:	08 95       	ret

00002bc8 <deselect>:
/*-----------------------------------------------------------------------*/

static
void deselect (void)
{
	CS_HIGH();		/* Set CS# high */
    2bc8:	e0 e4       	ldi	r30, 0x40	; 64
    2bca:	f4 e0       	ldi	r31, 0x04	; 4
    2bcc:	84 81       	ldd	r24, Z+4	; 0x04
    2bce:	88 60       	ori	r24, 0x08	; 8
    2bd0:	84 83       	std	Z+4, r24	; 0x04
	xchg_spi(0xFF);	/* Dummy clock (force DO hi-z for multiple slave SPI) */
    2bd2:	8f ef       	ldi	r24, 0xFF	; 255
    2bd4:	0e 94 85 15 	call	0x2b0a	; 0x2b0a <xchg_spi>
    2bd8:	08 95       	ret

00002bda <select>:
/* Select the card and wait for ready                                    */
/*-----------------------------------------------------------------------*/

static
int select (void)	/* 1:Successful, 0:Timeout */
{
    2bda:	cf 93       	push	r28
    2bdc:	df 93       	push	r29
	CS_LOW();		/* Set CS# low */
    2bde:	e0 e4       	ldi	r30, 0x40	; 64
    2be0:	f4 e0       	ldi	r31, 0x04	; 4
    2be2:	84 81       	ldd	r24, Z+4	; 0x04
    2be4:	87 7f       	andi	r24, 0xF7	; 247
    2be6:	84 83       	std	Z+4, r24	; 0x04
	xchg_spi(0xFF);	/* Dummy clock (force DO enabled) */
    2be8:	8f ef       	ldi	r24, 0xFF	; 255
    2bea:	0e 94 85 15 	call	0x2b0a	; 0x2b0a <xchg_spi>

	if (wait_ready(500)) return 1;	/* Leading busy check: Wait for card ready */
    2bee:	84 ef       	ldi	r24, 0xF4	; 244
    2bf0:	91 e0       	ldi	r25, 0x01	; 1
    2bf2:	0e 94 c7 15 	call	0x2b8e	; 0x2b8e <wait_ready>
    2bf6:	ec 01       	movw	r28, r24
    2bf8:	89 2b       	or	r24, r25
    2bfa:	19 f4       	brne	.+6      	; 0x2c02 <select+0x28>

	deselect();		/* Timeout */
    2bfc:	0e 94 e4 15 	call	0x2bc8	; 0x2bc8 <deselect>
	return 0;
    2c00:	02 c0       	rjmp	.+4      	; 0x2c06 <select+0x2c>
int select (void)	/* 1:Successful, 0:Timeout */
{
	CS_LOW();		/* Set CS# low */
	xchg_spi(0xFF);	/* Dummy clock (force DO enabled) */

	if (wait_ready(500)) return 1;	/* Leading busy check: Wait for card ready */
    2c02:	c1 e0       	ldi	r28, 0x01	; 1
    2c04:	d0 e0       	ldi	r29, 0x00	; 0

	deselect();		/* Timeout */
	return 0;
}
    2c06:	ce 01       	movw	r24, r28
    2c08:	df 91       	pop	r29
    2c0a:	cf 91       	pop	r28
    2c0c:	08 95       	ret

00002c0e <rcvr_datablock>:
static
int rcvr_datablock (
	BYTE *buff,			/* Data buffer to store received data */
	UINT btr			/* Byte count (must be multiple of 4) */
)
{
    2c0e:	0f 93       	push	r16
    2c10:	1f 93       	push	r17
    2c12:	cf 93       	push	r28
    2c14:	df 93       	push	r29
    2c16:	ec 01       	movw	r28, r24
    2c18:	8b 01       	movw	r16, r22
	BYTE token;


	Timer1 = 20;
    2c1a:	84 e1       	ldi	r24, 0x14	; 20
    2c1c:	80 93 92 61 	sts	0x6192, r24	; 0x806192 <Timer1>
	do {							/* Wait for data packet in timeout of 200ms */
		token = xchg_spi(0xFF);
    2c20:	8f ef       	ldi	r24, 0xFF	; 255
    2c22:	0e 94 85 15 	call	0x2b0a	; 0x2b0a <xchg_spi>
	} while ((token == 0xFF) && Timer1);
    2c26:	8f 3f       	cpi	r24, 0xFF	; 255
    2c28:	21 f4       	brne	.+8      	; 0x2c32 <rcvr_datablock+0x24>
    2c2a:	90 91 92 61 	lds	r25, 0x6192	; 0x806192 <Timer1>
    2c2e:	91 11       	cpse	r25, r1
    2c30:	f7 cf       	rjmp	.-18     	; 0x2c20 <rcvr_datablock+0x12>
	if (token != 0xFE) return 0;	/* If not valid data token, retutn with error */
    2c32:	8e 3f       	cpi	r24, 0xFE	; 254
    2c34:	69 f4       	brne	.+26     	; 0x2c50 <rcvr_datablock+0x42>

	rcvr_spi_multi(buff, btr);		/* Receive the data block into buffer */
    2c36:	b8 01       	movw	r22, r16
    2c38:	ce 01       	movw	r24, r28
    2c3a:	0e 94 8e 15 	call	0x2b1c	; 0x2b1c <rcvr_spi_multi>
	xchg_spi(0xFF);					/* Discard CRC */
    2c3e:	8f ef       	ldi	r24, 0xFF	; 255
    2c40:	0e 94 85 15 	call	0x2b0a	; 0x2b0a <xchg_spi>
	xchg_spi(0xFF);
    2c44:	8f ef       	ldi	r24, 0xFF	; 255
    2c46:	0e 94 85 15 	call	0x2b0a	; 0x2b0a <xchg_spi>

	return 1;						/* Return with success */
    2c4a:	81 e0       	ldi	r24, 0x01	; 1
    2c4c:	90 e0       	ldi	r25, 0x00	; 0
    2c4e:	02 c0       	rjmp	.+4      	; 0x2c54 <rcvr_datablock+0x46>

	Timer1 = 20;
	do {							/* Wait for data packet in timeout of 200ms */
		token = xchg_spi(0xFF);
	} while ((token == 0xFF) && Timer1);
	if (token != 0xFE) return 0;	/* If not valid data token, retutn with error */
    2c50:	80 e0       	ldi	r24, 0x00	; 0
    2c52:	90 e0       	ldi	r25, 0x00	; 0
	rcvr_spi_multi(buff, btr);		/* Receive the data block into buffer */
	xchg_spi(0xFF);					/* Discard CRC */
	xchg_spi(0xFF);

	return 1;						/* Return with success */
}
    2c54:	df 91       	pop	r29
    2c56:	cf 91       	pop	r28
    2c58:	1f 91       	pop	r17
    2c5a:	0f 91       	pop	r16
    2c5c:	08 95       	ret

00002c5e <xmit_datablock>:
static
int xmit_datablock (
	const BYTE *buff,	/* 512 byte data block to be transmitted */
	BYTE token			/* Data/Stop token */
)
{
    2c5e:	0f 93       	push	r16
    2c60:	1f 93       	push	r17
    2c62:	cf 93       	push	r28
    2c64:	8c 01       	movw	r16, r24
    2c66:	c6 2f       	mov	r28, r22
	BYTE resp;


	if (!wait_ready(500)) return 0;		/* Leading busy check: Wait for card ready to accept data block */
    2c68:	84 ef       	ldi	r24, 0xF4	; 244
    2c6a:	91 e0       	ldi	r25, 0x01	; 1
    2c6c:	0e 94 c7 15 	call	0x2b8e	; 0x2b8e <wait_ready>
    2c70:	00 97       	sbiw	r24, 0x00	; 0
    2c72:	e9 f0       	breq	.+58     	; 0x2cae <xmit_datablock+0x50>

	xchg_spi(token);					/* Xmit data token */
    2c74:	8c 2f       	mov	r24, r28
    2c76:	0e 94 85 15 	call	0x2b0a	; 0x2b0a <xchg_spi>
	if (token == 0xFD) return 1;		/* Do not send data if token is StopTran */
    2c7a:	cd 3f       	cpi	r28, 0xFD	; 253
    2c7c:	b1 f0       	breq	.+44     	; 0x2caa <xmit_datablock+0x4c>

	xmit_spi_multi(buff, 512);			/* Data */
    2c7e:	60 e0       	ldi	r22, 0x00	; 0
    2c80:	72 e0       	ldi	r23, 0x02	; 2
    2c82:	c8 01       	movw	r24, r16
    2c84:	0e 94 af 15 	call	0x2b5e	; 0x2b5e <xmit_spi_multi>
	xchg_spi(0xFF); xchg_spi(0xFF);		/* Dummy CRC */
    2c88:	8f ef       	ldi	r24, 0xFF	; 255
    2c8a:	0e 94 85 15 	call	0x2b0a	; 0x2b0a <xchg_spi>
    2c8e:	8f ef       	ldi	r24, 0xFF	; 255
    2c90:	0e 94 85 15 	call	0x2b0a	; 0x2b0a <xchg_spi>

	resp = xchg_spi(0xFF);				/* Receive data resp */
    2c94:	8f ef       	ldi	r24, 0xFF	; 255
    2c96:	0e 94 85 15 	call	0x2b0a	; 0x2b0a <xchg_spi>

	return (resp & 0x1F) == 0x05 ? 1 : 0;	/* Data was accepted or not */
    2c9a:	8f 71       	andi	r24, 0x1F	; 31
    2c9c:	91 e0       	ldi	r25, 0x01	; 1
    2c9e:	85 30       	cpi	r24, 0x05	; 5
    2ca0:	09 f0       	breq	.+2      	; 0x2ca4 <xmit_datablock+0x46>
    2ca2:	90 e0       	ldi	r25, 0x00	; 0
    2ca4:	89 2f       	mov	r24, r25
    2ca6:	90 e0       	ldi	r25, 0x00	; 0
    2ca8:	02 c0       	rjmp	.+4      	; 0x2cae <xmit_datablock+0x50>


	if (!wait_ready(500)) return 0;		/* Leading busy check: Wait for card ready to accept data block */

	xchg_spi(token);					/* Xmit data token */
	if (token == 0xFD) return 1;		/* Do not send data if token is StopTran */
    2caa:	81 e0       	ldi	r24, 0x01	; 1
    2cac:	90 e0       	ldi	r25, 0x00	; 0
	resp = xchg_spi(0xFF);				/* Receive data resp */

	return (resp & 0x1F) == 0x05 ? 1 : 0;	/* Data was accepted or not */

	/* Busy check is done at next transmission */
}
    2cae:	cf 91       	pop	r28
    2cb0:	1f 91       	pop	r17
    2cb2:	0f 91       	pop	r16
    2cb4:	08 95       	ret

00002cb6 <send_cmd>:
static
BYTE send_cmd (		/* Returns R1 resp (bit7==1:Send failed) */
	BYTE cmd,		/* Command index */
	DWORD arg		/* Argument */
)
{
    2cb6:	ff 92       	push	r15
    2cb8:	0f 93       	push	r16
    2cba:	1f 93       	push	r17
    2cbc:	cf 93       	push	r28
    2cbe:	df 93       	push	r29
    2cc0:	c8 2f       	mov	r28, r24
    2cc2:	d4 2f       	mov	r29, r20
    2cc4:	15 2f       	mov	r17, r21
    2cc6:	06 2f       	mov	r16, r22
    2cc8:	f7 2e       	mov	r15, r23
	BYTE n, res;

	
	if (cmd & 0x80) {	/* ACMD<n> is the command sequense of CMD55-CMD<n> */
    2cca:	88 23       	and	r24, r24
    2ccc:	4c f4       	brge	.+18     	; 0x2ce0 <send_cmd+0x2a>
		cmd &= 0x7F;
    2cce:	cf 77       	andi	r28, 0x7F	; 127
		res = send_cmd(CMD55, 0);
    2cd0:	40 e0       	ldi	r20, 0x00	; 0
    2cd2:	50 e0       	ldi	r21, 0x00	; 0
    2cd4:	ba 01       	movw	r22, r20
    2cd6:	87 e3       	ldi	r24, 0x37	; 55
    2cd8:	0e 94 5b 16 	call	0x2cb6	; 0x2cb6 <send_cmd>
		if (res > 1) return res;
    2cdc:	82 30       	cpi	r24, 0x02	; 2
    2cde:	88 f5       	brcc	.+98     	; 0x2d42 <send_cmd+0x8c>
	}

	/* Select the card and wait for ready except to stop multiple block read */
	if (cmd != CMD12) {
    2ce0:	cc 30       	cpi	r28, 0x0C	; 12
    2ce2:	31 f0       	breq	.+12     	; 0x2cf0 <send_cmd+0x3a>
		deselect();
    2ce4:	0e 94 e4 15 	call	0x2bc8	; 0x2bc8 <deselect>
		if (!select()) return 0xFF;
    2ce8:	0e 94 ed 15 	call	0x2bda	; 0x2bda <select>
    2cec:	89 2b       	or	r24, r25
    2cee:	41 f1       	breq	.+80     	; 0x2d40 <send_cmd+0x8a>
	}

	/* Send command packet */
	xchg_spi(0x40 | cmd);				/* Start + Command index */
    2cf0:	8c 2f       	mov	r24, r28
    2cf2:	80 64       	ori	r24, 0x40	; 64
    2cf4:	0e 94 85 15 	call	0x2b0a	; 0x2b0a <xchg_spi>
	xchg_spi((BYTE)(arg >> 24));		/* Argument[31..24] */
    2cf8:	8f 2d       	mov	r24, r15
    2cfa:	0e 94 85 15 	call	0x2b0a	; 0x2b0a <xchg_spi>
	xchg_spi((BYTE)(arg >> 16));		/* Argument[23..16] */
    2cfe:	80 2f       	mov	r24, r16
    2d00:	0e 94 85 15 	call	0x2b0a	; 0x2b0a <xchg_spi>
	xchg_spi((BYTE)(arg >> 8));			/* Argument[15..8] */
    2d04:	81 2f       	mov	r24, r17
    2d06:	0e 94 85 15 	call	0x2b0a	; 0x2b0a <xchg_spi>
	xchg_spi((BYTE)arg);				/* Argument[7..0] */
    2d0a:	8d 2f       	mov	r24, r29
    2d0c:	0e 94 85 15 	call	0x2b0a	; 0x2b0a <xchg_spi>
	n = 0x01;							/* Dummy CRC + Stop */
	if (cmd == CMD0) n = 0x95;			/* Valid CRC for CMD0(0) + Stop */
    2d10:	cc 23       	and	r28, r28
    2d12:	11 f0       	breq	.+4      	; 0x2d18 <send_cmd+0x62>
	xchg_spi(0x40 | cmd);				/* Start + Command index */
	xchg_spi((BYTE)(arg >> 24));		/* Argument[31..24] */
	xchg_spi((BYTE)(arg >> 16));		/* Argument[23..16] */
	xchg_spi((BYTE)(arg >> 8));			/* Argument[15..8] */
	xchg_spi((BYTE)arg);				/* Argument[7..0] */
	n = 0x01;							/* Dummy CRC + Stop */
    2d14:	81 e0       	ldi	r24, 0x01	; 1
    2d16:	01 c0       	rjmp	.+2      	; 0x2d1a <send_cmd+0x64>
	if (cmd == CMD0) n = 0x95;			/* Valid CRC for CMD0(0) + Stop */
    2d18:	85 e9       	ldi	r24, 0x95	; 149
	if (cmd == CMD8) n = 0x87;			/* Valid CRC for CMD8(0x1AA) Stop */
    2d1a:	c8 30       	cpi	r28, 0x08	; 8
    2d1c:	09 f4       	brne	.+2      	; 0x2d20 <send_cmd+0x6a>
    2d1e:	87 e8       	ldi	r24, 0x87	; 135
	xchg_spi(n);
    2d20:	0e 94 85 15 	call	0x2b0a	; 0x2b0a <xchg_spi>

	/* Receive command response */
	if (cmd == CMD12) xchg_spi(0xFF);		/* Skip a stuff byte when stop reading */
    2d24:	cc 30       	cpi	r28, 0x0C	; 12
    2d26:	19 f4       	brne	.+6      	; 0x2d2e <send_cmd+0x78>
    2d28:	8f ef       	ldi	r24, 0xFF	; 255
    2d2a:	0e 94 85 15 	call	0x2b0a	; 0x2b0a <xchg_spi>
	xchg_spi((BYTE)(arg >> 16));		/* Argument[23..16] */
	xchg_spi((BYTE)(arg >> 8));			/* Argument[15..8] */
	xchg_spi((BYTE)arg);				/* Argument[7..0] */
	n = 0x01;							/* Dummy CRC + Stop */
	if (cmd == CMD0) n = 0x95;			/* Valid CRC for CMD0(0) + Stop */
	if (cmd == CMD8) n = 0x87;			/* Valid CRC for CMD8(0x1AA) Stop */
    2d2e:	ca e0       	ldi	r28, 0x0A	; 10

	/* Receive command response */
	if (cmd == CMD12) xchg_spi(0xFF);		/* Skip a stuff byte when stop reading */
	n = 10;								/* Wait for a valid response in timeout of 10 attempts */
	do
		res = xchg_spi(0xFF);
    2d30:	8f ef       	ldi	r24, 0xFF	; 255
    2d32:	0e 94 85 15 	call	0x2b0a	; 0x2b0a <xchg_spi>
	while ((res & 0x80) && --n);
    2d36:	88 23       	and	r24, r24
    2d38:	24 f4       	brge	.+8      	; 0x2d42 <send_cmd+0x8c>
    2d3a:	c1 50       	subi	r28, 0x01	; 1
    2d3c:	c9 f7       	brne	.-14     	; 0x2d30 <send_cmd+0x7a>
    2d3e:	01 c0       	rjmp	.+2      	; 0x2d42 <send_cmd+0x8c>
	}

	/* Select the card and wait for ready except to stop multiple block read */
	if (cmd != CMD12) {
		deselect();
		if (!select()) return 0xFF;
    2d40:	8f ef       	ldi	r24, 0xFF	; 255
	do
		res = xchg_spi(0xFF);
	while ((res & 0x80) && --n);

	return res;			/* Return with the response value */
}
    2d42:	df 91       	pop	r29
    2d44:	cf 91       	pop	r28
    2d46:	1f 91       	pop	r17
    2d48:	0f 91       	pop	r16
    2d4a:	ff 90       	pop	r15
    2d4c:	08 95       	ret

00002d4e <mmc_disk_initialize>:
/*-----------------------------------------------------------------------*/
/* Initialize Disk Drive                                                 */
/*-----------------------------------------------------------------------*/

DSTATUS mmc_disk_initialize (void)
{
    2d4e:	ef 92       	push	r14
    2d50:	ff 92       	push	r15
    2d52:	0f 93       	push	r16
    2d54:	1f 93       	push	r17
    2d56:	cf 93       	push	r28
    2d58:	df 93       	push	r29
    2d5a:	00 d0       	rcall	.+0      	; 0x2d5c <mmc_disk_initialize+0xe>
    2d5c:	00 d0       	rcall	.+0      	; 0x2d5e <mmc_disk_initialize+0x10>
    2d5e:	cd b7       	in	r28, 0x3d	; 61
    2d60:	de b7       	in	r29, 0x3e	; 62
	BYTE n, cmd, ty, ocr[4];
	power_off();						/* Turn off the socket power to reset the card */
    2d62:	0e 94 7a 15 	call	0x2af4	; 0x2af4 <power_off>
	for (Timer1 = 10; Timer1; ) ;		/* Wait for 100ms */
    2d66:	8a e0       	ldi	r24, 0x0A	; 10
    2d68:	80 93 92 61 	sts	0x6192, r24	; 0x806192 <Timer1>
    2d6c:	80 91 92 61 	lds	r24, 0x6192	; 0x806192 <Timer1>
    2d70:	81 11       	cpse	r24, r1
    2d72:	fc cf       	rjmp	.-8      	; 0x2d6c <mmc_disk_initialize+0x1e>
	if (Stat & STA_NODISK) return Stat;	/* No card in the socket? */
    2d74:	80 91 06 60 	lds	r24, 0x6006	; 0x806006 <Stat>
    2d78:	81 ff       	sbrs	r24, 1
    2d7a:	03 c0       	rjmp	.+6      	; 0x2d82 <mmc_disk_initialize+0x34>
    2d7c:	80 91 06 60 	lds	r24, 0x6006	; 0x806006 <Stat>
    2d80:	b7 c0       	rjmp	.+366    	; 0x2ef0 <mmc_disk_initialize+0x1a2>

	power_on();							/* Turn on the socket power */
    2d82:	0e 94 59 15 	call	0x2ab2	; 0x2ab2 <power_on>

	FCLK_SLOW();
    2d86:	e0 e6       	ldi	r30, 0x60	; 96
    2d88:	f9 e0       	ldi	r31, 0x09	; 9
    2d8a:	80 81       	ld	r24, Z
    2d8c:	82 60       	ori	r24, 0x02	; 2
    2d8e:	80 83       	st	Z, r24
	for (n = 10; n; n--) xchg_spi(0xFF);	/* 80 dummy clocks */
    2d90:	1a e0       	ldi	r17, 0x0A	; 10
    2d92:	04 c0       	rjmp	.+8      	; 0x2d9c <mmc_disk_initialize+0x4e>
    2d94:	8f ef       	ldi	r24, 0xFF	; 255
    2d96:	0e 94 85 15 	call	0x2b0a	; 0x2b0a <xchg_spi>
    2d9a:	11 50       	subi	r17, 0x01	; 1
    2d9c:	11 11       	cpse	r17, r1
    2d9e:	fa cf       	rjmp	.-12     	; 0x2d94 <mmc_disk_initialize+0x46>
	
	ty = 0;
	if (send_cmd(CMD0, 0) == 1) {			/* Put the card SPI mode */
    2da0:	40 e0       	ldi	r20, 0x00	; 0
    2da2:	50 e0       	ldi	r21, 0x00	; 0
    2da4:	ba 01       	movw	r22, r20
    2da6:	80 e0       	ldi	r24, 0x00	; 0
    2da8:	0e 94 5b 16 	call	0x2cb6	; 0x2cb6 <send_cmd>
    2dac:	81 30       	cpi	r24, 0x01	; 1
    2dae:	09 f0       	breq	.+2      	; 0x2db2 <mmc_disk_initialize+0x64>
    2db0:	7e c0       	rjmp	.+252    	; 0x2eae <mmc_disk_initialize+0x160>
		Timer1 = 100;						/* Initialization timeout of 1000 msec */
    2db2:	84 e6       	ldi	r24, 0x64	; 100
    2db4:	80 93 92 61 	sts	0x6192, r24	; 0x806192 <Timer1>
		if (send_cmd(CMD8, 0x1AA) == 1) {	/* Is the card SDv2? */
    2db8:	4a ea       	ldi	r20, 0xAA	; 170
    2dba:	51 e0       	ldi	r21, 0x01	; 1
    2dbc:	60 e0       	ldi	r22, 0x00	; 0
    2dbe:	70 e0       	ldi	r23, 0x00	; 0
    2dc0:	88 e0       	ldi	r24, 0x08	; 8
    2dc2:	0e 94 5b 16 	call	0x2cb6	; 0x2cb6 <send_cmd>
    2dc6:	81 30       	cpi	r24, 0x01	; 1
    2dc8:	09 f0       	breq	.+2      	; 0x2dcc <mmc_disk_initialize+0x7e>
    2dca:	4a c0       	rjmp	.+148    	; 0x2e60 <mmc_disk_initialize+0x112>
    2dcc:	0e c0       	rjmp	.+28     	; 0x2dea <mmc_disk_initialize+0x9c>
			for (n = 0; n < 4; n++) ocr[n] = xchg_spi(0xFF);	/* Get trailing return value of R7 resp */
    2dce:	e0 2e       	mov	r14, r16
    2dd0:	f1 2c       	mov	r15, r1
    2dd2:	8f ef       	ldi	r24, 0xFF	; 255
    2dd4:	0e 94 85 15 	call	0x2b0a	; 0x2b0a <xchg_spi>
    2dd8:	e1 e0       	ldi	r30, 0x01	; 1
    2dda:	f0 e0       	ldi	r31, 0x00	; 0
    2ddc:	ec 0f       	add	r30, r28
    2dde:	fd 1f       	adc	r31, r29
    2de0:	ee 0d       	add	r30, r14
    2de2:	ff 1d       	adc	r31, r15
    2de4:	80 83       	st	Z, r24
    2de6:	0f 5f       	subi	r16, 0xFF	; 255
    2de8:	01 c0       	rjmp	.+2      	; 0x2dec <mmc_disk_initialize+0x9e>
    2dea:	01 2f       	mov	r16, r17
    2dec:	04 30       	cpi	r16, 0x04	; 4
    2dee:	78 f3       	brcs	.-34     	; 0x2dce <mmc_disk_initialize+0x80>
			if (ocr[2] == 0x01 && ocr[3] == 0xAA) {				/* The card can work at vdd range of 2.7-3.6V */
    2df0:	8b 81       	ldd	r24, Y+3	; 0x03
    2df2:	81 30       	cpi	r24, 0x01	; 1
    2df4:	09 f0       	breq	.+2      	; 0x2df8 <mmc_disk_initialize+0xaa>
    2df6:	5d c0       	rjmp	.+186    	; 0x2eb2 <mmc_disk_initialize+0x164>
    2df8:	8c 81       	ldd	r24, Y+4	; 0x04
    2dfa:	8a 3a       	cpi	r24, 0xAA	; 170
    2dfc:	09 f0       	breq	.+2      	; 0x2e00 <mmc_disk_initialize+0xb2>
    2dfe:	5b c0       	rjmp	.+182    	; 0x2eb6 <mmc_disk_initialize+0x168>
				while (Timer1 && send_cmd(ACMD41, 1UL << 30));	/* Wait for leaving idle state (ACMD41 with HCS bit) */
    2e00:	80 91 92 61 	lds	r24, 0x6192	; 0x806192 <Timer1>
    2e04:	88 23       	and	r24, r24
    2e06:	49 f0       	breq	.+18     	; 0x2e1a <mmc_disk_initialize+0xcc>
    2e08:	40 e0       	ldi	r20, 0x00	; 0
    2e0a:	50 e0       	ldi	r21, 0x00	; 0
    2e0c:	60 e0       	ldi	r22, 0x00	; 0
    2e0e:	70 e4       	ldi	r23, 0x40	; 64
    2e10:	89 ea       	ldi	r24, 0xA9	; 169
    2e12:	0e 94 5b 16 	call	0x2cb6	; 0x2cb6 <send_cmd>
    2e16:	81 11       	cpse	r24, r1
    2e18:	f3 cf       	rjmp	.-26     	; 0x2e00 <mmc_disk_initialize+0xb2>
				if (Timer1 && send_cmd(CMD58, 0) == 0) {		/* Check CCS bit in the OCR */
    2e1a:	80 91 92 61 	lds	r24, 0x6192	; 0x806192 <Timer1>
    2e1e:	88 23       	and	r24, r24
    2e20:	09 f4       	brne	.+2      	; 0x2e24 <mmc_disk_initialize+0xd6>
    2e22:	4b c0       	rjmp	.+150    	; 0x2eba <mmc_disk_initialize+0x16c>
    2e24:	40 e0       	ldi	r20, 0x00	; 0
    2e26:	50 e0       	ldi	r21, 0x00	; 0
    2e28:	ba 01       	movw	r22, r20
    2e2a:	8a e3       	ldi	r24, 0x3A	; 58
    2e2c:	0e 94 5b 16 	call	0x2cb6	; 0x2cb6 <send_cmd>
    2e30:	88 23       	and	r24, r24
    2e32:	79 f0       	breq	.+30     	; 0x2e52 <mmc_disk_initialize+0x104>
	power_on();							/* Turn on the socket power */

	FCLK_SLOW();
	for (n = 10; n; n--) xchg_spi(0xFF);	/* 80 dummy clocks */
	
	ty = 0;
    2e34:	10 e0       	ldi	r17, 0x00	; 0
    2e36:	48 c0       	rjmp	.+144    	; 0x2ec8 <mmc_disk_initialize+0x17a>
		if (send_cmd(CMD8, 0x1AA) == 1) {	/* Is the card SDv2? */
			for (n = 0; n < 4; n++) ocr[n] = xchg_spi(0xFF);	/* Get trailing return value of R7 resp */
			if (ocr[2] == 0x01 && ocr[3] == 0xAA) {				/* The card can work at vdd range of 2.7-3.6V */
				while (Timer1 && send_cmd(ACMD41, 1UL << 30));	/* Wait for leaving idle state (ACMD41 with HCS bit) */
				if (Timer1 && send_cmd(CMD58, 0) == 0) {		/* Check CCS bit in the OCR */
					for (n = 0; n < 4; n++) ocr[n] = xchg_spi(0xFF);
    2e38:	e1 2e       	mov	r14, r17
    2e3a:	f1 2c       	mov	r15, r1
    2e3c:	8f ef       	ldi	r24, 0xFF	; 255
    2e3e:	0e 94 85 15 	call	0x2b0a	; 0x2b0a <xchg_spi>
    2e42:	e1 e0       	ldi	r30, 0x01	; 1
    2e44:	f0 e0       	ldi	r31, 0x00	; 0
    2e46:	ec 0f       	add	r30, r28
    2e48:	fd 1f       	adc	r31, r29
    2e4a:	ee 0d       	add	r30, r14
    2e4c:	ff 1d       	adc	r31, r15
    2e4e:	80 83       	st	Z, r24
    2e50:	1f 5f       	subi	r17, 0xFF	; 255
    2e52:	14 30       	cpi	r17, 0x04	; 4
    2e54:	88 f3       	brcs	.-30     	; 0x2e38 <mmc_disk_initialize+0xea>
					ty = (ocr[0] & 0x40) ? CT_SD2 | CT_BLOCK : CT_SD2;	/* Check if the card is SDv2 */
    2e56:	89 81       	ldd	r24, Y+1	; 0x01
    2e58:	86 ff       	sbrs	r24, 6
    2e5a:	31 c0       	rjmp	.+98     	; 0x2ebe <mmc_disk_initialize+0x170>
    2e5c:	1c e0       	ldi	r17, 0x0C	; 12
    2e5e:	34 c0       	rjmp	.+104    	; 0x2ec8 <mmc_disk_initialize+0x17a>
				}
			}
		} else {							/* SDv1 or MMCv3 */
			if (send_cmd(ACMD41, 0) <= 1) 	{
    2e60:	40 e0       	ldi	r20, 0x00	; 0
    2e62:	50 e0       	ldi	r21, 0x00	; 0
    2e64:	ba 01       	movw	r22, r20
    2e66:	89 ea       	ldi	r24, 0xA9	; 169
    2e68:	0e 94 5b 16 	call	0x2cb6	; 0x2cb6 <send_cmd>
    2e6c:	82 30       	cpi	r24, 0x02	; 2
    2e6e:	18 f4       	brcc	.+6      	; 0x2e76 <mmc_disk_initialize+0x128>
				ty = CT_SD1; cmd = ACMD41;	/* SDv1 */
    2e70:	12 e0       	ldi	r17, 0x02	; 2
    2e72:	09 ea       	ldi	r16, 0xA9	; 169
    2e74:	02 c0       	rjmp	.+4      	; 0x2e7a <mmc_disk_initialize+0x12c>
			} else {
				ty = CT_MMC; cmd = CMD1;	/* MMCv3 */
    2e76:	11 e0       	ldi	r17, 0x01	; 1
    2e78:	01 e0       	ldi	r16, 0x01	; 1
			}
			while (Timer1 && send_cmd(cmd, 0));			/* Wait for leaving idle state */
    2e7a:	80 91 92 61 	lds	r24, 0x6192	; 0x806192 <Timer1>
    2e7e:	88 23       	and	r24, r24
    2e80:	41 f0       	breq	.+16     	; 0x2e92 <mmc_disk_initialize+0x144>
    2e82:	40 e0       	ldi	r20, 0x00	; 0
    2e84:	50 e0       	ldi	r21, 0x00	; 0
    2e86:	ba 01       	movw	r22, r20
    2e88:	80 2f       	mov	r24, r16
    2e8a:	0e 94 5b 16 	call	0x2cb6	; 0x2cb6 <send_cmd>
    2e8e:	81 11       	cpse	r24, r1
    2e90:	f4 cf       	rjmp	.-24     	; 0x2e7a <mmc_disk_initialize+0x12c>
			if (!Timer1 || send_cmd(CMD16, 512) != 0)	/* Set R/W block length to 512 */
    2e92:	80 91 92 61 	lds	r24, 0x6192	; 0x806192 <Timer1>
    2e96:	88 23       	and	r24, r24
    2e98:	a1 f0       	breq	.+40     	; 0x2ec2 <mmc_disk_initialize+0x174>
    2e9a:	40 e0       	ldi	r20, 0x00	; 0
    2e9c:	52 e0       	ldi	r21, 0x02	; 2
    2e9e:	60 e0       	ldi	r22, 0x00	; 0
    2ea0:	70 e0       	ldi	r23, 0x00	; 0
    2ea2:	80 e1       	ldi	r24, 0x10	; 16
    2ea4:	0e 94 5b 16 	call	0x2cb6	; 0x2cb6 <send_cmd>
    2ea8:	81 11       	cpse	r24, r1
    2eaa:	0d c0       	rjmp	.+26     	; 0x2ec6 <mmc_disk_initialize+0x178>
    2eac:	0d c0       	rjmp	.+26     	; 0x2ec8 <mmc_disk_initialize+0x17a>
	power_on();							/* Turn on the socket power */

	FCLK_SLOW();
	for (n = 10; n; n--) xchg_spi(0xFF);	/* 80 dummy clocks */
	
	ty = 0;
    2eae:	10 e0       	ldi	r17, 0x00	; 0
    2eb0:	0b c0       	rjmp	.+22     	; 0x2ec8 <mmc_disk_initialize+0x17a>
    2eb2:	10 e0       	ldi	r17, 0x00	; 0
    2eb4:	09 c0       	rjmp	.+18     	; 0x2ec8 <mmc_disk_initialize+0x17a>
    2eb6:	10 e0       	ldi	r17, 0x00	; 0
    2eb8:	07 c0       	rjmp	.+14     	; 0x2ec8 <mmc_disk_initialize+0x17a>
    2eba:	10 e0       	ldi	r17, 0x00	; 0
    2ebc:	05 c0       	rjmp	.+10     	; 0x2ec8 <mmc_disk_initialize+0x17a>
			for (n = 0; n < 4; n++) ocr[n] = xchg_spi(0xFF);	/* Get trailing return value of R7 resp */
			if (ocr[2] == 0x01 && ocr[3] == 0xAA) {				/* The card can work at vdd range of 2.7-3.6V */
				while (Timer1 && send_cmd(ACMD41, 1UL << 30));	/* Wait for leaving idle state (ACMD41 with HCS bit) */
				if (Timer1 && send_cmd(CMD58, 0) == 0) {		/* Check CCS bit in the OCR */
					for (n = 0; n < 4; n++) ocr[n] = xchg_spi(0xFF);
					ty = (ocr[0] & 0x40) ? CT_SD2 | CT_BLOCK : CT_SD2;	/* Check if the card is SDv2 */
    2ebe:	14 e0       	ldi	r17, 0x04	; 4
    2ec0:	03 c0       	rjmp	.+6      	; 0x2ec8 <mmc_disk_initialize+0x17a>
			} else {
				ty = CT_MMC; cmd = CMD1;	/* MMCv3 */
			}
			while (Timer1 && send_cmd(cmd, 0));			/* Wait for leaving idle state */
			if (!Timer1 || send_cmd(CMD16, 512) != 0)	/* Set R/W block length to 512 */
				ty = 0;
    2ec2:	10 e0       	ldi	r17, 0x00	; 0
    2ec4:	01 c0       	rjmp	.+2      	; 0x2ec8 <mmc_disk_initialize+0x17a>
    2ec6:	10 e0       	ldi	r17, 0x00	; 0
		}
	}
	CardType = ty;
    2ec8:	10 93 90 61 	sts	0x6190, r17	; 0x806190 <CardType>
	deselect();
    2ecc:	0e 94 e4 15 	call	0x2bc8	; 0x2bc8 <deselect>
	
	if (ty) {			/* Initialization succeded */
    2ed0:	11 23       	and	r17, r17
    2ed2:	51 f0       	breq	.+20     	; 0x2ee8 <mmc_disk_initialize+0x19a>
		Stat &= ~STA_NOINIT;		/* Clear STA_NOINIT */
    2ed4:	80 91 06 60 	lds	r24, 0x6006	; 0x806006 <Stat>
    2ed8:	8e 7f       	andi	r24, 0xFE	; 254
    2eda:	80 93 06 60 	sts	0x6006, r24	; 0x806006 <Stat>
		FCLK_FAST();
    2ede:	e0 e6       	ldi	r30, 0x60	; 96
    2ee0:	f9 e0       	ldi	r31, 0x09	; 9
    2ee2:	80 81       	ld	r24, Z
    2ee4:	80 83       	st	Z, r24
    2ee6:	02 c0       	rjmp	.+4      	; 0x2eec <mmc_disk_initialize+0x19e>
	} else {			/* Initialization failed */
		power_off();
    2ee8:	0e 94 7a 15 	call	0x2af4	; 0x2af4 <power_off>
	}

	return Stat;
    2eec:	80 91 06 60 	lds	r24, 0x6006	; 0x806006 <Stat>
}
    2ef0:	24 96       	adiw	r28, 0x04	; 4
    2ef2:	cd bf       	out	0x3d, r28	; 61
    2ef4:	de bf       	out	0x3e, r29	; 62
    2ef6:	df 91       	pop	r29
    2ef8:	cf 91       	pop	r28
    2efa:	1f 91       	pop	r17
    2efc:	0f 91       	pop	r16
    2efe:	ff 90       	pop	r15
    2f00:	ef 90       	pop	r14
    2f02:	08 95       	ret

00002f04 <mmc_disk_status>:
/* Get Disk Status                                                       */
/*-----------------------------------------------------------------------*/

DSTATUS mmc_disk_status (void)
{
	return Stat;
    2f04:	80 91 06 60 	lds	r24, 0x6006	; 0x806006 <Stat>
}
    2f08:	08 95       	ret

00002f0a <mmc_disk_read>:
DRESULT mmc_disk_read (
	BYTE *buff,			/* Pointer to the data buffer to store read data */
	DWORD sector,		/* Start sector number (LBA) */
	UINT count			/* Sector count (1..128) */
)
{
    2f0a:	ff 92       	push	r15
    2f0c:	0f 93       	push	r16
    2f0e:	1f 93       	push	r17
    2f10:	cf 93       	push	r28
    2f12:	df 93       	push	r29
    2f14:	8c 01       	movw	r16, r24
    2f16:	e9 01       	movw	r28, r18
	BYTE cmd;


	if (!count) return RES_PARERR;
    2f18:	20 97       	sbiw	r28, 0x00	; 0
    2f1a:	e1 f1       	breq	.+120    	; 0x2f94 <mmc_disk_read+0x8a>
	if (Stat & STA_NOINIT) return RES_NOTRDY;
    2f1c:	80 91 06 60 	lds	r24, 0x6006	; 0x806006 <Stat>
    2f20:	80 fd       	sbrc	r24, 0
    2f22:	3a c0       	rjmp	.+116    	; 0x2f98 <mmc_disk_read+0x8e>

	if (!(CardType & CT_BLOCK)) sector *= 512;	/* Convert to byte address if needed */
    2f24:	80 91 90 61 	lds	r24, 0x6190	; 0x806190 <CardType>
    2f28:	83 fd       	sbrc	r24, 3
    2f2a:	09 c0       	rjmp	.+18     	; 0x2f3e <mmc_disk_read+0x34>
    2f2c:	03 2e       	mov	r0, r19
    2f2e:	39 e0       	ldi	r19, 0x09	; 9
    2f30:	44 0f       	add	r20, r20
    2f32:	55 1f       	adc	r21, r21
    2f34:	66 1f       	adc	r22, r22
    2f36:	77 1f       	adc	r23, r23
    2f38:	3a 95       	dec	r19
    2f3a:	d1 f7       	brne	.-12     	; 0x2f30 <mmc_disk_read+0x26>
    2f3c:	30 2d       	mov	r19, r0

	cmd = count > 1 ? CMD18 : CMD17;			/*  READ_MULTIPLE_BLOCK : READ_SINGLE_BLOCK */
    2f3e:	c2 30       	cpi	r28, 0x02	; 2
    2f40:	d1 05       	cpc	r29, r1
    2f42:	28 f0       	brcs	.+10     	; 0x2f4e <mmc_disk_read+0x44>
    2f44:	0f 2e       	mov	r0, r31
    2f46:	f2 e1       	ldi	r31, 0x12	; 18
    2f48:	ff 2e       	mov	r15, r31
    2f4a:	f0 2d       	mov	r31, r0
    2f4c:	04 c0       	rjmp	.+8      	; 0x2f56 <mmc_disk_read+0x4c>
    2f4e:	0f 2e       	mov	r0, r31
    2f50:	f1 e1       	ldi	r31, 0x11	; 17
    2f52:	ff 2e       	mov	r15, r31
    2f54:	f0 2d       	mov	r31, r0
	if (send_cmd(cmd, sector) == 0) {
    2f56:	8f 2d       	mov	r24, r15
    2f58:	0e 94 5b 16 	call	0x2cb6	; 0x2cb6 <send_cmd>
    2f5c:	81 11       	cpse	r24, r1
    2f5e:	13 c0       	rjmp	.+38     	; 0x2f86 <mmc_disk_read+0x7c>
		do {
			if (!rcvr_datablock(buff, 512)) break;
    2f60:	60 e0       	ldi	r22, 0x00	; 0
    2f62:	72 e0       	ldi	r23, 0x02	; 2
    2f64:	c8 01       	movw	r24, r16
    2f66:	0e 94 07 16 	call	0x2c0e	; 0x2c0e <rcvr_datablock>
    2f6a:	89 2b       	or	r24, r25
    2f6c:	19 f0       	breq	.+6      	; 0x2f74 <mmc_disk_read+0x6a>
			buff += 512;
    2f6e:	1e 5f       	subi	r17, 0xFE	; 254
		} while (--count);
    2f70:	21 97       	sbiw	r28, 0x01	; 1
    2f72:	b1 f7       	brne	.-20     	; 0x2f60 <mmc_disk_read+0x56>
		if (cmd == CMD18) send_cmd(CMD12, 0);	/* STOP_TRANSMISSION */
    2f74:	82 e1       	ldi	r24, 0x12	; 18
    2f76:	f8 12       	cpse	r15, r24
    2f78:	06 c0       	rjmp	.+12     	; 0x2f86 <mmc_disk_read+0x7c>
    2f7a:	40 e0       	ldi	r20, 0x00	; 0
    2f7c:	50 e0       	ldi	r21, 0x00	; 0
    2f7e:	ba 01       	movw	r22, r20
    2f80:	8c e0       	ldi	r24, 0x0C	; 12
    2f82:	0e 94 5b 16 	call	0x2cb6	; 0x2cb6 <send_cmd>
	}
	deselect();
    2f86:	0e 94 e4 15 	call	0x2bc8	; 0x2bc8 <deselect>

	return count ? RES_ERROR : RES_OK;
    2f8a:	81 e0       	ldi	r24, 0x01	; 1
    2f8c:	cd 2b       	or	r28, r29
    2f8e:	29 f4       	brne	.+10     	; 0x2f9a <mmc_disk_read+0x90>
    2f90:	80 e0       	ldi	r24, 0x00	; 0
    2f92:	03 c0       	rjmp	.+6      	; 0x2f9a <mmc_disk_read+0x90>
)
{
	BYTE cmd;


	if (!count) return RES_PARERR;
    2f94:	84 e0       	ldi	r24, 0x04	; 4
    2f96:	01 c0       	rjmp	.+2      	; 0x2f9a <mmc_disk_read+0x90>
	if (Stat & STA_NOINIT) return RES_NOTRDY;
    2f98:	83 e0       	ldi	r24, 0x03	; 3
		if (cmd == CMD18) send_cmd(CMD12, 0);	/* STOP_TRANSMISSION */
	}
	deselect();

	return count ? RES_ERROR : RES_OK;
}
    2f9a:	df 91       	pop	r29
    2f9c:	cf 91       	pop	r28
    2f9e:	1f 91       	pop	r17
    2fa0:	0f 91       	pop	r16
    2fa2:	ff 90       	pop	r15
    2fa4:	08 95       	ret

00002fa6 <mmc_disk_write>:
DRESULT mmc_disk_write (
	const BYTE *buff,	/* Pointer to the data to be written */
	DWORD sector,		/* Start sector number (LBA) */
	UINT count			/* Sector count (1..128) */
)
{
    2fa6:	cf 92       	push	r12
    2fa8:	df 92       	push	r13
    2faa:	ef 92       	push	r14
    2fac:	ff 92       	push	r15
    2fae:	0f 93       	push	r16
    2fb0:	1f 93       	push	r17
    2fb2:	cf 93       	push	r28
    2fb4:	df 93       	push	r29
    2fb6:	8c 01       	movw	r16, r24
    2fb8:	6a 01       	movw	r12, r20
    2fba:	7b 01       	movw	r14, r22
    2fbc:	e9 01       	movw	r28, r18
	if (!count) return RES_PARERR;
    2fbe:	20 97       	sbiw	r28, 0x00	; 0
    2fc0:	09 f4       	brne	.+2      	; 0x2fc4 <mmc_disk_write+0x1e>
    2fc2:	52 c0       	rjmp	.+164    	; 0x3068 <mmc_disk_write+0xc2>
	if (Stat & STA_NOINIT) return RES_NOTRDY;
    2fc4:	80 91 06 60 	lds	r24, 0x6006	; 0x806006 <Stat>
    2fc8:	80 fd       	sbrc	r24, 0
    2fca:	50 c0       	rjmp	.+160    	; 0x306c <mmc_disk_write+0xc6>
	if (Stat & STA_PROTECT) return RES_WRPRT;
    2fcc:	80 91 06 60 	lds	r24, 0x6006	; 0x806006 <Stat>
    2fd0:	82 fd       	sbrc	r24, 2
    2fd2:	4e c0       	rjmp	.+156    	; 0x3070 <mmc_disk_write+0xca>

	if (!(CardType & CT_BLOCK)) sector *= 512;	/* Convert to byte address if needed */
    2fd4:	80 91 90 61 	lds	r24, 0x6190	; 0x806190 <CardType>
    2fd8:	83 fd       	sbrc	r24, 3
    2fda:	09 c0       	rjmp	.+18     	; 0x2fee <mmc_disk_write+0x48>
    2fdc:	0b 2e       	mov	r0, r27
    2fde:	b9 e0       	ldi	r27, 0x09	; 9
    2fe0:	cc 0c       	add	r12, r12
    2fe2:	dd 1c       	adc	r13, r13
    2fe4:	ee 1c       	adc	r14, r14
    2fe6:	ff 1c       	adc	r15, r15
    2fe8:	ba 95       	dec	r27
    2fea:	d1 f7       	brne	.-12     	; 0x2fe0 <mmc_disk_write+0x3a>
    2fec:	b0 2d       	mov	r27, r0

	if (count == 1) {	/* Single block write */
    2fee:	c1 30       	cpi	r28, 0x01	; 1
    2ff0:	d1 05       	cpc	r29, r1
    2ff2:	71 f4       	brne	.+28     	; 0x3010 <mmc_disk_write+0x6a>
		if ((send_cmd(CMD24, sector) == 0)	/* WRITE_BLOCK */
    2ff4:	b7 01       	movw	r22, r14
    2ff6:	a6 01       	movw	r20, r12
    2ff8:	88 e1       	ldi	r24, 0x18	; 24
    2ffa:	0e 94 5b 16 	call	0x2cb6	; 0x2cb6 <send_cmd>
    2ffe:	81 11       	cpse	r24, r1
    3000:	2c c0       	rjmp	.+88     	; 0x305a <mmc_disk_write+0xb4>
			&& xmit_datablock(buff, 0xFE)) {
    3002:	6e ef       	ldi	r22, 0xFE	; 254
    3004:	c8 01       	movw	r24, r16
    3006:	0e 94 2f 16 	call	0x2c5e	; 0x2c5e <xmit_datablock>
    300a:	89 2b       	or	r24, r25
    300c:	09 f5       	brne	.+66     	; 0x3050 <mmc_disk_write+0xaa>
    300e:	25 c0       	rjmp	.+74     	; 0x305a <mmc_disk_write+0xb4>
			count = 0;
		}
	}
	else {				/* Multiple block write */
		if (CardType & CT_SDC) send_cmd(ACMD23, count);
    3010:	86 70       	andi	r24, 0x06	; 6
    3012:	31 f0       	breq	.+12     	; 0x3020 <mmc_disk_write+0x7a>
    3014:	ae 01       	movw	r20, r28
    3016:	60 e0       	ldi	r22, 0x00	; 0
    3018:	70 e0       	ldi	r23, 0x00	; 0
    301a:	87 e9       	ldi	r24, 0x97	; 151
    301c:	0e 94 5b 16 	call	0x2cb6	; 0x2cb6 <send_cmd>
		if (send_cmd(CMD25, sector) == 0) {	/* WRITE_MULTIPLE_BLOCK */
    3020:	b7 01       	movw	r22, r14
    3022:	a6 01       	movw	r20, r12
    3024:	89 e1       	ldi	r24, 0x19	; 25
    3026:	0e 94 5b 16 	call	0x2cb6	; 0x2cb6 <send_cmd>
    302a:	81 11       	cpse	r24, r1
    302c:	16 c0       	rjmp	.+44     	; 0x305a <mmc_disk_write+0xb4>
			do {
				if (!xmit_datablock(buff, 0xFC)) break;
    302e:	6c ef       	ldi	r22, 0xFC	; 252
    3030:	c8 01       	movw	r24, r16
    3032:	0e 94 2f 16 	call	0x2c5e	; 0x2c5e <xmit_datablock>
    3036:	89 2b       	or	r24, r25
    3038:	19 f0       	breq	.+6      	; 0x3040 <mmc_disk_write+0x9a>
				buff += 512;
    303a:	1e 5f       	subi	r17, 0xFE	; 254
			} while (--count);
    303c:	21 97       	sbiw	r28, 0x01	; 1
    303e:	b9 f7       	brne	.-18     	; 0x302e <mmc_disk_write+0x88>
			if (!xmit_datablock(0, 0xFD)) count = 1;	/* STOP_TRAN token */
    3040:	6d ef       	ldi	r22, 0xFD	; 253
    3042:	80 e0       	ldi	r24, 0x00	; 0
    3044:	90 e0       	ldi	r25, 0x00	; 0
    3046:	0e 94 2f 16 	call	0x2c5e	; 0x2c5e <xmit_datablock>
    304a:	89 2b       	or	r24, r25
    304c:	21 f0       	breq	.+8      	; 0x3056 <mmc_disk_write+0xb0>
    304e:	05 c0       	rjmp	.+10     	; 0x305a <mmc_disk_write+0xb4>
	if (!(CardType & CT_BLOCK)) sector *= 512;	/* Convert to byte address if needed */

	if (count == 1) {	/* Single block write */
		if ((send_cmd(CMD24, sector) == 0)	/* WRITE_BLOCK */
			&& xmit_datablock(buff, 0xFE)) {
			count = 0;
    3050:	c0 e0       	ldi	r28, 0x00	; 0
    3052:	d0 e0       	ldi	r29, 0x00	; 0
    3054:	02 c0       	rjmp	.+4      	; 0x305a <mmc_disk_write+0xb4>
		if (send_cmd(CMD25, sector) == 0) {	/* WRITE_MULTIPLE_BLOCK */
			do {
				if (!xmit_datablock(buff, 0xFC)) break;
				buff += 512;
			} while (--count);
			if (!xmit_datablock(0, 0xFD)) count = 1;	/* STOP_TRAN token */
    3056:	c1 e0       	ldi	r28, 0x01	; 1
    3058:	d0 e0       	ldi	r29, 0x00	; 0
		}
	}
	deselect();
    305a:	0e 94 e4 15 	call	0x2bc8	; 0x2bc8 <deselect>

	return count ? RES_ERROR : RES_OK;
    305e:	81 e0       	ldi	r24, 0x01	; 1
    3060:	cd 2b       	or	r28, r29
    3062:	39 f4       	brne	.+14     	; 0x3072 <mmc_disk_write+0xcc>
    3064:	80 e0       	ldi	r24, 0x00	; 0
    3066:	05 c0       	rjmp	.+10     	; 0x3072 <mmc_disk_write+0xcc>
	const BYTE *buff,	/* Pointer to the data to be written */
	DWORD sector,		/* Start sector number (LBA) */
	UINT count			/* Sector count (1..128) */
)
{
	if (!count) return RES_PARERR;
    3068:	84 e0       	ldi	r24, 0x04	; 4
    306a:	03 c0       	rjmp	.+6      	; 0x3072 <mmc_disk_write+0xcc>
	if (Stat & STA_NOINIT) return RES_NOTRDY;
    306c:	83 e0       	ldi	r24, 0x03	; 3
    306e:	01 c0       	rjmp	.+2      	; 0x3072 <mmc_disk_write+0xcc>
	if (Stat & STA_PROTECT) return RES_WRPRT;
    3070:	82 e0       	ldi	r24, 0x02	; 2
		}
	}
	deselect();

	return count ? RES_ERROR : RES_OK;
}
    3072:	df 91       	pop	r29
    3074:	cf 91       	pop	r28
    3076:	1f 91       	pop	r17
    3078:	0f 91       	pop	r16
    307a:	ff 90       	pop	r15
    307c:	ef 90       	pop	r14
    307e:	df 90       	pop	r13
    3080:	cf 90       	pop	r12
    3082:	08 95       	ret

00003084 <mmc_disk_ioctl>:
#if _USE_IOCTL
DRESULT mmc_disk_ioctl (
	BYTE cmd,		/* Control code */
	void *buff		/* Buffer to send/receive control data */
)
{
    3084:	8f 92       	push	r8
    3086:	9f 92       	push	r9
    3088:	af 92       	push	r10
    308a:	bf 92       	push	r11
    308c:	cf 92       	push	r12
    308e:	df 92       	push	r13
    3090:	ef 92       	push	r14
    3092:	ff 92       	push	r15
    3094:	0f 93       	push	r16
    3096:	1f 93       	push	r17
    3098:	cf 93       	push	r28
    309a:	df 93       	push	r29
    309c:	cd b7       	in	r28, 0x3d	; 61
    309e:	de b7       	in	r29, 0x3e	; 62
    30a0:	60 97       	sbiw	r28, 0x10	; 16
    30a2:	cd bf       	out	0x3d, r28	; 61
    30a4:	de bf       	out	0x3e, r29	; 62
    30a6:	e8 2f       	mov	r30, r24
    30a8:	8b 01       	movw	r16, r22
	SDIO_CTRL *sdi;
	BYTE rc, *bp;
	UINT dc;
#endif

	if (Stat & STA_NOINIT) return RES_NOTRDY;
    30aa:	80 91 06 60 	lds	r24, 0x6006	; 0x806006 <Stat>
    30ae:	80 fd       	sbrc	r24, 0
    30b0:	36 c3       	rjmp	.+1644   	; 0x371e <mmc_disk_ioctl+0x69a>

	res = RES_ERROR;
	switch (cmd) {
    30b2:	8e 2f       	mov	r24, r30
    30b4:	90 e0       	ldi	r25, 0x00	; 0
    30b6:	8a 33       	cpi	r24, 0x3A	; 58
    30b8:	91 05       	cpc	r25, r1
    30ba:	08 f0       	brcs	.+2      	; 0x30be <mmc_disk_ioctl+0x3a>
    30bc:	35 c3       	rjmp	.+1642   	; 0x3728 <mmc_disk_ioctl+0x6a4>
    30be:	fc 01       	movw	r30, r24
    30c0:	e8 5a       	subi	r30, 0xA8	; 168
    30c2:	ff 4f       	sbci	r31, 0xFF	; 255
    30c4:	0c 94 58 37 	jmp	0x6eb0	; 0x6eb0 <__tablejump2__>
	case CTRL_SYNC :		/* Make sure that no pending write process. Do not remove this or written sector might not left updated. */
		if (select()) res = RES_OK;
    30c8:	0e 94 ed 15 	call	0x2bda	; 0x2bda <select>
    30cc:	89 2b       	or	r24, r25
    30ce:	11 f4       	brne	.+4      	; 0x30d4 <mmc_disk_ioctl+0x50>
	UINT dc;
#endif

	if (Stat & STA_NOINIT) return RES_NOTRDY;

	res = RES_ERROR;
    30d0:	11 e0       	ldi	r17, 0x01	; 1
    30d2:	01 c0       	rjmp	.+2      	; 0x30d6 <mmc_disk_ioctl+0x52>
	switch (cmd) {
	case CTRL_SYNC :		/* Make sure that no pending write process. Do not remove this or written sector might not left updated. */
		if (select()) res = RES_OK;
    30d4:	10 e0       	ldi	r17, 0x00	; 0
		deselect();
    30d6:	0e 94 e4 15 	call	0x2bc8	; 0x2bc8 <deselect>
		break;
    30da:	f1 2e       	mov	r15, r17
    30dc:	3a c3       	rjmp	.+1652   	; 0x3752 <mmc_disk_ioctl+0x6ce>

	case GET_SECTOR_COUNT :	/* Get number of sectors on the disk (DWORD) */
		if ((send_cmd(CMD9, 0) == 0) && rcvr_datablock(csd, 16)) {
    30de:	40 e0       	ldi	r20, 0x00	; 0
    30e0:	50 e0       	ldi	r21, 0x00	; 0
    30e2:	ba 01       	movw	r22, r20
    30e4:	89 e0       	ldi	r24, 0x09	; 9
    30e6:	0e 94 5b 16 	call	0x2cb6	; 0x2cb6 <send_cmd>
    30ea:	81 11       	cpse	r24, r1
    30ec:	6e c0       	rjmp	.+220    	; 0x31ca <mmc_disk_ioctl+0x146>
    30ee:	60 e1       	ldi	r22, 0x10	; 16
    30f0:	70 e0       	ldi	r23, 0x00	; 0
    30f2:	ce 01       	movw	r24, r28
    30f4:	01 96       	adiw	r24, 0x01	; 1
    30f6:	0e 94 07 16 	call	0x2c0e	; 0x2c0e <rcvr_datablock>
    30fa:	89 2b       	or	r24, r25
    30fc:	09 f4       	brne	.+2      	; 0x3100 <mmc_disk_ioctl+0x7c>
    30fe:	67 c0       	rjmp	.+206    	; 0x31ce <mmc_disk_ioctl+0x14a>
			if ((csd[0] >> 6) == 1) {	/* SDC ver 2.00 */
    3100:	89 81       	ldd	r24, Y+1	; 0x01
    3102:	82 95       	swap	r24
    3104:	86 95       	lsr	r24
    3106:	86 95       	lsr	r24
    3108:	83 70       	andi	r24, 0x03	; 3
    310a:	81 30       	cpi	r24, 0x01	; 1
    310c:	31 f5       	brne	.+76     	; 0x315a <mmc_disk_ioctl+0xd6>
				csize = csd[9] + ((WORD)csd[8] << 8) + ((DWORD)(csd[7] & 63) << 16) + 1;
    310e:	8a 85       	ldd	r24, Y+10	; 0x0a
    3110:	29 85       	ldd	r18, Y+9	; 0x09
    3112:	30 e0       	ldi	r19, 0x00	; 0
    3114:	32 2f       	mov	r19, r18
    3116:	22 27       	eor	r18, r18
    3118:	28 0f       	add	r18, r24
    311a:	31 1d       	adc	r19, r1
    311c:	88 85       	ldd	r24, Y+8	; 0x08
    311e:	8f 73       	andi	r24, 0x3F	; 63
    3120:	90 e0       	ldi	r25, 0x00	; 0
    3122:	a0 e0       	ldi	r26, 0x00	; 0
    3124:	b0 e0       	ldi	r27, 0x00	; 0
    3126:	dc 01       	movw	r26, r24
    3128:	99 27       	eor	r25, r25
    312a:	88 27       	eor	r24, r24
    312c:	82 0f       	add	r24, r18
    312e:	93 1f       	adc	r25, r19
    3130:	a1 1d       	adc	r26, r1
    3132:	b1 1d       	adc	r27, r1
    3134:	01 96       	adiw	r24, 0x01	; 1
    3136:	a1 1d       	adc	r26, r1
    3138:	b1 1d       	adc	r27, r1
				*(DWORD*)buff = csize << 10;
    313a:	07 2e       	mov	r0, r23
    313c:	7a e0       	ldi	r23, 0x0A	; 10
    313e:	88 0f       	add	r24, r24
    3140:	99 1f       	adc	r25, r25
    3142:	aa 1f       	adc	r26, r26
    3144:	bb 1f       	adc	r27, r27
    3146:	7a 95       	dec	r23
    3148:	d1 f7       	brne	.-12     	; 0x313e <mmc_disk_ioctl+0xba>
    314a:	70 2d       	mov	r23, r0
    314c:	f8 01       	movw	r30, r16
    314e:	80 83       	st	Z, r24
    3150:	91 83       	std	Z+1, r25	; 0x01
    3152:	a2 83       	std	Z+2, r26	; 0x02
    3154:	b3 83       	std	Z+3, r27	; 0x03
			} else {					/* SDC ver 1.XX or MMC*/
				n = (csd[5] & 15) + ((csd[10] & 128) >> 7) + ((csd[9] & 3) << 1) + 2;
				csize = (csd[8] >> 6) + ((WORD)csd[7] << 2) + ((WORD)(csd[6] & 3) << 10) + 1;
				*(DWORD*)buff = csize << (n - 9);
			}
			res = RES_OK;
    3156:	10 e0       	ldi	r17, 0x00	; 0
    3158:	3b c0       	rjmp	.+118    	; 0x31d0 <mmc_disk_ioctl+0x14c>
		if ((send_cmd(CMD9, 0) == 0) && rcvr_datablock(csd, 16)) {
			if ((csd[0] >> 6) == 1) {	/* SDC ver 2.00 */
				csize = csd[9] + ((WORD)csd[8] << 8) + ((DWORD)(csd[7] & 63) << 16) + 1;
				*(DWORD*)buff = csize << 10;
			} else {					/* SDC ver 1.XX or MMC*/
				n = (csd[5] & 15) + ((csd[10] & 128) >> 7) + ((csd[9] & 3) << 1) + 2;
    315a:	2e 81       	ldd	r18, Y+6	; 0x06
    315c:	9b 85       	ldd	r25, Y+11	; 0x0b
    315e:	99 1f       	adc	r25, r25
    3160:	99 27       	eor	r25, r25
    3162:	99 1f       	adc	r25, r25
    3164:	8a 85       	ldd	r24, Y+10	; 0x0a
    3166:	2f 70       	andi	r18, 0x0F	; 15
    3168:	29 0f       	add	r18, r25
    316a:	83 70       	andi	r24, 0x03	; 3
    316c:	88 0f       	add	r24, r24
    316e:	28 0f       	add	r18, r24
    3170:	2e 5f       	subi	r18, 0xFE	; 254
				csize = (csd[8] >> 6) + ((WORD)csd[7] << 2) + ((WORD)(csd[6] & 3) << 10) + 1;
    3172:	39 85       	ldd	r19, Y+9	; 0x09
    3174:	88 85       	ldd	r24, Y+8	; 0x08
    3176:	90 e0       	ldi	r25, 0x00	; 0
    3178:	88 0f       	add	r24, r24
    317a:	99 1f       	adc	r25, r25
    317c:	88 0f       	add	r24, r24
    317e:	99 1f       	adc	r25, r25
    3180:	32 95       	swap	r19
    3182:	36 95       	lsr	r19
    3184:	36 95       	lsr	r19
    3186:	33 70       	andi	r19, 0x03	; 3
    3188:	ac 01       	movw	r20, r24
    318a:	43 0f       	add	r20, r19
    318c:	51 1d       	adc	r21, r1
    318e:	9f 81       	ldd	r25, Y+7	; 0x07
    3190:	93 70       	andi	r25, 0x03	; 3
    3192:	89 2f       	mov	r24, r25
    3194:	90 e0       	ldi	r25, 0x00	; 0
    3196:	98 2f       	mov	r25, r24
    3198:	88 27       	eor	r24, r24
    319a:	99 0f       	add	r25, r25
    319c:	99 0f       	add	r25, r25
    319e:	84 0f       	add	r24, r20
    31a0:	95 1f       	adc	r25, r21
    31a2:	01 96       	adiw	r24, 0x01	; 1
    31a4:	a0 e0       	ldi	r26, 0x00	; 0
    31a6:	b0 e0       	ldi	r27, 0x00	; 0
				*(DWORD*)buff = csize << (n - 9);
    31a8:	30 e0       	ldi	r19, 0x00	; 0
    31aa:	29 50       	subi	r18, 0x09	; 9
    31ac:	31 09       	sbc	r19, r1
    31ae:	04 c0       	rjmp	.+8      	; 0x31b8 <mmc_disk_ioctl+0x134>
    31b0:	88 0f       	add	r24, r24
    31b2:	99 1f       	adc	r25, r25
    31b4:	aa 1f       	adc	r26, r26
    31b6:	bb 1f       	adc	r27, r27
    31b8:	2a 95       	dec	r18
    31ba:	d2 f7       	brpl	.-12     	; 0x31b0 <mmc_disk_ioctl+0x12c>
    31bc:	f8 01       	movw	r30, r16
    31be:	80 83       	st	Z, r24
    31c0:	91 83       	std	Z+1, r25	; 0x01
    31c2:	a2 83       	std	Z+2, r26	; 0x02
    31c4:	b3 83       	std	Z+3, r27	; 0x03
			}
			res = RES_OK;
    31c6:	10 e0       	ldi	r17, 0x00	; 0
    31c8:	03 c0       	rjmp	.+6      	; 0x31d0 <mmc_disk_ioctl+0x14c>
	UINT dc;
#endif

	if (Stat & STA_NOINIT) return RES_NOTRDY;

	res = RES_ERROR;
    31ca:	11 e0       	ldi	r17, 0x01	; 1
    31cc:	01 c0       	rjmp	.+2      	; 0x31d0 <mmc_disk_ioctl+0x14c>
    31ce:	11 e0       	ldi	r17, 0x01	; 1
				csize = (csd[8] >> 6) + ((WORD)csd[7] << 2) + ((WORD)(csd[6] & 3) << 10) + 1;
				*(DWORD*)buff = csize << (n - 9);
			}
			res = RES_OK;
		}
		deselect();
    31d0:	0e 94 e4 15 	call	0x2bc8	; 0x2bc8 <deselect>
		break;
    31d4:	f1 2e       	mov	r15, r17
    31d6:	bd c2       	rjmp	.+1402   	; 0x3752 <mmc_disk_ioctl+0x6ce>

	case GET_BLOCK_SIZE :	/* Get erase block size in unit of sector (DWORD) */
		if (CardType & CT_SD2) {	/* SDv2? */
    31d8:	80 91 90 61 	lds	r24, 0x6190	; 0x806190 <CardType>
    31dc:	82 ff       	sbrs	r24, 2
    31de:	35 c0       	rjmp	.+106    	; 0x324a <mmc_disk_ioctl+0x1c6>
			if (send_cmd(ACMD13, 0) == 0) {	/* Read SD status */
    31e0:	40 e0       	ldi	r20, 0x00	; 0
    31e2:	50 e0       	ldi	r21, 0x00	; 0
    31e4:	ba 01       	movw	r22, r20
    31e6:	8d e8       	ldi	r24, 0x8D	; 141
    31e8:	0e 94 5b 16 	call	0x2cb6	; 0x2cb6 <send_cmd>
    31ec:	81 11       	cpse	r24, r1
    31ee:	8b c0       	rjmp	.+278    	; 0x3306 <mmc_disk_ioctl+0x282>
				xchg_spi(0xFF);
    31f0:	8f ef       	ldi	r24, 0xFF	; 255
    31f2:	0e 94 85 15 	call	0x2b0a	; 0x2b0a <xchg_spi>
				if (rcvr_datablock(csd, 16)) {				/* Read partial block */
    31f6:	60 e1       	ldi	r22, 0x10	; 16
    31f8:	70 e0       	ldi	r23, 0x00	; 0
    31fa:	ce 01       	movw	r24, r28
    31fc:	01 96       	adiw	r24, 0x01	; 1
    31fe:	0e 94 07 16 	call	0x2c0e	; 0x2c0e <rcvr_datablock>
    3202:	89 2b       	or	r24, r25
    3204:	39 f4       	brne	.+14     	; 0x3214 <mmc_disk_ioctl+0x190>
	UINT dc;
#endif

	if (Stat & STA_NOINIT) return RES_NOTRDY;

	res = RES_ERROR;
    3206:	11 e0       	ldi	r17, 0x01	; 1
    3208:	83 c0       	rjmp	.+262    	; 0x3310 <mmc_disk_ioctl+0x28c>
	case GET_BLOCK_SIZE :	/* Get erase block size in unit of sector (DWORD) */
		if (CardType & CT_SD2) {	/* SDv2? */
			if (send_cmd(ACMD13, 0) == 0) {	/* Read SD status */
				xchg_spi(0xFF);
				if (rcvr_datablock(csd, 16)) {				/* Read partial block */
					for (n = 64 - 16; n; n--) xchg_spi(0xFF);	/* Purge trailing data */
    320a:	8f ef       	ldi	r24, 0xFF	; 255
    320c:	0e 94 85 15 	call	0x2b0a	; 0x2b0a <xchg_spi>
    3210:	fa 94       	dec	r15
    3212:	04 c0       	rjmp	.+8      	; 0x321c <mmc_disk_ioctl+0x198>
    3214:	0f 2e       	mov	r0, r31
    3216:	f0 e3       	ldi	r31, 0x30	; 48
    3218:	ff 2e       	mov	r15, r31
    321a:	f0 2d       	mov	r31, r0
    321c:	f1 10       	cpse	r15, r1
    321e:	f5 cf       	rjmp	.-22     	; 0x320a <mmc_disk_ioctl+0x186>
					*(DWORD*)buff = 16UL << (csd[10] >> 4);
    3220:	2b 85       	ldd	r18, Y+11	; 0x0b
    3222:	22 95       	swap	r18
    3224:	2f 70       	andi	r18, 0x0F	; 15
    3226:	80 e1       	ldi	r24, 0x10	; 16
    3228:	90 e0       	ldi	r25, 0x00	; 0
    322a:	a0 e0       	ldi	r26, 0x00	; 0
    322c:	b0 e0       	ldi	r27, 0x00	; 0
    322e:	04 c0       	rjmp	.+8      	; 0x3238 <mmc_disk_ioctl+0x1b4>
    3230:	88 0f       	add	r24, r24
    3232:	99 1f       	adc	r25, r25
    3234:	aa 1f       	adc	r26, r26
    3236:	bb 1f       	adc	r27, r27
    3238:	2a 95       	dec	r18
    323a:	d2 f7       	brpl	.-12     	; 0x3230 <mmc_disk_ioctl+0x1ac>
    323c:	f8 01       	movw	r30, r16
    323e:	80 83       	st	Z, r24
    3240:	91 83       	std	Z+1, r25	; 0x01
    3242:	a2 83       	std	Z+2, r26	; 0x02
    3244:	b3 83       	std	Z+3, r27	; 0x03
					res = RES_OK;
    3246:	10 e0       	ldi	r17, 0x00	; 0
    3248:	63 c0       	rjmp	.+198    	; 0x3310 <mmc_disk_ioctl+0x28c>
				}
			}
		} else {					/* SDv1 or MMCv3 */
			if ((send_cmd(CMD9, 0) == 0) && rcvr_datablock(csd, 16)) {	/* Read CSD */
    324a:	40 e0       	ldi	r20, 0x00	; 0
    324c:	50 e0       	ldi	r21, 0x00	; 0
    324e:	ba 01       	movw	r22, r20
    3250:	89 e0       	ldi	r24, 0x09	; 9
    3252:	0e 94 5b 16 	call	0x2cb6	; 0x2cb6 <send_cmd>
    3256:	81 11       	cpse	r24, r1
    3258:	58 c0       	rjmp	.+176    	; 0x330a <mmc_disk_ioctl+0x286>
    325a:	60 e1       	ldi	r22, 0x10	; 16
    325c:	70 e0       	ldi	r23, 0x00	; 0
    325e:	ce 01       	movw	r24, r28
    3260:	01 96       	adiw	r24, 0x01	; 1
    3262:	0e 94 07 16 	call	0x2c0e	; 0x2c0e <rcvr_datablock>
    3266:	89 2b       	or	r24, r25
    3268:	09 f4       	brne	.+2      	; 0x326c <mmc_disk_ioctl+0x1e8>
    326a:	51 c0       	rjmp	.+162    	; 0x330e <mmc_disk_ioctl+0x28a>
				if (CardType & CT_SD1) {	/* SDv1 */
    326c:	80 91 90 61 	lds	r24, 0x6190	; 0x806190 <CardType>
    3270:	81 ff       	sbrs	r24, 1
    3272:	1f c0       	rjmp	.+62     	; 0x32b2 <mmc_disk_ioctl+0x22e>
					*(DWORD*)buff = (((csd[10] & 63) << 1) + ((WORD)(csd[11] & 128) >> 7) + 1) << ((csd[13] >> 6) - 1);
    3274:	8b 85       	ldd	r24, Y+11	; 0x0b
    3276:	8f 73       	andi	r24, 0x3F	; 63
    3278:	90 e0       	ldi	r25, 0x00	; 0
    327a:	88 0f       	add	r24, r24
    327c:	99 1f       	adc	r25, r25
    327e:	2c 85       	ldd	r18, Y+12	; 0x0c
    3280:	27 fd       	sbrc	r18, 7
    3282:	01 96       	adiw	r24, 0x01	; 1
    3284:	01 96       	adiw	r24, 0x01	; 1
    3286:	2e 85       	ldd	r18, Y+14	; 0x0e
    3288:	22 95       	swap	r18
    328a:	26 95       	lsr	r18
    328c:	26 95       	lsr	r18
    328e:	23 70       	andi	r18, 0x03	; 3
    3290:	30 e0       	ldi	r19, 0x00	; 0
    3292:	21 50       	subi	r18, 0x01	; 1
    3294:	31 09       	sbc	r19, r1
    3296:	02 c0       	rjmp	.+4      	; 0x329c <mmc_disk_ioctl+0x218>
    3298:	88 0f       	add	r24, r24
    329a:	99 1f       	adc	r25, r25
    329c:	2a 95       	dec	r18
    329e:	e2 f7       	brpl	.-8      	; 0x3298 <mmc_disk_ioctl+0x214>
    32a0:	a0 e0       	ldi	r26, 0x00	; 0
    32a2:	b0 e0       	ldi	r27, 0x00	; 0
    32a4:	f8 01       	movw	r30, r16
    32a6:	80 83       	st	Z, r24
    32a8:	91 83       	std	Z+1, r25	; 0x01
    32aa:	a2 83       	std	Z+2, r26	; 0x02
    32ac:	b3 83       	std	Z+3, r27	; 0x03
				} else {					/* MMCv3 */
					*(DWORD*)buff = ((WORD)((csd[10] & 124) >> 2) + 1) * (((csd[11] & 3) << 3) + ((csd[11] & 224) >> 5) + 1);
				}
				res = RES_OK;
    32ae:	10 e0       	ldi	r17, 0x00	; 0
    32b0:	2f c0       	rjmp	.+94     	; 0x3310 <mmc_disk_ioctl+0x28c>
		} else {					/* SDv1 or MMCv3 */
			if ((send_cmd(CMD9, 0) == 0) && rcvr_datablock(csd, 16)) {	/* Read CSD */
				if (CardType & CT_SD1) {	/* SDv1 */
					*(DWORD*)buff = (((csd[10] & 63) << 1) + ((WORD)(csd[11] & 128) >> 7) + 1) << ((csd[13] >> 6) - 1);
				} else {					/* MMCv3 */
					*(DWORD*)buff = ((WORD)((csd[10] & 124) >> 2) + 1) * (((csd[11] & 3) << 3) + ((csd[11] & 224) >> 5) + 1);
    32b2:	8b 85       	ldd	r24, Y+11	; 0x0b
    32b4:	8c 77       	andi	r24, 0x7C	; 124
    32b6:	90 e0       	ldi	r25, 0x00	; 0
    32b8:	95 95       	asr	r25
    32ba:	87 95       	ror	r24
    32bc:	95 95       	asr	r25
    32be:	87 95       	ror	r24
    32c0:	01 96       	adiw	r24, 0x01	; 1
    32c2:	4c 85       	ldd	r20, Y+12	; 0x0c
    32c4:	24 2f       	mov	r18, r20
    32c6:	23 70       	andi	r18, 0x03	; 3
    32c8:	30 e0       	ldi	r19, 0x00	; 0
    32ca:	22 0f       	add	r18, r18
    32cc:	33 1f       	adc	r19, r19
    32ce:	22 0f       	add	r18, r18
    32d0:	33 1f       	adc	r19, r19
    32d2:	22 0f       	add	r18, r18
    32d4:	33 1f       	adc	r19, r19
    32d6:	42 95       	swap	r20
    32d8:	46 95       	lsr	r20
    32da:	47 70       	andi	r20, 0x07	; 7
    32dc:	24 0f       	add	r18, r20
    32de:	31 1d       	adc	r19, r1
    32e0:	2f 5f       	subi	r18, 0xFF	; 255
    32e2:	3f 4f       	sbci	r19, 0xFF	; 255
    32e4:	28 9f       	mul	r18, r24
    32e6:	a0 01       	movw	r20, r0
    32e8:	29 9f       	mul	r18, r25
    32ea:	50 0d       	add	r21, r0
    32ec:	38 9f       	mul	r19, r24
    32ee:	50 0d       	add	r21, r0
    32f0:	11 24       	eor	r1, r1
    32f2:	ca 01       	movw	r24, r20
    32f4:	a0 e0       	ldi	r26, 0x00	; 0
    32f6:	b0 e0       	ldi	r27, 0x00	; 0
    32f8:	f8 01       	movw	r30, r16
    32fa:	80 83       	st	Z, r24
    32fc:	91 83       	std	Z+1, r25	; 0x01
    32fe:	a2 83       	std	Z+2, r26	; 0x02
    3300:	b3 83       	std	Z+3, r27	; 0x03
				}
				res = RES_OK;
    3302:	10 e0       	ldi	r17, 0x00	; 0
    3304:	05 c0       	rjmp	.+10     	; 0x3310 <mmc_disk_ioctl+0x28c>
	UINT dc;
#endif

	if (Stat & STA_NOINIT) return RES_NOTRDY;

	res = RES_ERROR;
    3306:	11 e0       	ldi	r17, 0x01	; 1
    3308:	03 c0       	rjmp	.+6      	; 0x3310 <mmc_disk_ioctl+0x28c>
    330a:	11 e0       	ldi	r17, 0x01	; 1
    330c:	01 c0       	rjmp	.+2      	; 0x3310 <mmc_disk_ioctl+0x28c>
    330e:	11 e0       	ldi	r17, 0x01	; 1
					*(DWORD*)buff = ((WORD)((csd[10] & 124) >> 2) + 1) * (((csd[11] & 3) << 3) + ((csd[11] & 224) >> 5) + 1);
				}
				res = RES_OK;
			}
		}
		deselect();
    3310:	0e 94 e4 15 	call	0x2bc8	; 0x2bc8 <deselect>
		break;
    3314:	f1 2e       	mov	r15, r17
    3316:	1d c2       	rjmp	.+1082   	; 0x3752 <mmc_disk_ioctl+0x6ce>

	case CTRL_TRIM:		/* Erase a block of sectors (used when _USE_TRIM in ffconf.h is 1) */
		if (!(CardType & CT_SDC)) break;				/* Check if the card is SDC */
    3318:	80 91 90 61 	lds	r24, 0x6190	; 0x806190 <CardType>
    331c:	86 70       	andi	r24, 0x06	; 6
    331e:	09 f4       	brne	.+2      	; 0x3322 <mmc_disk_ioctl+0x29e>
    3320:	07 c2       	rjmp	.+1038   	; 0x3730 <mmc_disk_ioctl+0x6ac>
		if (mmc_disk_ioctl(MMC_GET_CSD, csd)) break;	/* Get CSD */
    3322:	be 01       	movw	r22, r28
    3324:	6f 5f       	subi	r22, 0xFF	; 255
    3326:	7f 4f       	sbci	r23, 0xFF	; 255
    3328:	83 e3       	ldi	r24, 0x33	; 51
    332a:	0e 94 42 18 	call	0x3084	; 0x3084 <mmc_disk_ioctl>
    332e:	f8 2e       	mov	r15, r24
    3330:	81 11       	cpse	r24, r1
    3332:	01 c2       	rjmp	.+1026   	; 0x3736 <mmc_disk_ioctl+0x6b2>
		if (!(csd[0] >> 6) && !(csd[10] & 0x40)) break;	/* Check if sector erase can be applied to the card */
    3334:	89 81       	ldd	r24, Y+1	; 0x01
    3336:	82 95       	swap	r24
    3338:	86 95       	lsr	r24
    333a:	86 95       	lsr	r24
    333c:	83 70       	andi	r24, 0x03	; 3
    333e:	19 f4       	brne	.+6      	; 0x3346 <mmc_disk_ioctl+0x2c2>
    3340:	8b 85       	ldd	r24, Y+11	; 0x0b
    3342:	86 ff       	sbrs	r24, 6
    3344:	fb c1       	rjmp	.+1014   	; 0x373c <mmc_disk_ioctl+0x6b8>
		dp = buff; st = dp[0]; ed = dp[1];				/* Load sector block */
    3346:	d8 01       	movw	r26, r16
    3348:	4d 91       	ld	r20, X+
    334a:	5d 91       	ld	r21, X+
    334c:	6d 91       	ld	r22, X+
    334e:	7c 91       	ld	r23, X
    3350:	13 97       	sbiw	r26, 0x03	; 3
    3352:	14 96       	adiw	r26, 0x04	; 4
    3354:	8d 90       	ld	r8, X+
    3356:	9d 90       	ld	r9, X+
    3358:	ad 90       	ld	r10, X+
    335a:	bc 90       	ld	r11, X
    335c:	17 97       	sbiw	r26, 0x07	; 7
		if (!(CardType & CT_BLOCK)) {
    335e:	80 91 90 61 	lds	r24, 0x6190	; 0x806190 <CardType>
    3362:	83 fd       	sbrc	r24, 3
    3364:	12 c0       	rjmp	.+36     	; 0x338a <mmc_disk_ioctl+0x306>
			st *= 512; ed *= 512;
    3366:	03 2e       	mov	r0, r19
    3368:	39 e0       	ldi	r19, 0x09	; 9
    336a:	44 0f       	add	r20, r20
    336c:	55 1f       	adc	r21, r21
    336e:	66 1f       	adc	r22, r22
    3370:	77 1f       	adc	r23, r23
    3372:	3a 95       	dec	r19
    3374:	d1 f7       	brne	.-12     	; 0x336a <mmc_disk_ioctl+0x2e6>
    3376:	30 2d       	mov	r19, r0
    3378:	07 2e       	mov	r0, r23
    337a:	79 e0       	ldi	r23, 0x09	; 9
    337c:	88 0c       	add	r8, r8
    337e:	99 1c       	adc	r9, r9
    3380:	aa 1c       	adc	r10, r10
    3382:	bb 1c       	adc	r11, r11
    3384:	7a 95       	dec	r23
    3386:	d1 f7       	brne	.-12     	; 0x337c <mmc_disk_ioctl+0x2f8>
    3388:	70 2d       	mov	r23, r0
		}
		if (send_cmd(CMD32, st) == 0 && send_cmd(CMD33, ed) == 0 && send_cmd(CMD38, 0) == 0 && wait_ready(30000)) {	/* Erase sector block */
    338a:	80 e2       	ldi	r24, 0x20	; 32
    338c:	0e 94 5b 16 	call	0x2cb6	; 0x2cb6 <send_cmd>
    3390:	81 11       	cpse	r24, r1
    3392:	d7 c1       	rjmp	.+942    	; 0x3742 <mmc_disk_ioctl+0x6be>
    3394:	b5 01       	movw	r22, r10
    3396:	a4 01       	movw	r20, r8
    3398:	81 e2       	ldi	r24, 0x21	; 33
    339a:	0e 94 5b 16 	call	0x2cb6	; 0x2cb6 <send_cmd>
    339e:	81 11       	cpse	r24, r1
    33a0:	d3 c1       	rjmp	.+934    	; 0x3748 <mmc_disk_ioctl+0x6c4>
    33a2:	40 e0       	ldi	r20, 0x00	; 0
    33a4:	50 e0       	ldi	r21, 0x00	; 0
    33a6:	ba 01       	movw	r22, r20
    33a8:	86 e2       	ldi	r24, 0x26	; 38
    33aa:	0e 94 5b 16 	call	0x2cb6	; 0x2cb6 <send_cmd>
    33ae:	81 11       	cpse	r24, r1
    33b0:	ce c1       	rjmp	.+924    	; 0x374e <mmc_disk_ioctl+0x6ca>
    33b2:	80 e3       	ldi	r24, 0x30	; 48
    33b4:	95 e7       	ldi	r25, 0x75	; 117
    33b6:	0e 94 c7 15 	call	0x2b8e	; 0x2b8e <wait_ready>
    33ba:	89 2b       	or	r24, r25
    33bc:	09 f0       	breq	.+2      	; 0x33c0 <mmc_disk_ioctl+0x33c>
    33be:	c9 c1       	rjmp	.+914    	; 0x3752 <mmc_disk_ioctl+0x6ce>
	UINT dc;
#endif

	if (Stat & STA_NOINIT) return RES_NOTRDY;

	res = RES_ERROR;
    33c0:	ff 24       	eor	r15, r15
    33c2:	f3 94       	inc	r15
    33c4:	c6 c1       	rjmp	.+908    	; 0x3752 <mmc_disk_ioctl+0x6ce>
		break;

	/* Following commands are never used by FatFs module */

	case MMC_GET_TYPE :		/* Get card type flags (1 byte) */
		*ptr = CardType;
    33c6:	80 91 90 61 	lds	r24, 0x6190	; 0x806190 <CardType>
    33ca:	fb 01       	movw	r30, r22
    33cc:	80 83       	st	Z, r24
		res = RES_OK;
    33ce:	f1 2c       	mov	r15, r1
		break;
    33d0:	c0 c1       	rjmp	.+896    	; 0x3752 <mmc_disk_ioctl+0x6ce>

	case MMC_GET_CSD :		/* Receive CSD as a data block (16 bytes) */
		if (send_cmd(CMD9, 0) == 0 && rcvr_datablock(ptr, 16)) {	/* READ_CSD */
    33d2:	40 e0       	ldi	r20, 0x00	; 0
    33d4:	50 e0       	ldi	r21, 0x00	; 0
    33d6:	ba 01       	movw	r22, r20
    33d8:	89 e0       	ldi	r24, 0x09	; 9
    33da:	0e 94 5b 16 	call	0x2cb6	; 0x2cb6 <send_cmd>
    33de:	81 11       	cpse	r24, r1
    33e0:	09 c0       	rjmp	.+18     	; 0x33f4 <mmc_disk_ioctl+0x370>
    33e2:	60 e1       	ldi	r22, 0x10	; 16
    33e4:	70 e0       	ldi	r23, 0x00	; 0
    33e6:	c8 01       	movw	r24, r16
    33e8:	0e 94 07 16 	call	0x2c0e	; 0x2c0e <rcvr_datablock>
    33ec:	89 2b       	or	r24, r25
    33ee:	21 f4       	brne	.+8      	; 0x33f8 <mmc_disk_ioctl+0x374>
	UINT dc;
#endif

	if (Stat & STA_NOINIT) return RES_NOTRDY;

	res = RES_ERROR;
    33f0:	11 e0       	ldi	r17, 0x01	; 1
    33f2:	03 c0       	rjmp	.+6      	; 0x33fa <mmc_disk_ioctl+0x376>
    33f4:	11 e0       	ldi	r17, 0x01	; 1
    33f6:	01 c0       	rjmp	.+2      	; 0x33fa <mmc_disk_ioctl+0x376>
		res = RES_OK;
		break;

	case MMC_GET_CSD :		/* Receive CSD as a data block (16 bytes) */
		if (send_cmd(CMD9, 0) == 0 && rcvr_datablock(ptr, 16)) {	/* READ_CSD */
			res = RES_OK;
    33f8:	10 e0       	ldi	r17, 0x00	; 0
		}
		deselect();
    33fa:	0e 94 e4 15 	call	0x2bc8	; 0x2bc8 <deselect>
		break;
    33fe:	f1 2e       	mov	r15, r17
    3400:	a8 c1       	rjmp	.+848    	; 0x3752 <mmc_disk_ioctl+0x6ce>

	case MMC_GET_CID :		/* Receive CID as a data block (16 bytes) */
		if (send_cmd(CMD10, 0) == 0 && rcvr_datablock(ptr, 16)) {	/* READ_CID */
    3402:	40 e0       	ldi	r20, 0x00	; 0
    3404:	50 e0       	ldi	r21, 0x00	; 0
    3406:	ba 01       	movw	r22, r20
    3408:	8a e0       	ldi	r24, 0x0A	; 10
    340a:	0e 94 5b 16 	call	0x2cb6	; 0x2cb6 <send_cmd>
    340e:	81 11       	cpse	r24, r1
    3410:	09 c0       	rjmp	.+18     	; 0x3424 <mmc_disk_ioctl+0x3a0>
    3412:	60 e1       	ldi	r22, 0x10	; 16
    3414:	70 e0       	ldi	r23, 0x00	; 0
    3416:	c8 01       	movw	r24, r16
    3418:	0e 94 07 16 	call	0x2c0e	; 0x2c0e <rcvr_datablock>
    341c:	89 2b       	or	r24, r25
    341e:	21 f4       	brne	.+8      	; 0x3428 <mmc_disk_ioctl+0x3a4>
	UINT dc;
#endif

	if (Stat & STA_NOINIT) return RES_NOTRDY;

	res = RES_ERROR;
    3420:	11 e0       	ldi	r17, 0x01	; 1
    3422:	03 c0       	rjmp	.+6      	; 0x342a <mmc_disk_ioctl+0x3a6>
    3424:	11 e0       	ldi	r17, 0x01	; 1
    3426:	01 c0       	rjmp	.+2      	; 0x342a <mmc_disk_ioctl+0x3a6>
		deselect();
		break;

	case MMC_GET_CID :		/* Receive CID as a data block (16 bytes) */
		if (send_cmd(CMD10, 0) == 0 && rcvr_datablock(ptr, 16)) {	/* READ_CID */
			res = RES_OK;
    3428:	10 e0       	ldi	r17, 0x00	; 0
		}
		deselect();
    342a:	0e 94 e4 15 	call	0x2bc8	; 0x2bc8 <deselect>
		break;
    342e:	f1 2e       	mov	r15, r17
    3430:	90 c1       	rjmp	.+800    	; 0x3752 <mmc_disk_ioctl+0x6ce>

	case MMC_GET_OCR :		/* Receive OCR as an R3 resp (4 bytes) */
		if (send_cmd(CMD58, 0) == 0) {	/* READ_OCR */
    3432:	40 e0       	ldi	r20, 0x00	; 0
    3434:	50 e0       	ldi	r21, 0x00	; 0
    3436:	ba 01       	movw	r22, r20
    3438:	8a e3       	ldi	r24, 0x3A	; 58
    343a:	0e 94 5b 16 	call	0x2cb6	; 0x2cb6 <send_cmd>
    343e:	88 23       	and	r24, r24
    3440:	71 f0       	breq	.+28     	; 0x345e <mmc_disk_ioctl+0x3da>
	UINT dc;
#endif

	if (Stat & STA_NOINIT) return RES_NOTRDY;

	res = RES_ERROR;
    3442:	11 e0       	ldi	r17, 0x01	; 1
    3444:	12 c0       	rjmp	.+36     	; 0x346a <mmc_disk_ioctl+0x3e6>
		deselect();
		break;

	case MMC_GET_OCR :		/* Receive OCR as an R3 resp (4 bytes) */
		if (send_cmd(CMD58, 0) == 0) {	/* READ_OCR */
			for (n = 4; n; n--) *ptr++ = xchg_spi(0xFF);
    3446:	68 01       	movw	r12, r16
    3448:	ff ef       	ldi	r31, 0xFF	; 255
    344a:	cf 1a       	sub	r12, r31
    344c:	df 0a       	sbc	r13, r31
    344e:	8f ef       	ldi	r24, 0xFF	; 255
    3450:	0e 94 85 15 	call	0x2b0a	; 0x2b0a <xchg_spi>
    3454:	d8 01       	movw	r26, r16
    3456:	8c 93       	st	X, r24
    3458:	fa 94       	dec	r15
    345a:	86 01       	movw	r16, r12
    345c:	03 c0       	rjmp	.+6      	; 0x3464 <mmc_disk_ioctl+0x3e0>
    345e:	68 94       	set
    3460:	ff 24       	eor	r15, r15
    3462:	f2 f8       	bld	r15, 2
    3464:	f1 10       	cpse	r15, r1
    3466:	ef cf       	rjmp	.-34     	; 0x3446 <mmc_disk_ioctl+0x3c2>
			res = RES_OK;
    3468:	10 e0       	ldi	r17, 0x00	; 0
		}
		deselect();
    346a:	0e 94 e4 15 	call	0x2bc8	; 0x2bc8 <deselect>
		break;
    346e:	f1 2e       	mov	r15, r17
    3470:	70 c1       	rjmp	.+736    	; 0x3752 <mmc_disk_ioctl+0x6ce>

	case MMC_GET_SDSTAT :	/* Receive SD statsu as a data block (64 bytes) */
		if (send_cmd(ACMD13, 0) == 0) {	/* SD_STATUS */
    3472:	40 e0       	ldi	r20, 0x00	; 0
    3474:	50 e0       	ldi	r21, 0x00	; 0
    3476:	ba 01       	movw	r22, r20
    3478:	8d e8       	ldi	r24, 0x8D	; 141
    347a:	0e 94 5b 16 	call	0x2cb6	; 0x2cb6 <send_cmd>
    347e:	81 11       	cpse	r24, r1
    3480:	0c c0       	rjmp	.+24     	; 0x349a <mmc_disk_ioctl+0x416>
			xchg_spi(0xFF);
    3482:	8f ef       	ldi	r24, 0xFF	; 255
    3484:	0e 94 85 15 	call	0x2b0a	; 0x2b0a <xchg_spi>
			if (rcvr_datablock(ptr, 64)) res = RES_OK;
    3488:	60 e4       	ldi	r22, 0x40	; 64
    348a:	70 e0       	ldi	r23, 0x00	; 0
    348c:	c8 01       	movw	r24, r16
    348e:	0e 94 07 16 	call	0x2c0e	; 0x2c0e <rcvr_datablock>
    3492:	89 2b       	or	r24, r25
    3494:	21 f4       	brne	.+8      	; 0x349e <mmc_disk_ioctl+0x41a>
	UINT dc;
#endif

	if (Stat & STA_NOINIT) return RES_NOTRDY;

	res = RES_ERROR;
    3496:	11 e0       	ldi	r17, 0x01	; 1
    3498:	03 c0       	rjmp	.+6      	; 0x34a0 <mmc_disk_ioctl+0x41c>
    349a:	11 e0       	ldi	r17, 0x01	; 1
    349c:	01 c0       	rjmp	.+2      	; 0x34a0 <mmc_disk_ioctl+0x41c>
		break;

	case MMC_GET_SDSTAT :	/* Receive SD statsu as a data block (64 bytes) */
		if (send_cmd(ACMD13, 0) == 0) {	/* SD_STATUS */
			xchg_spi(0xFF);
			if (rcvr_datablock(ptr, 64)) res = RES_OK;
    349e:	10 e0       	ldi	r17, 0x00	; 0
		}
		deselect();
    34a0:	0e 94 e4 15 	call	0x2bc8	; 0x2bc8 <deselect>
		break;
    34a4:	f1 2e       	mov	r15, r17
    34a6:	55 c1       	rjmp	.+682    	; 0x3752 <mmc_disk_ioctl+0x6ce>

	case CTRL_POWER_OFF :	/* Power off */
		power_off();
    34a8:	0e 94 7a 15 	call	0x2af4	; 0x2af4 <power_off>
		Stat |= STA_NOINIT;
    34ac:	80 91 06 60 	lds	r24, 0x6006	; 0x806006 <Stat>
    34b0:	81 60       	ori	r24, 0x01	; 1
    34b2:	80 93 06 60 	sts	0x6006, r24	; 0x806006 <Stat>
		res = RES_OK;
    34b6:	f1 2c       	mov	r15, r1
		break;
    34b8:	4c c1       	rjmp	.+664    	; 0x3752 <mmc_disk_ioctl+0x6ce>
#if _USE_ISDIO
	case ISDIO_READ:
		sdi = buff;
		if (send_cmd(CMD48, 0x80000000 | (DWORD)sdi->func << 28 | (DWORD)sdi->addr << 9 | ((sdi->ndata - 1) & 0x1FF)) == 0) {
    34ba:	fb 01       	movw	r30, r22
    34bc:	40 81       	ld	r20, Z
    34be:	50 e0       	ldi	r21, 0x00	; 0
    34c0:	60 e0       	ldi	r22, 0x00	; 0
    34c2:	70 e0       	ldi	r23, 0x00	; 0
    34c4:	03 2e       	mov	r0, r19
    34c6:	3c e1       	ldi	r19, 0x1C	; 28
    34c8:	44 0f       	add	r20, r20
    34ca:	55 1f       	adc	r21, r21
    34cc:	66 1f       	adc	r22, r22
    34ce:	77 1f       	adc	r23, r23
    34d0:	3a 95       	dec	r19
    34d2:	d1 f7       	brne	.-12     	; 0x34c8 <mmc_disk_ioctl+0x444>
    34d4:	30 2d       	mov	r19, r0
    34d6:	83 81       	ldd	r24, Z+3	; 0x03
    34d8:	94 81       	ldd	r25, Z+4	; 0x04
    34da:	a5 81       	ldd	r26, Z+5	; 0x05
    34dc:	b6 81       	ldd	r27, Z+6	; 0x06
    34de:	07 2e       	mov	r0, r23
    34e0:	79 e0       	ldi	r23, 0x09	; 9
    34e2:	88 0f       	add	r24, r24
    34e4:	99 1f       	adc	r25, r25
    34e6:	aa 1f       	adc	r26, r26
    34e8:	bb 1f       	adc	r27, r27
    34ea:	7a 95       	dec	r23
    34ec:	d1 f7       	brne	.-12     	; 0x34e2 <mmc_disk_ioctl+0x45e>
    34ee:	70 2d       	mov	r23, r0
    34f0:	48 2b       	or	r20, r24
    34f2:	59 2b       	or	r21, r25
    34f4:	6a 2b       	or	r22, r26
    34f6:	7b 2b       	or	r23, r27
    34f8:	81 81       	ldd	r24, Z+1	; 0x01
    34fa:	92 81       	ldd	r25, Z+2	; 0x02
    34fc:	01 97       	sbiw	r24, 0x01	; 1
    34fe:	91 70       	andi	r25, 0x01	; 1
    3500:	a0 e0       	ldi	r26, 0x00	; 0
    3502:	b0 e0       	ldi	r27, 0x00	; 0
    3504:	48 2b       	or	r20, r24
    3506:	59 2b       	or	r21, r25
    3508:	6a 2b       	or	r22, r26
    350a:	7b 2b       	or	r23, r27
    350c:	70 68       	ori	r23, 0x80	; 128
    350e:	80 e3       	ldi	r24, 0x30	; 48
    3510:	0e 94 5b 16 	call	0x2cb6	; 0x2cb6 <send_cmd>
    3514:	81 11       	cpse	r24, r1
    3516:	3c c0       	rjmp	.+120    	; 0x3590 <mmc_disk_ioctl+0x50c>
			for (Timer1 = 100; (rc = xchg_spi(0xFF)) == 0xFF && Timer1; ) ;
    3518:	84 e6       	ldi	r24, 0x64	; 100
    351a:	80 93 92 61 	sts	0x6192, r24	; 0x806192 <Timer1>
    351e:	8f ef       	ldi	r24, 0xFF	; 255
    3520:	0e 94 85 15 	call	0x2b0a	; 0x2b0a <xchg_spi>
    3524:	8f 3f       	cpi	r24, 0xFF	; 255
    3526:	21 f4       	brne	.+8      	; 0x3530 <mmc_disk_ioctl+0x4ac>
    3528:	90 91 92 61 	lds	r25, 0x6192	; 0x806192 <Timer1>
    352c:	91 11       	cpse	r25, r1
    352e:	f7 cf       	rjmp	.-18     	; 0x351e <mmc_disk_ioctl+0x49a>
			if (rc == 0xFE) {
    3530:	8e 3f       	cpi	r24, 0xFE	; 254
    3532:	81 f5       	brne	.+96     	; 0x3594 <mmc_disk_ioctl+0x510>
				for (bp = sdi->data, dc = sdi->ndata; dc; dc--) *bp++ = xchg_spi(0xFF);
    3534:	d8 01       	movw	r26, r16
    3536:	17 96       	adiw	r26, 0x07	; 7
    3538:	cd 90       	ld	r12, X+
    353a:	dc 90       	ld	r13, X
    353c:	18 97       	sbiw	r26, 0x08	; 8
    353e:	11 96       	adiw	r26, 0x01	; 1
    3540:	ed 90       	ld	r14, X+
    3542:	fc 90       	ld	r15, X
    3544:	12 97       	sbiw	r26, 0x02	; 2
    3546:	0d c0       	rjmp	.+26     	; 0x3562 <mmc_disk_ioctl+0x4de>
    3548:	56 01       	movw	r10, r12
    354a:	bf ef       	ldi	r27, 0xFF	; 255
    354c:	ab 1a       	sub	r10, r27
    354e:	bb 0a       	sbc	r11, r27
    3550:	8f ef       	ldi	r24, 0xFF	; 255
    3552:	0e 94 85 15 	call	0x2b0a	; 0x2b0a <xchg_spi>
    3556:	f6 01       	movw	r30, r12
    3558:	80 83       	st	Z, r24
    355a:	f1 e0       	ldi	r31, 0x01	; 1
    355c:	ef 1a       	sub	r14, r31
    355e:	f1 08       	sbc	r15, r1
    3560:	65 01       	movw	r12, r10
    3562:	e1 14       	cp	r14, r1
    3564:	f1 04       	cpc	r15, r1
    3566:	81 f7       	brne	.-32     	; 0x3548 <mmc_disk_ioctl+0x4c4>
				for (dc = 514 - sdi->ndata; dc; dc--) xchg_spi(0xFF);
    3568:	d8 01       	movw	r26, r16
    356a:	11 96       	adiw	r26, 0x01	; 1
    356c:	8d 91       	ld	r24, X+
    356e:	9c 91       	ld	r25, X
    3570:	12 97       	sbiw	r26, 0x02	; 2
    3572:	02 e0       	ldi	r16, 0x02	; 2
    3574:	12 e0       	ldi	r17, 0x02	; 2
    3576:	08 1b       	sub	r16, r24
    3578:	19 0b       	sbc	r17, r25
    357a:	05 c0       	rjmp	.+10     	; 0x3586 <mmc_disk_ioctl+0x502>
    357c:	8f ef       	ldi	r24, 0xFF	; 255
    357e:	0e 94 85 15 	call	0x2b0a	; 0x2b0a <xchg_spi>
    3582:	01 50       	subi	r16, 0x01	; 1
    3584:	11 09       	sbc	r17, r1
    3586:	01 15       	cp	r16, r1
    3588:	11 05       	cpc	r17, r1
    358a:	c1 f7       	brne	.-16     	; 0x357c <mmc_disk_ioctl+0x4f8>
				res = RES_OK;
    358c:	10 e0       	ldi	r17, 0x00	; 0
    358e:	03 c0       	rjmp	.+6      	; 0x3596 <mmc_disk_ioctl+0x512>
	UINT dc;
#endif

	if (Stat & STA_NOINIT) return RES_NOTRDY;

	res = RES_ERROR;
    3590:	11 e0       	ldi	r17, 0x01	; 1
    3592:	01 c0       	rjmp	.+2      	; 0x3596 <mmc_disk_ioctl+0x512>
    3594:	11 e0       	ldi	r17, 0x01	; 1
				for (bp = sdi->data, dc = sdi->ndata; dc; dc--) *bp++ = xchg_spi(0xFF);
				for (dc = 514 - sdi->ndata; dc; dc--) xchg_spi(0xFF);
				res = RES_OK;
			}
		}
		deselect();
    3596:	0e 94 e4 15 	call	0x2bc8	; 0x2bc8 <deselect>
		break;
    359a:	f1 2e       	mov	r15, r17
    359c:	da c0       	rjmp	.+436    	; 0x3752 <mmc_disk_ioctl+0x6ce>

	case ISDIO_WRITE:
		sdi = buff;
		if (send_cmd(CMD49, 0x80000000 | (DWORD)sdi->func << 28 | (DWORD)sdi->addr << 9 | ((sdi->ndata - 1) & 0x1FF)) == 0) {
    359e:	fb 01       	movw	r30, r22
    35a0:	40 81       	ld	r20, Z
    35a2:	50 e0       	ldi	r21, 0x00	; 0
    35a4:	60 e0       	ldi	r22, 0x00	; 0
    35a6:	70 e0       	ldi	r23, 0x00	; 0
    35a8:	03 2e       	mov	r0, r19
    35aa:	3c e1       	ldi	r19, 0x1C	; 28
    35ac:	44 0f       	add	r20, r20
    35ae:	55 1f       	adc	r21, r21
    35b0:	66 1f       	adc	r22, r22
    35b2:	77 1f       	adc	r23, r23
    35b4:	3a 95       	dec	r19
    35b6:	d1 f7       	brne	.-12     	; 0x35ac <mmc_disk_ioctl+0x528>
    35b8:	30 2d       	mov	r19, r0
    35ba:	83 81       	ldd	r24, Z+3	; 0x03
    35bc:	94 81       	ldd	r25, Z+4	; 0x04
    35be:	a5 81       	ldd	r26, Z+5	; 0x05
    35c0:	b6 81       	ldd	r27, Z+6	; 0x06
    35c2:	07 2e       	mov	r0, r23
    35c4:	79 e0       	ldi	r23, 0x09	; 9
    35c6:	88 0f       	add	r24, r24
    35c8:	99 1f       	adc	r25, r25
    35ca:	aa 1f       	adc	r26, r26
    35cc:	bb 1f       	adc	r27, r27
    35ce:	7a 95       	dec	r23
    35d0:	d1 f7       	brne	.-12     	; 0x35c6 <mmc_disk_ioctl+0x542>
    35d2:	70 2d       	mov	r23, r0
    35d4:	48 2b       	or	r20, r24
    35d6:	59 2b       	or	r21, r25
    35d8:	6a 2b       	or	r22, r26
    35da:	7b 2b       	or	r23, r27
    35dc:	81 81       	ldd	r24, Z+1	; 0x01
    35de:	92 81       	ldd	r25, Z+2	; 0x02
    35e0:	01 97       	sbiw	r24, 0x01	; 1
    35e2:	91 70       	andi	r25, 0x01	; 1
    35e4:	a0 e0       	ldi	r26, 0x00	; 0
    35e6:	b0 e0       	ldi	r27, 0x00	; 0
    35e8:	48 2b       	or	r20, r24
    35ea:	59 2b       	or	r21, r25
    35ec:	6a 2b       	or	r22, r26
    35ee:	7b 2b       	or	r23, r27
    35f0:	70 68       	ori	r23, 0x80	; 128
    35f2:	81 e3       	ldi	r24, 0x31	; 49
    35f4:	0e 94 5b 16 	call	0x2cb6	; 0x2cb6 <send_cmd>
    35f8:	81 11       	cpse	r24, r1
    35fa:	38 c0       	rjmp	.+112    	; 0x366c <mmc_disk_ioctl+0x5e8>
			xchg_spi(0xFF); xchg_spi(0xFE);
    35fc:	8f ef       	ldi	r24, 0xFF	; 255
    35fe:	0e 94 85 15 	call	0x2b0a	; 0x2b0a <xchg_spi>
    3602:	8e ef       	ldi	r24, 0xFE	; 254
    3604:	0e 94 85 15 	call	0x2b0a	; 0x2b0a <xchg_spi>
			for (bp = sdi->data, dc = sdi->ndata; dc; dc--) xchg_spi(*bp++);
    3608:	d8 01       	movw	r26, r16
    360a:	17 96       	adiw	r26, 0x07	; 7
    360c:	ed 91       	ld	r30, X+
    360e:	fc 91       	ld	r31, X
    3610:	18 97       	sbiw	r26, 0x08	; 8
    3612:	11 96       	adiw	r26, 0x01	; 1
    3614:	ed 90       	ld	r14, X+
    3616:	fc 90       	ld	r15, X
    3618:	12 97       	sbiw	r26, 0x02	; 2
    361a:	0b c0       	rjmp	.+22     	; 0x3632 <mmc_disk_ioctl+0x5ae>
    361c:	6f 01       	movw	r12, r30
    361e:	bf ef       	ldi	r27, 0xFF	; 255
    3620:	cb 1a       	sub	r12, r27
    3622:	db 0a       	sbc	r13, r27
    3624:	80 81       	ld	r24, Z
    3626:	0e 94 85 15 	call	0x2b0a	; 0x2b0a <xchg_spi>
    362a:	e1 e0       	ldi	r30, 0x01	; 1
    362c:	ee 1a       	sub	r14, r30
    362e:	f1 08       	sbc	r15, r1
    3630:	f6 01       	movw	r30, r12
    3632:	e1 14       	cp	r14, r1
    3634:	f1 04       	cpc	r15, r1
    3636:	91 f7       	brne	.-28     	; 0x361c <mmc_disk_ioctl+0x598>
			for (dc = 514 - sdi->ndata; dc; dc--) xchg_spi(0xFF);
    3638:	d8 01       	movw	r26, r16
    363a:	11 96       	adiw	r26, 0x01	; 1
    363c:	8d 91       	ld	r24, X+
    363e:	9c 91       	ld	r25, X
    3640:	12 97       	sbiw	r26, 0x02	; 2
    3642:	02 e0       	ldi	r16, 0x02	; 2
    3644:	12 e0       	ldi	r17, 0x02	; 2
    3646:	08 1b       	sub	r16, r24
    3648:	19 0b       	sbc	r17, r25
    364a:	05 c0       	rjmp	.+10     	; 0x3656 <mmc_disk_ioctl+0x5d2>
    364c:	8f ef       	ldi	r24, 0xFF	; 255
    364e:	0e 94 85 15 	call	0x2b0a	; 0x2b0a <xchg_spi>
    3652:	01 50       	subi	r16, 0x01	; 1
    3654:	11 09       	sbc	r17, r1
    3656:	01 15       	cp	r16, r1
    3658:	11 05       	cpc	r17, r1
    365a:	c1 f7       	brne	.-16     	; 0x364c <mmc_disk_ioctl+0x5c8>
			if ((xchg_spi(0xFF) & 0x1F) == 0x05) res = RES_OK;
    365c:	8f ef       	ldi	r24, 0xFF	; 255
    365e:	0e 94 85 15 	call	0x2b0a	; 0x2b0a <xchg_spi>
    3662:	8f 71       	andi	r24, 0x1F	; 31
    3664:	85 30       	cpi	r24, 0x05	; 5
    3666:	21 f0       	breq	.+8      	; 0x3670 <mmc_disk_ioctl+0x5ec>
	UINT dc;
#endif

	if (Stat & STA_NOINIT) return RES_NOTRDY;

	res = RES_ERROR;
    3668:	11 e0       	ldi	r17, 0x01	; 1
    366a:	03 c0       	rjmp	.+6      	; 0x3672 <mmc_disk_ioctl+0x5ee>
    366c:	11 e0       	ldi	r17, 0x01	; 1
    366e:	01 c0       	rjmp	.+2      	; 0x3672 <mmc_disk_ioctl+0x5ee>
		sdi = buff;
		if (send_cmd(CMD49, 0x80000000 | (DWORD)sdi->func << 28 | (DWORD)sdi->addr << 9 | ((sdi->ndata - 1) & 0x1FF)) == 0) {
			xchg_spi(0xFF); xchg_spi(0xFE);
			for (bp = sdi->data, dc = sdi->ndata; dc; dc--) xchg_spi(*bp++);
			for (dc = 514 - sdi->ndata; dc; dc--) xchg_spi(0xFF);
			if ((xchg_spi(0xFF) & 0x1F) == 0x05) res = RES_OK;
    3670:	10 e0       	ldi	r17, 0x00	; 0
		}
		deselect();
    3672:	0e 94 e4 15 	call	0x2bc8	; 0x2bc8 <deselect>
		break;
    3676:	f1 2e       	mov	r15, r17
    3678:	6c c0       	rjmp	.+216    	; 0x3752 <mmc_disk_ioctl+0x6ce>

	case ISDIO_MRITE:
		sdi = buff;
		if (send_cmd(CMD49, 0x84000000 | (DWORD)sdi->func << 28 | (DWORD)sdi->addr << 9 | sdi->ndata >> 8) == 0) {
    367a:	fb 01       	movw	r30, r22
    367c:	40 81       	ld	r20, Z
    367e:	50 e0       	ldi	r21, 0x00	; 0
    3680:	60 e0       	ldi	r22, 0x00	; 0
    3682:	70 e0       	ldi	r23, 0x00	; 0
    3684:	03 2e       	mov	r0, r19
    3686:	3c e1       	ldi	r19, 0x1C	; 28
    3688:	44 0f       	add	r20, r20
    368a:	55 1f       	adc	r21, r21
    368c:	66 1f       	adc	r22, r22
    368e:	77 1f       	adc	r23, r23
    3690:	3a 95       	dec	r19
    3692:	d1 f7       	brne	.-12     	; 0x3688 <mmc_disk_ioctl+0x604>
    3694:	30 2d       	mov	r19, r0
    3696:	83 81       	ldd	r24, Z+3	; 0x03
    3698:	94 81       	ldd	r25, Z+4	; 0x04
    369a:	a5 81       	ldd	r26, Z+5	; 0x05
    369c:	b6 81       	ldd	r27, Z+6	; 0x06
    369e:	07 2e       	mov	r0, r23
    36a0:	79 e0       	ldi	r23, 0x09	; 9
    36a2:	88 0f       	add	r24, r24
    36a4:	99 1f       	adc	r25, r25
    36a6:	aa 1f       	adc	r26, r26
    36a8:	bb 1f       	adc	r27, r27
    36aa:	7a 95       	dec	r23
    36ac:	d1 f7       	brne	.-12     	; 0x36a2 <mmc_disk_ioctl+0x61e>
    36ae:	70 2d       	mov	r23, r0
    36b0:	48 2b       	or	r20, r24
    36b2:	59 2b       	or	r21, r25
    36b4:	6a 2b       	or	r22, r26
    36b6:	7b 2b       	or	r23, r27
    36b8:	82 81       	ldd	r24, Z+2	; 0x02
    36ba:	90 e0       	ldi	r25, 0x00	; 0
    36bc:	a0 e0       	ldi	r26, 0x00	; 0
    36be:	b0 e0       	ldi	r27, 0x00	; 0
    36c0:	48 2b       	or	r20, r24
    36c2:	59 2b       	or	r21, r25
    36c4:	6a 2b       	or	r22, r26
    36c6:	7b 2b       	or	r23, r27
    36c8:	74 68       	ori	r23, 0x84	; 132
    36ca:	81 e3       	ldi	r24, 0x31	; 49
    36cc:	0e 94 5b 16 	call	0x2cb6	; 0x2cb6 <send_cmd>
    36d0:	81 11       	cpse	r24, r1
    36d2:	1e c0       	rjmp	.+60     	; 0x3710 <mmc_disk_ioctl+0x68c>
			xchg_spi(0xFF); xchg_spi(0xFE);
    36d4:	8f ef       	ldi	r24, 0xFF	; 255
    36d6:	0e 94 85 15 	call	0x2b0a	; 0x2b0a <xchg_spi>
    36da:	8e ef       	ldi	r24, 0xFE	; 254
    36dc:	0e 94 85 15 	call	0x2b0a	; 0x2b0a <xchg_spi>
			xchg_spi(sdi->ndata);
    36e0:	d8 01       	movw	r26, r16
    36e2:	11 96       	adiw	r26, 0x01	; 1
    36e4:	8c 91       	ld	r24, X
    36e6:	0e 94 85 15 	call	0x2b0a	; 0x2b0a <xchg_spi>
			for (dc = 513; dc; dc--) xchg_spi(0xFF);
    36ea:	01 e0       	ldi	r16, 0x01	; 1
    36ec:	12 e0       	ldi	r17, 0x02	; 2
    36ee:	05 c0       	rjmp	.+10     	; 0x36fa <mmc_disk_ioctl+0x676>
    36f0:	8f ef       	ldi	r24, 0xFF	; 255
    36f2:	0e 94 85 15 	call	0x2b0a	; 0x2b0a <xchg_spi>
    36f6:	01 50       	subi	r16, 0x01	; 1
    36f8:	11 09       	sbc	r17, r1
    36fa:	01 15       	cp	r16, r1
    36fc:	11 05       	cpc	r17, r1
    36fe:	c1 f7       	brne	.-16     	; 0x36f0 <mmc_disk_ioctl+0x66c>
			if ((xchg_spi(0xFF) & 0x1F) == 0x05) res = RES_OK;
    3700:	8f ef       	ldi	r24, 0xFF	; 255
    3702:	0e 94 85 15 	call	0x2b0a	; 0x2b0a <xchg_spi>
    3706:	8f 71       	andi	r24, 0x1F	; 31
    3708:	85 30       	cpi	r24, 0x05	; 5
    370a:	21 f0       	breq	.+8      	; 0x3714 <mmc_disk_ioctl+0x690>
	UINT dc;
#endif

	if (Stat & STA_NOINIT) return RES_NOTRDY;

	res = RES_ERROR;
    370c:	11 e0       	ldi	r17, 0x01	; 1
    370e:	03 c0       	rjmp	.+6      	; 0x3716 <mmc_disk_ioctl+0x692>
    3710:	11 e0       	ldi	r17, 0x01	; 1
    3712:	01 c0       	rjmp	.+2      	; 0x3716 <mmc_disk_ioctl+0x692>
		sdi = buff;
		if (send_cmd(CMD49, 0x84000000 | (DWORD)sdi->func << 28 | (DWORD)sdi->addr << 9 | sdi->ndata >> 8) == 0) {
			xchg_spi(0xFF); xchg_spi(0xFE);
			xchg_spi(sdi->ndata);
			for (dc = 513; dc; dc--) xchg_spi(0xFF);
			if ((xchg_spi(0xFF) & 0x1F) == 0x05) res = RES_OK;
    3714:	10 e0       	ldi	r17, 0x00	; 0
		}
		deselect();
    3716:	0e 94 e4 15 	call	0x2bc8	; 0x2bc8 <deselect>
		break;
    371a:	f1 2e       	mov	r15, r17
    371c:	1a c0       	rjmp	.+52     	; 0x3752 <mmc_disk_ioctl+0x6ce>
	SDIO_CTRL *sdi;
	BYTE rc, *bp;
	UINT dc;
#endif

	if (Stat & STA_NOINIT) return RES_NOTRDY;
    371e:	0f 2e       	mov	r0, r31
    3720:	f3 e0       	ldi	r31, 0x03	; 3
    3722:	ff 2e       	mov	r15, r31
    3724:	f0 2d       	mov	r31, r0
    3726:	15 c0       	rjmp	.+42     	; 0x3752 <mmc_disk_ioctl+0x6ce>
		}
		deselect();
		break;
#endif
	default:
		res = RES_PARERR;
    3728:	68 94       	set
    372a:	ff 24       	eor	r15, r15
    372c:	f2 f8       	bld	r15, 2
    372e:	11 c0       	rjmp	.+34     	; 0x3752 <mmc_disk_ioctl+0x6ce>
	UINT dc;
#endif

	if (Stat & STA_NOINIT) return RES_NOTRDY;

	res = RES_ERROR;
    3730:	ff 24       	eor	r15, r15
    3732:	f3 94       	inc	r15
    3734:	0e c0       	rjmp	.+28     	; 0x3752 <mmc_disk_ioctl+0x6ce>
    3736:	ff 24       	eor	r15, r15
    3738:	f3 94       	inc	r15
    373a:	0b c0       	rjmp	.+22     	; 0x3752 <mmc_disk_ioctl+0x6ce>
    373c:	ff 24       	eor	r15, r15
    373e:	f3 94       	inc	r15
    3740:	08 c0       	rjmp	.+16     	; 0x3752 <mmc_disk_ioctl+0x6ce>
    3742:	ff 24       	eor	r15, r15
    3744:	f3 94       	inc	r15
    3746:	05 c0       	rjmp	.+10     	; 0x3752 <mmc_disk_ioctl+0x6ce>
    3748:	ff 24       	eor	r15, r15
    374a:	f3 94       	inc	r15
    374c:	02 c0       	rjmp	.+4      	; 0x3752 <mmc_disk_ioctl+0x6ce>
    374e:	ff 24       	eor	r15, r15
    3750:	f3 94       	inc	r15
	default:
		res = RES_PARERR;
	}

	return res;
}
    3752:	8f 2d       	mov	r24, r15
    3754:	60 96       	adiw	r28, 0x10	; 16
    3756:	cd bf       	out	0x3d, r28	; 61
    3758:	de bf       	out	0x3e, r29	; 62
    375a:	df 91       	pop	r29
    375c:	cf 91       	pop	r28
    375e:	1f 91       	pop	r17
    3760:	0f 91       	pop	r16
    3762:	ff 90       	pop	r15
    3764:	ef 90       	pop	r14
    3766:	df 90       	pop	r13
    3768:	cf 90       	pop	r12
    376a:	bf 90       	pop	r11
    376c:	af 90       	pop	r10
    376e:	9f 90       	pop	r9
    3770:	8f 90       	pop	r8
    3772:	08 95       	ret

00003774 <disk_timerproc>:

void disk_timerproc (void)
{
	BYTE n, s;

	n = Timer1;				/* 100Hz decrement timer */
    3774:	80 91 92 61 	lds	r24, 0x6192	; 0x806192 <Timer1>
	if (n) Timer1 = --n;
    3778:	88 23       	and	r24, r24
    377a:	19 f0       	breq	.+6      	; 0x3782 <disk_timerproc+0xe>
    377c:	81 50       	subi	r24, 0x01	; 1
    377e:	80 93 92 61 	sts	0x6192, r24	; 0x806192 <Timer1>
	n = Timer2;
    3782:	80 91 91 61 	lds	r24, 0x6191	; 0x806191 <Timer2>
	if (n) Timer2 = --n;
    3786:	88 23       	and	r24, r24
    3788:	19 f0       	breq	.+6      	; 0x3790 <disk_timerproc+0x1c>
    378a:	81 50       	subi	r24, 0x01	; 1
    378c:	80 93 91 61 	sts	0x6191, r24	; 0x806191 <Timer2>

	s = Stat;
    3790:	80 91 06 60 	lds	r24, 0x6006	; 0x806006 <Stat>
		s |= STA_PROTECT;
	} else {				/* Write enabled */
		s &= ~STA_PROTECT;
	}
	if (MMC_CD) {			/* Card inserted */
		s &= ~STA_NODISK;
    3794:	89 7f       	andi	r24, 0xF9	; 249
	} else {				/* Socket empty */
		s |= (STA_NODISK | STA_NOINIT);
	}
	Stat = s;				/* Update MMC status */
    3796:	80 93 06 60 	sts	0x6006, r24	; 0x806006 <Stat>
    379a:	08 95       	ret

0000379c <disk_initialize>:


//bp

DSTATUS disk_initialize (BYTE pdrv){
	return mmc_disk_initialize();
    379c:	0e 94 a7 16 	call	0x2d4e	; 0x2d4e <mmc_disk_initialize>
}
    37a0:	08 95       	ret

000037a2 <disk_status>:

DSTATUS disk_status (BYTE pdrv){
	return mmc_disk_status();
    37a2:	0e 94 82 17 	call	0x2f04	; 0x2f04 <mmc_disk_status>
}
    37a6:	08 95       	ret

000037a8 <disk_read>:

DRESULT disk_read (BYTE pdrv, BYTE* buff, DWORD sector, UINT count){
    37a8:	0f 93       	push	r16
    37aa:	1f 93       	push	r17
    37ac:	cb 01       	movw	r24, r22
    37ae:	ba 01       	movw	r22, r20
    37b0:	a9 01       	movw	r20, r18
    37b2:	98 01       	movw	r18, r16
	return mmc_disk_read(buff, sector, count);
    37b4:	0e 94 85 17 	call	0x2f0a	; 0x2f0a <mmc_disk_read>
}
    37b8:	1f 91       	pop	r17
    37ba:	0f 91       	pop	r16
    37bc:	08 95       	ret

000037be <disk_write>:

DRESULT disk_write (BYTE pdrv, const BYTE* buff, DWORD sector, UINT count){
    37be:	0f 93       	push	r16
    37c0:	1f 93       	push	r17
    37c2:	cb 01       	movw	r24, r22
    37c4:	ba 01       	movw	r22, r20
    37c6:	a9 01       	movw	r20, r18
    37c8:	98 01       	movw	r18, r16
	return mmc_disk_write(buff, sector, count);
    37ca:	0e 94 d3 17 	call	0x2fa6	; 0x2fa6 <mmc_disk_write>
}
    37ce:	1f 91       	pop	r17
    37d0:	0f 91       	pop	r16
    37d2:	08 95       	ret

000037d4 <disk_ioctl>:

DRESULT disk_ioctl (BYTE pdrv, BYTE cmd, void* buff){
    37d4:	86 2f       	mov	r24, r22
	return mmc_disk_ioctl(cmd, buff);
    37d6:	ba 01       	movw	r22, r20
    37d8:	0e 94 42 18 	call	0x3084	; 0x3084 <mmc_disk_ioctl>
}
    37dc:	08 95       	ret

000037de <get_fattime>:

	/* Get local time */
	//rtc_gettime(&rtc);

	/* Pack date and time into a DWORD variable */
	return ((DWORD)(myRTC.year - 1980) << 25)
    37de:	e3 e7       	ldi	r30, 0x73	; 115
    37e0:	f3 e6       	ldi	r31, 0x63	; 99
    37e2:	40 81       	ld	r20, Z
    37e4:	51 81       	ldd	r21, Z+1	; 0x01
    37e6:	4c 5b       	subi	r20, 0xBC	; 188
    37e8:	57 40       	sbci	r21, 0x07	; 7
    37ea:	60 e0       	ldi	r22, 0x00	; 0
    37ec:	70 e0       	ldi	r23, 0x00	; 0
    37ee:	03 2e       	mov	r0, r19
    37f0:	39 e1       	ldi	r19, 0x19	; 25
    37f2:	44 0f       	add	r20, r20
    37f4:	55 1f       	adc	r21, r21
    37f6:	66 1f       	adc	r22, r22
    37f8:	77 1f       	adc	r23, r23
    37fa:	3a 95       	dec	r19
    37fc:	d1 f7       	brne	.-12     	; 0x37f2 <get_fattime+0x14>
    37fe:	30 2d       	mov	r19, r0
	| ((DWORD)myRTC.month << 21)
    3800:	82 81       	ldd	r24, Z+2	; 0x02
    3802:	90 e0       	ldi	r25, 0x00	; 0
    3804:	a0 e0       	ldi	r26, 0x00	; 0
    3806:	b0 e0       	ldi	r27, 0x00	; 0
    3808:	07 2e       	mov	r0, r23
    380a:	75 e1       	ldi	r23, 0x15	; 21
    380c:	88 0f       	add	r24, r24
    380e:	99 1f       	adc	r25, r25
    3810:	aa 1f       	adc	r26, r26
    3812:	bb 1f       	adc	r27, r27
    3814:	7a 95       	dec	r23
    3816:	d1 f7       	brne	.-12     	; 0x380c <get_fattime+0x2e>
    3818:	70 2d       	mov	r23, r0
    381a:	48 2b       	or	r20, r24
    381c:	59 2b       	or	r21, r25
    381e:	6a 2b       	or	r22, r26
    3820:	7b 2b       	or	r23, r27
	| ((DWORD)myRTC.mday << 16)
    3822:	83 81       	ldd	r24, Z+3	; 0x03
    3824:	90 e0       	ldi	r25, 0x00	; 0
    3826:	a0 e0       	ldi	r26, 0x00	; 0
    3828:	b0 e0       	ldi	r27, 0x00	; 0
    382a:	dc 01       	movw	r26, r24
    382c:	99 27       	eor	r25, r25
    382e:	88 27       	eor	r24, r24
    3830:	48 2b       	or	r20, r24
    3832:	59 2b       	or	r21, r25
    3834:	6a 2b       	or	r22, r26
    3836:	7b 2b       	or	r23, r27
	| ((DWORD)myRTC.hour << 11)
    3838:	85 81       	ldd	r24, Z+5	; 0x05
    383a:	90 e0       	ldi	r25, 0x00	; 0
    383c:	a0 e0       	ldi	r26, 0x00	; 0
    383e:	b0 e0       	ldi	r27, 0x00	; 0
    3840:	07 2e       	mov	r0, r23
    3842:	7b e0       	ldi	r23, 0x0B	; 11
    3844:	88 0f       	add	r24, r24
    3846:	99 1f       	adc	r25, r25
    3848:	aa 1f       	adc	r26, r26
    384a:	bb 1f       	adc	r27, r27
    384c:	7a 95       	dec	r23
    384e:	d1 f7       	brne	.-12     	; 0x3844 <get_fattime+0x66>
    3850:	70 2d       	mov	r23, r0
    3852:	48 2b       	or	r20, r24
    3854:	59 2b       	or	r21, r25
    3856:	6a 2b       	or	r22, r26
    3858:	7b 2b       	or	r23, r27
	| ((DWORD)myRTC.min << 5)
    385a:	86 81       	ldd	r24, Z+6	; 0x06
    385c:	90 e0       	ldi	r25, 0x00	; 0
    385e:	a0 e0       	ldi	r26, 0x00	; 0
    3860:	b0 e0       	ldi	r27, 0x00	; 0
    3862:	88 0f       	add	r24, r24
    3864:	99 1f       	adc	r25, r25
    3866:	aa 1f       	adc	r26, r26
    3868:	bb 1f       	adc	r27, r27
    386a:	88 0f       	add	r24, r24
    386c:	99 1f       	adc	r25, r25
    386e:	aa 1f       	adc	r26, r26
    3870:	bb 1f       	adc	r27, r27
    3872:	88 0f       	add	r24, r24
    3874:	99 1f       	adc	r25, r25
    3876:	aa 1f       	adc	r26, r26
    3878:	bb 1f       	adc	r27, r27
    387a:	88 0f       	add	r24, r24
    387c:	99 1f       	adc	r25, r25
    387e:	aa 1f       	adc	r26, r26
    3880:	bb 1f       	adc	r27, r27
    3882:	88 0f       	add	r24, r24
    3884:	99 1f       	adc	r25, r25
    3886:	aa 1f       	adc	r26, r26
    3888:	bb 1f       	adc	r27, r27
    388a:	84 2b       	or	r24, r20
    388c:	95 2b       	or	r25, r21
    388e:	a6 2b       	or	r26, r22
    3890:	b7 2b       	or	r27, r23
	| ((DWORD)myRTC.sec >> 1);
    3892:	27 81       	ldd	r18, Z+7	; 0x07
    3894:	26 95       	lsr	r18

	/* Get local time */
	//rtc_gettime(&rtc);

	/* Pack date and time into a DWORD variable */
	return ((DWORD)(myRTC.year - 1980) << 25)
    3896:	bc 01       	movw	r22, r24
    3898:	cd 01       	movw	r24, r26
    389a:	62 2b       	or	r22, r18
	| ((DWORD)myRTC.month << 21)
	| ((DWORD)myRTC.mday << 16)
	| ((DWORD)myRTC.hour << 11)
	| ((DWORD)myRTC.min << 5)
	| ((DWORD)myRTC.sec >> 1);
}
    389c:	08 95       	ret

0000389e <_ZL15initialize_portv>:
		sleep_mode();
    }
}

static void initialize_port(void)
{
    389e:	cf 93       	push	r28
    38a0:	df 93       	push	r29
	//SPIMmmc.cpower_on()
	//***
	
	//o|[g
	PORTD.DIRSET = PIN6_bm; //LEDo
    38a2:	a0 e6       	ldi	r26, 0x60	; 96
    38a4:	b4 e0       	ldi	r27, 0x04	; 4
    38a6:	20 e4       	ldi	r18, 0x40	; 64
    38a8:	11 96       	adiw	r26, 0x01	; 1
    38aa:	2c 93       	st	X, r18
    38ac:	11 97       	sbiw	r26, 0x01	; 1
	PORTF.DIRSET = PIN5_bm; //XBeeX[v
    38ae:	c0 ea       	ldi	r28, 0xA0	; 160
    38b0:	d4 e0       	ldi	r29, 0x04	; 4
    38b2:	80 e2       	ldi	r24, 0x20	; 32
    38b4:	89 83       	std	Y+1, r24	; 0x01
	PORTA.DIRSET = PIN5_bm; //v[
    38b6:	e0 e0       	ldi	r30, 0x00	; 0
    38b8:	f4 e0       	ldi	r31, 0x04	; 4
    38ba:	81 83       	std	Z+1, r24	; 0x01
	PORTA.DIRSET = PIN4_bm; //v5V	
    38bc:	90 e1       	ldi	r25, 0x10	; 16
    38be:	91 83       	std	Z+1, r25	; 0x01
	PORTA.DIRSET = PIN2_bm; //PORTA PIN2:Zbgp
    38c0:	34 e0       	ldi	r19, 0x04	; 4
    38c2:	31 83       	std	Z+1, r19	; 0x01
	return 2.0 * (float)ADC0.RES / 65536; //1024*64 (10bit,64)
}

static void sleep_anemo(void)
{
	PORTA.OUTCLR = PIN5_bm; //[f
    38c4:	86 83       	std	Z+6, r24	; 0x06
	PORTA.OUTCLR = PIN4_bm; //5V~
    38c6:	96 83       	std	Z+6, r25	; 0x06
	PORTA.DIRSET = PIN4_bm; //v5V	
	PORTA.DIRSET = PIN2_bm; //PORTA PIN2:Zbgp
	sleep_anemo();   //vdrAX[v

	//|[g
	PORTD.DIRCLR = PIN4_bm; //O[uxZTAD
    38c8:	12 96       	adiw	r26, 0x02	; 2
    38ca:	9c 93       	st	X, r25
    38cc:	12 97       	sbiw	r26, 0x02	; 2
	PORTD.DIRCLR = PIN2_bm; //ZTAD
    38ce:	12 96       	adiw	r26, 0x02	; 2
    38d0:	3c 93       	st	X, r19
    38d2:	12 97       	sbiw	r26, 0x02	; 2
	PORTF.DIRCLR = PIN4_bm; //pAD1
    38d4:	9a 83       	std	Y+2, r25	; 0x02
	PORTD.DIRCLR = PIN5_bm; //pAD2
    38d6:	12 96       	adiw	r26, 0x02	; 2
    38d8:	8c 93       	st	X, r24
    38da:	12 97       	sbiw	r26, 0x02	; 2
	PORTD.DIRCLR = PIN3_bm; //pAD3
    38dc:	88 e0       	ldi	r24, 0x08	; 8
    38de:	12 96       	adiw	r26, 0x02	; 2
    38e0:	8c 93       	st	X, r24
	PORTA.DIRCLR = PIN6_bm; //pIO1
    38e2:	22 83       	std	Z+2, r18	; 0x02
	PORTA.DIRCLR = PIN7_bm; //pIO2
    38e4:	80 e8       	ldi	r24, 0x80	; 128
    38e6:	82 83       	std	Z+2, r24	; 0x02
	
	//vAbv/_E
	PORTA.OUTSET = PIN2_bm; //PORTA PIN2(Interrupt)FAbv
    38e8:	35 83       	std	Z+5, r19	; 0x05
	PORTA.OUTSET = PIN6_bm; //pIO1FAbv
    38ea:	25 83       	std	Z+5, r18	; 0x05
	PORTA.OUTSET = PIN7_bm; //pIO2FAbv
    38ec:	85 83       	std	Z+5, r24	; 0x05
	//PORTD.OUTCLR = PIN4_bm; //O[uxZTF_E 2022.04.19 Pullup/downADCB
	//PORTD.OUTCLR = PIN2_bm; //ZTF_E
	//PORTF.OUTCLR = PIN4_bm; //pAD1F_E
	//PORTD.OUTCLR = PIN5_bm; //pAD2F_E
	//PORTD.OUTCLR = PIN3_bm; //pAD3F_E
}
    38ee:	df 91       	pop	r29
    38f0:	cf 91       	pop	r28
    38f2:	08 95       	ret

000038f4 <_ZL16initialize_timerv>:

//^C}
static void initialize_timer( void )
{
	//Timer 1 //0.01sec^C}************************
	TCA0.SINGLE.INTCTRL = TCA_SINGLE_OVF_bm; //^C}L
    38f4:	e0 e0       	ldi	r30, 0x00	; 0
    38f6:	fa e0       	ldi	r31, 0x0A	; 10
    38f8:	81 e0       	ldi	r24, 0x01	; 1
    38fa:	82 87       	std	Z+10, r24	; 0x0a
	TCA0.SINGLE.CTRLB = TCA_SINGLE_WGMODE_NORMAL_gc; 
    38fc:	11 82       	std	Z+1, r1	; 0x01
	TCA0.SINGLE.EVCTRL &= ~(TCA_SINGLE_CNTAEI_bm);	
    38fe:	81 85       	ldd	r24, Z+9	; 0x09
    3900:	8e 7f       	andi	r24, 0xFE	; 254
    3902:	81 87       	std	Z+9, r24	; 0x09
	TCA0.SINGLE.PER = 0.01 * F_CPU / 2 - 1;  //0.01sec, 4MHz, 2
    3904:	8f e1       	ldi	r24, 0x1F	; 31
    3906:	9e e4       	ldi	r25, 0x4E	; 78
    3908:	86 a3       	std	Z+38, r24	; 0x26
    390a:	97 a3       	std	Z+39, r25	; 0x27
	TCA0.SINGLE.CTRLA = TCA_SINGLE_CLKSEL_DIV2_gc | TCA_SINGLE_ENABLE_bm;
    390c:	83 e0       	ldi	r24, 0x03	; 3
    390e:	80 83       	st	Z, r24
		
	//ONX^1sec^C}*******************
	//**ONX^L**
	//U~
	_PROTECTED_WRITE(CLKCTRL.XOSC32KCTRLA, ~CLKCTRL_ENABLE_bm);
    3910:	9e ef       	ldi	r25, 0xFE	; 254
    3912:	88 ed       	ldi	r24, 0xD8	; 216
    3914:	84 bf       	out	0x34, r24	; 52
    3916:	90 93 7c 00 	sts	0x007C, r25	; 0x80007c <__TEXT_REGION_LENGTH__+0x7f007c>
	while(CLKCTRL.MCLKSTATUS & CLKCTRL_XOSC32KS_bm); //XOSC32KS0@
    391a:	80 91 63 00 	lds	r24, 0x0063	; 0x800063 <__TEXT_REGION_LENGTH__+0x7f0063>
    391e:	83 fd       	sbrc	r24, 3
    3920:	fc cf       	rjmp	.-8      	; 0x391a <_ZL16initialize_timerv+0x26>

	//XTAL1XTAL2ONX^gp
	_PROTECTED_WRITE(CLKCTRL.XOSC32KCTRLA, ~CLKCTRL_SEL_bm);
    3922:	88 ed       	ldi	r24, 0xD8	; 216
    3924:	9b ef       	ldi	r25, 0xFB	; 251
    3926:	84 bf       	out	0x34, r24	; 52
    3928:	90 93 7c 00 	sts	0x007C, r25	; 0x80007c <__TEXT_REGION_LENGTH__+0x7f007c>
	
	//U
	_PROTECTED_WRITE(CLKCTRL.XOSC32KCTRLA, CLKCTRL_ENABLE_bm);
    392c:	91 e0       	ldi	r25, 0x01	; 1
    392e:	84 bf       	out	0x34, r24	; 52
    3930:	90 93 7c 00 	sts	0x007C, r25	; 0x80007c <__TEXT_REGION_LENGTH__+0x7f007c>

	while (RTC.STATUS > 0); //SWX^@
    3934:	80 91 41 01 	lds	r24, 0x0141	; 0x800141 <__TEXT_REGION_LENGTH__+0x7f0141>
    3938:	81 11       	cpse	r24, r1
    393a:	fc cf       	rjmp	.-8      	; 0x3934 <_ZL16initialize_timerv+0x40>
	//**L*********

	RTC.CLKSEL = RTC_CLKSEL_XOSC32K_gc;	  //32.768kHzONX^pU (XOSC32K)I
    393c:	e0 e4       	ldi	r30, 0x40	; 64
    393e:	f1 e0       	ldi	r31, 0x01	; 1
    3940:	82 e0       	ldi	r24, 0x02	; 2
    3942:	87 83       	std	Z+7, r24	; 0x07
	RTC.DBGCTRL |= RTC_DBGRUN_bm;         //fobOs
    3944:	85 81       	ldd	r24, Z+5	; 0x05
    3946:	81 60       	ori	r24, 0x01	; 1
    3948:	85 83       	std	Z+5, r24	; 0x05
	RTC.PITINTCTRL = RTC_PI_bm;           //L
    394a:	81 e0       	ldi	r24, 0x01	; 1
    394c:	82 8b       	std	Z+18, r24	; 0x12
	RTC.PITCTRLA = RTC_PERIOD_CYC32768_gc //RTC32768
				| RTC_PITEN_bm;           //p^C}L
    394e:	81 e7       	ldi	r24, 0x71	; 113
    3950:	80 8b       	std	Z+16, r24	; 0x10
	
	//POWER DOWN^C}L
	SLPCTRL.CTRLA |= SLPCTRL_SMODE_PDOWN_gc; 
    3952:	e0 e5       	ldi	r30, 0x50	; 80
    3954:	f0 e0       	ldi	r31, 0x00	; 0
    3956:	80 81       	ld	r24, Z
    3958:	84 60       	ori	r24, 0x04	; 4
    395a:	80 83       	st	Z, r24
	SLPCTRL.CTRLA |= SLPCTRL_SEN_bm;
    395c:	80 81       	ld	r24, Z
    395e:	81 60       	ori	r24, 0x01	; 1
    3960:	80 83       	st	Z, r24
    3962:	08 95       	ret

00003964 <_ZL14readGlbVoltagev>:

//O[uxd
static float readGlbVoltage(void)
{
	//AI4v
	ADC0.MUXPOS = ADC_MUXPOS_AIN4_gc;
    3964:	e0 e0       	ldi	r30, 0x00	; 0
    3966:	f6 e0       	ldi	r31, 0x06	; 6
    3968:	84 e0       	ldi	r24, 0x04	; 4
    396a:	80 87       	std	Z+8, r24	; 0x08
	#else
		//round up by default
		__ticks_dc = (uint32_t)(ceil(fabs(__tmp)));
	#endif

	__builtin_avr_delay_cycles(__ticks_dc);
    396c:	87 e8       	ldi	r24, 0x87	; 135
    396e:	93 e1       	ldi	r25, 0x13	; 19
    3970:	01 97       	sbiw	r24, 0x01	; 1
    3972:	f1 f7       	brne	.-4      	; 0x3970 <_ZL14readGlbVoltagev+0xc>
    3974:	00 c0       	rjmp	.+0      	; 0x3976 <_ZL14readGlbVoltagev+0x12>
    3976:	00 00       	nop
	_delay_ms(5);
	ADC0.COMMAND = ADC_STCONV_bm; //Jn
    3978:	81 e0       	ldi	r24, 0x01	; 1
    397a:	82 87       	std	Z+10, r24	; 0x0a
	while (!(ADC0.INTFLAGS & ADC_RESRDY_bm)) ; //I
    397c:	80 91 0d 06 	lds	r24, 0x060D	; 0x80060d <__TEXT_REGION_LENGTH__+0x7f060d>
    3980:	80 ff       	sbrs	r24, 0
    3982:	fc cf       	rjmp	.-8      	; 0x397c <_ZL14readGlbVoltagev+0x18>
	return 2.0 * (float)ADC0.RES / 65536; //1024*64 (10bit,64)
    3984:	60 91 10 06 	lds	r22, 0x0610	; 0x800610 <__TEXT_REGION_LENGTH__+0x7f0610>
    3988:	70 91 11 06 	lds	r23, 0x0611	; 0x800611 <__TEXT_REGION_LENGTH__+0x7f0611>
    398c:	80 e0       	ldi	r24, 0x00	; 0
    398e:	90 e0       	ldi	r25, 0x00	; 0
    3990:	0e 94 17 35 	call	0x6a2e	; 0x6a2e <__floatunsisf>
    3994:	9b 01       	movw	r18, r22
    3996:	ac 01       	movw	r20, r24
    3998:	0e 94 fa 33 	call	0x67f4	; 0x67f4 <__addsf3>
    399c:	20 e0       	ldi	r18, 0x00	; 0
    399e:	30 e0       	ldi	r19, 0x00	; 0
    39a0:	40 e8       	ldi	r20, 0x80	; 128
    39a2:	57 e3       	ldi	r21, 0x37	; 55
    39a4:	0e 94 bb 36 	call	0x6d76	; 0x6d76 <__mulsf3>
}
    39a8:	08 95       	ret

000039aa <_ZL14readVelVoltagev>:

//d
static float readVelVoltage(void)
{
	//AI2v
	ADC0.MUXPOS = ADC_MUXPOS_AIN2_gc;
    39aa:	e0 e0       	ldi	r30, 0x00	; 0
    39ac:	f6 e0       	ldi	r31, 0x06	; 6
    39ae:	82 e0       	ldi	r24, 0x02	; 2
    39b0:	80 87       	std	Z+8, r24	; 0x08
    39b2:	87 e8       	ldi	r24, 0x87	; 135
    39b4:	93 e1       	ldi	r25, 0x13	; 19
    39b6:	01 97       	sbiw	r24, 0x01	; 1
    39b8:	f1 f7       	brne	.-4      	; 0x39b6 <_ZL14readVelVoltagev+0xc>
    39ba:	00 c0       	rjmp	.+0      	; 0x39bc <_ZL14readVelVoltagev+0x12>
    39bc:	00 00       	nop
	_delay_ms(5);
	ADC0.COMMAND = ADC_STCONV_bm; //Jn
    39be:	81 e0       	ldi	r24, 0x01	; 1
    39c0:	82 87       	std	Z+10, r24	; 0x0a
	while (!(ADC0.INTFLAGS & ADC_RESRDY_bm)) ; //I
    39c2:	80 91 0d 06 	lds	r24, 0x060D	; 0x80060d <__TEXT_REGION_LENGTH__+0x7f060d>
    39c6:	80 ff       	sbrs	r24, 0
    39c8:	fc cf       	rjmp	.-8      	; 0x39c2 <_ZL14readVelVoltagev+0x18>
	return 2.0 * (float)ADC0.RES / 65536; //1024*64 (10bit,64)
    39ca:	60 91 10 06 	lds	r22, 0x0610	; 0x800610 <__TEXT_REGION_LENGTH__+0x7f0610>
    39ce:	70 91 11 06 	lds	r23, 0x0611	; 0x800611 <__TEXT_REGION_LENGTH__+0x7f0611>
    39d2:	80 e0       	ldi	r24, 0x00	; 0
    39d4:	90 e0       	ldi	r25, 0x00	; 0
    39d6:	0e 94 17 35 	call	0x6a2e	; 0x6a2e <__floatunsisf>
    39da:	9b 01       	movw	r18, r22
    39dc:	ac 01       	movw	r20, r24
    39de:	0e 94 fa 33 	call	0x67f4	; 0x67f4 <__addsf3>
    39e2:	20 e0       	ldi	r18, 0x00	; 0
    39e4:	30 e0       	ldi	r19, 0x00	; 0
    39e6:	40 e8       	ldi	r20, 0x80	; 128
    39e8:	57 e3       	ldi	r21, 0x37	; 55
    39ea:	0e 94 bb 36 	call	0x6d76	; 0x6d76 <__mulsf3>
}
    39ee:	08 95       	ret

000039f0 <_ZL11readVoltagej>:

//AD1~3d
static float readVoltage(unsigned int adNumber)
{
	if(adNumber == 1) ADC0.MUXPOS = ADC_MUXPOS_AIN20_gc; //AD1
    39f0:	81 30       	cpi	r24, 0x01	; 1
    39f2:	91 05       	cpc	r25, r1
    39f4:	21 f4       	brne	.+8      	; 0x39fe <_ZL11readVoltagej+0xe>
    39f6:	84 e1       	ldi	r24, 0x14	; 20
    39f8:	80 93 08 06 	sts	0x0608, r24	; 0x800608 <__TEXT_REGION_LENGTH__+0x7f0608>
    39fc:	09 c0       	rjmp	.+18     	; 0x3a10 <_ZL11readVoltagej+0x20>
	else if(adNumber == 2) ADC0.MUXPOS = ADC_MUXPOS_AIN5_gc; //AD2
    39fe:	02 97       	sbiw	r24, 0x02	; 2
    3a00:	21 f4       	brne	.+8      	; 0x3a0a <_ZL11readVoltagej+0x1a>
    3a02:	85 e0       	ldi	r24, 0x05	; 5
    3a04:	80 93 08 06 	sts	0x0608, r24	; 0x800608 <__TEXT_REGION_LENGTH__+0x7f0608>
    3a08:	03 c0       	rjmp	.+6      	; 0x3a10 <_ZL11readVoltagej+0x20>
	else ADC0.MUXPOS = ADC_MUXPOS_AIN3_gc; //AD3
    3a0a:	83 e0       	ldi	r24, 0x03	; 3
    3a0c:	80 93 08 06 	sts	0x0608, r24	; 0x800608 <__TEXT_REGION_LENGTH__+0x7f0608>
    3a10:	87 e8       	ldi	r24, 0x87	; 135
    3a12:	93 e1       	ldi	r25, 0x13	; 19
    3a14:	01 97       	sbiw	r24, 0x01	; 1
    3a16:	f1 f7       	brne	.-4      	; 0x3a14 <_ZL11readVoltagej+0x24>
    3a18:	00 c0       	rjmp	.+0      	; 0x3a1a <_ZL11readVoltagej+0x2a>
    3a1a:	00 00       	nop

	_delay_ms(5);
	ADC0.COMMAND = ADC_STCONV_bm; //Jn
    3a1c:	81 e0       	ldi	r24, 0x01	; 1
    3a1e:	80 93 0a 06 	sts	0x060A, r24	; 0x80060a <__TEXT_REGION_LENGTH__+0x7f060a>
	while (!(ADC0.INTFLAGS & ADC_RESRDY_bm)) ; //I
    3a22:	80 91 0d 06 	lds	r24, 0x060D	; 0x80060d <__TEXT_REGION_LENGTH__+0x7f060d>
    3a26:	80 ff       	sbrs	r24, 0
    3a28:	fc cf       	rjmp	.-8      	; 0x3a22 <_ZL11readVoltagej+0x32>
	return 2.0 * (float)ADC0.RES / 65536; //1024*64 (10bit,64)
    3a2a:	60 91 10 06 	lds	r22, 0x0610	; 0x800610 <__TEXT_REGION_LENGTH__+0x7f0610>
    3a2e:	70 91 11 06 	lds	r23, 0x0611	; 0x800611 <__TEXT_REGION_LENGTH__+0x7f0611>
    3a32:	80 e0       	ldi	r24, 0x00	; 0
    3a34:	90 e0       	ldi	r25, 0x00	; 0
    3a36:	0e 94 17 35 	call	0x6a2e	; 0x6a2e <__floatunsisf>
    3a3a:	9b 01       	movw	r18, r22
    3a3c:	ac 01       	movw	r20, r24
    3a3e:	0e 94 fa 33 	call	0x67f4	; 0x67f4 <__addsf3>
    3a42:	20 e0       	ldi	r18, 0x00	; 0
    3a44:	30 e0       	ldi	r19, 0x00	; 0
    3a46:	40 e8       	ldi	r20, 0x80	; 128
    3a48:	57 e3       	ldi	r21, 0x37	; 55
    3a4a:	0e 94 bb 36 	call	0x6d76	; 0x6d76 <__mulsf3>
}
    3a4e:	08 95       	ret

00003a50 <_ZL13solve_commandv>:
		}		
	}	
}

static void solve_command(void)
{
    3a50:	4f 92       	push	r4
    3a52:	5f 92       	push	r5
    3a54:	6f 92       	push	r6
    3a56:	7f 92       	push	r7
    3a58:	8f 92       	push	r8
    3a5a:	9f 92       	push	r9
    3a5c:	af 92       	push	r10
    3a5e:	bf 92       	push	r11
    3a60:	cf 92       	push	r12
    3a62:	df 92       	push	r13
    3a64:	ef 92       	push	r14
    3a66:	ff 92       	push	r15
    3a68:	0f 93       	push	r16
    3a6a:	1f 93       	push	r17
    3a6c:	cf 93       	push	r28
    3a6e:	df 93       	push	r29
    3a70:	cd b7       	in	r28, 0x3d	; 61
    3a72:	de b7       	in	r29, 0x3e	; 62
    3a74:	6f 97       	sbiw	r28, 0x1f	; 31
    3a76:	cd bf       	out	0x3d, r28	; 61
    3a78:	de bf       	out	0x3e, r29	; 62
	char* command = (char*)cmdBuff;
	
	//o[W
	if (strncmp(command, "VER", 3) == 0) 
    3a7a:	43 e0       	ldi	r20, 0x03	; 3
    3a7c:	50 e0       	ldi	r21, 0x00	; 0
    3a7e:	60 e5       	ldi	r22, 0x50	; 80
    3a80:	70 e6       	ldi	r23, 0x60	; 96
    3a82:	8f e3       	ldi	r24, 0x3F	; 63
    3a84:	92 e6       	ldi	r25, 0x62	; 98
    3a86:	0e 94 fe 38 	call	0x71fc	; 0x71fc <strncmp>
    3a8a:	89 2b       	or	r24, r25
    3a8c:	29 f4       	brne	.+10     	; 0x3a98 <_ZL13solve_commandv+0x48>
		my_xbee::bltx_chars("VER:3.0.5\r");
    3a8e:	84 e5       	ldi	r24, 0x54	; 84
    3a90:	90 e6       	ldi	r25, 0x60	; 96
    3a92:	0e 94 ee 33 	call	0x67dc	; 0x67dc <_ZN7my_xbee10bltx_charsEPKc>
    3a96:	f6 c2       	rjmp	.+1516   	; 0x4084 <_ZL13solve_commandv+0x634>
	//MOJn
	else if (strncmp(command, "STL", 3) == 0)
    3a98:	43 e0       	ldi	r20, 0x03	; 3
    3a9a:	50 e0       	ldi	r21, 0x00	; 0
    3a9c:	6f e5       	ldi	r22, 0x5F	; 95
    3a9e:	70 e6       	ldi	r23, 0x60	; 96
    3aa0:	8f e3       	ldi	r24, 0x3F	; 63
    3aa2:	92 e6       	ldi	r25, 0x62	; 98
    3aa4:	0e 94 fe 38 	call	0x71fc	; 0x71fc <strncmp>
    3aa8:	89 2b       	or	r24, r25
    3aaa:	09 f0       	breq	.+2      	; 0x3aae <_ZL13solve_commandv+0x5e>
    3aac:	78 c0       	rjmp	.+240    	; 0x3b9e <_ZL13solve_commandv+0x14e>
	{
		//
		char num[11];
		num[10] = '\0';
    3aae:	1b 86       	std	Y+11, r1	; 0x0b
		strncpy(num, command + 3, 10);
    3ab0:	4a e0       	ldi	r20, 0x0A	; 10
    3ab2:	50 e0       	ldi	r21, 0x00	; 0
    3ab4:	62 e4       	ldi	r22, 0x42	; 66
    3ab6:	72 e6       	ldi	r23, 0x62	; 98
    3ab8:	ce 01       	movw	r24, r28
    3aba:	01 96       	adiw	r24, 0x01	; 1
    3abc:	0e 94 0c 39 	call	0x7218	; 0x7218 <strncpy>
		currentTime = atol(num);
    3ac0:	ce 01       	movw	r24, r28
    3ac2:	01 96       	adiw	r24, 0x01	; 1
    3ac4:	0e 94 d7 38 	call	0x71ae	; 0x71ae <atol>
    3ac8:	60 93 6f 63 	sts	0x636F, r22	; 0x80636f <_ZL11currentTime>
    3acc:	70 93 70 63 	sts	0x6370, r23	; 0x806370 <_ZL11currentTime+0x1>
    3ad0:	80 93 71 63 	sts	0x6371, r24	; 0x806371 <_ZL11currentTime+0x2>
    3ad4:	90 93 72 63 	sts	0x6372, r25	; 0x806372 <_ZL11currentTime+0x3>
		
		//Bluetooth(xxbee,bbluetooth)
		outputToXBee = (command[13]=='t'); //XBeee@o
    3ad8:	81 e0       	ldi	r24, 0x01	; 1
    3ada:	90 91 4c 62 	lds	r25, 0x624C	; 0x80624c <_ZL7cmdBuff+0xd>
    3ade:	94 37       	cpi	r25, 0x74	; 116
    3ae0:	09 f0       	breq	.+2      	; 0x3ae4 <_ZL13solve_commandv+0x94>
    3ae2:	80 e0       	ldi	r24, 0x00	; 0
    3ae4:	80 93 07 60 	sts	0x6007, r24	; 0x806007 <_ZL12outputToXBee>
		outputToBLE = (command[14]=='t'); //Bluetootho
    3ae8:	81 e0       	ldi	r24, 0x01	; 1
    3aea:	90 91 4d 62 	lds	r25, 0x624D	; 0x80624d <_ZL7cmdBuff+0xe>
    3aee:	94 37       	cpi	r25, 0x74	; 116
    3af0:	09 f0       	breq	.+2      	; 0x3af4 <_ZL13solve_commandv+0xa4>
    3af2:	80 e0       	ldi	r24, 0x00	; 0
    3af4:	80 93 3e 62 	sts	0x623E, r24	; 0x80623e <_ZL11outputToBLE>
		outputToSDCard = (command[15]=='t'); //SDJ[ho
    3af8:	81 e0       	ldi	r24, 0x01	; 1
    3afa:	90 91 4e 62 	lds	r25, 0x624E	; 0x80624e <_ZL7cmdBuff+0xf>
    3afe:	94 37       	cpi	r25, 0x74	; 116
    3b00:	09 f0       	breq	.+2      	; 0x3b04 <_ZL13solve_commandv+0xb4>
    3b02:	80 e0       	ldi	r24, 0x00	; 0
    3b04:	80 93 3d 62 	sts	0x623D, r24	; 0x80623d <_ZL14outputToSDCard>
		
		//0b_vBlBBB
		pass_th	= my_eeprom::interval_th;
    3b08:	80 91 19 60 	lds	r24, 0x6019	; 0x806019 <_ZN9my_eeprom11interval_thE>
    3b0c:	90 91 1a 60 	lds	r25, 0x601A	; 0x80601a <_ZN9my_eeprom11interval_thE+0x1>
    3b10:	80 93 3b 62 	sts	0x623B, r24	; 0x80623b <_ZL7pass_th>
    3b14:	90 93 3c 62 	sts	0x623C, r25	; 0x80623c <_ZL7pass_th+0x1>
		pass_glb = my_eeprom::interval_glb;
    3b18:	80 91 17 60 	lds	r24, 0x6017	; 0x806017 <_ZN9my_eeprom12interval_glbE>
    3b1c:	90 91 18 60 	lds	r25, 0x6018	; 0x806018 <_ZN9my_eeprom12interval_glbE+0x1>
    3b20:	80 93 39 62 	sts	0x6239, r24	; 0x806239 <_ZL8pass_glb>
    3b24:	90 93 3a 62 	sts	0x623A, r25	; 0x80623a <_ZL8pass_glb+0x1>
		pass_vel = my_eeprom::interval_vel;
    3b28:	80 91 15 60 	lds	r24, 0x6015	; 0x806015 <_ZN9my_eeprom12interval_velE>
    3b2c:	90 91 16 60 	lds	r25, 0x6016	; 0x806016 <_ZN9my_eeprom12interval_velE+0x1>
    3b30:	80 93 37 62 	sts	0x6237, r24	; 0x806237 <_ZL8pass_vel>
    3b34:	90 93 38 62 	sts	0x6238, r25	; 0x806238 <_ZL8pass_vel+0x1>
		pass_ill = my_eeprom::interval_ill;
    3b38:	80 91 13 60 	lds	r24, 0x6013	; 0x806013 <_ZN9my_eeprom12interval_illE>
    3b3c:	90 91 14 60 	lds	r25, 0x6014	; 0x806014 <_ZN9my_eeprom12interval_illE+0x1>
    3b40:	80 93 35 62 	sts	0x6235, r24	; 0x806235 <_ZL8pass_ill>
    3b44:	90 93 36 62 	sts	0x6236, r25	; 0x806236 <_ZL8pass_ill+0x1>
		pass_ad1 = my_eeprom::interval_AD1;
    3b48:	80 91 11 60 	lds	r24, 0x6011	; 0x806011 <_ZN9my_eeprom12interval_AD1E>
    3b4c:	90 91 12 60 	lds	r25, 0x6012	; 0x806012 <_ZN9my_eeprom12interval_AD1E+0x1>
    3b50:	80 93 33 62 	sts	0x6233, r24	; 0x806233 <_ZL8pass_ad1>
    3b54:	90 93 34 62 	sts	0x6234, r25	; 0x806234 <_ZL8pass_ad1+0x1>
		pass_ad2 = my_eeprom::interval_AD2;
    3b58:	80 91 0f 60 	lds	r24, 0x600F	; 0x80600f <_ZN9my_eeprom12interval_AD2E>
    3b5c:	90 91 10 60 	lds	r25, 0x6010	; 0x806010 <_ZN9my_eeprom12interval_AD2E+0x1>
    3b60:	80 93 31 62 	sts	0x6231, r24	; 0x806231 <_ZL8pass_ad2>
    3b64:	90 93 32 62 	sts	0x6232, r25	; 0x806232 <_ZL8pass_ad2+0x1>
		pass_ad3 = my_eeprom::interval_AD3;
    3b68:	80 91 0d 60 	lds	r24, 0x600D	; 0x80600d <_ZN9my_eeprom12interval_AD3E>
    3b6c:	90 91 0e 60 	lds	r25, 0x600E	; 0x80600e <_ZN9my_eeprom12interval_AD3E+0x1>
    3b70:	80 93 2f 62 	sts	0x622F, r24	; 0x80622f <_ZL8pass_ad3>
    3b74:	90 93 30 62 	sts	0x6230, r25	; 0x806230 <_ZL8pass_ad3+0x1>
		
		//MOEEPROM
		//my_eeprom::startAuto = outputToXBee; //ZbgXCb`pRgAEg
		my_eeprom::SetMeasurementSetting();
    3b78:	0e 94 e5 2c 	call	0x59ca	; 0x59ca <_ZN9my_eeprom21SetMeasurementSettingEv>
		
		//MOJn
		my_xbee::bltx_chars("STL\r");
    3b7c:	83 e6       	ldi	r24, 0x63	; 99
    3b7e:	90 e6       	ldi	r25, 0x60	; 96
    3b80:	0e 94 ee 33 	call	0x67dc	; 0x67dc <_ZN7my_xbee10bltx_charsEPKc>
    3b84:	2f e7       	ldi	r18, 0x7F	; 127
    3b86:	88 e3       	ldi	r24, 0x38	; 56
    3b88:	91 e0       	ldi	r25, 0x01	; 1
    3b8a:	21 50       	subi	r18, 0x01	; 1
    3b8c:	80 40       	sbci	r24, 0x00	; 0
    3b8e:	90 40       	sbci	r25, 0x00	; 0
    3b90:	e1 f7       	brne	.-8      	; 0x3b8a <_ZL13solve_commandv+0x13a>
    3b92:	00 c0       	rjmp	.+0      	; 0x3b94 <_ZL13solve_commandv+0x144>
    3b94:	00 00       	nop
		_delay_ms(100);
		logging = true;	
    3b96:	81 e0       	ldi	r24, 0x01	; 1
    3b98:	80 93 6e 63 	sts	0x636E, r24	; 0x80636e <_ZL7logging>
    3b9c:	73 c2       	rjmp	.+1254   	; 0x4084 <_ZL13solve_commandv+0x634>
	}
	//Change Measurement Settings
	else if(strncmp(command, "CMS", 3) == 0)
    3b9e:	43 e0       	ldi	r20, 0x03	; 3
    3ba0:	50 e0       	ldi	r21, 0x00	; 0
    3ba2:	68 e6       	ldi	r22, 0x68	; 104
    3ba4:	70 e6       	ldi	r23, 0x60	; 96
    3ba6:	8f e3       	ldi	r24, 0x3F	; 63
    3ba8:	92 e6       	ldi	r25, 0x62	; 98
    3baa:	0e 94 fe 38 	call	0x71fc	; 0x71fc <strncmp>
    3bae:	89 2b       	or	r24, r25
    3bb0:	09 f0       	breq	.+2      	; 0x3bb4 <_ZL13solve_commandv+0x164>
    3bb2:	68 c1       	rjmp	.+720    	; 0x3e84 <_ZL13solve_commandv+0x434>
	{
		//XMO~
		logging = false;
    3bb4:	10 92 6e 63 	sts	0x636E, r1	; 0x80636e <_ZL7logging>
		
		//
		my_eeprom::measure_th = (command[3] == 't');
    3bb8:	81 e0       	ldi	r24, 0x01	; 1
    3bba:	90 91 42 62 	lds	r25, 0x6242	; 0x806242 <_ZL7cmdBuff+0x3>
    3bbe:	94 37       	cpi	r25, 0x74	; 116
    3bc0:	09 f0       	breq	.+2      	; 0x3bc4 <_ZL13solve_commandv+0x174>
    3bc2:	80 e0       	ldi	r24, 0x00	; 0
    3bc4:	80 93 1e 60 	sts	0x601E, r24	; 0x80601e <_ZN9my_eeprom10measure_thE>
		my_eeprom::measure_glb = (command[9] == 't');
    3bc8:	81 e0       	ldi	r24, 0x01	; 1
    3bca:	90 91 48 62 	lds	r25, 0x6248	; 0x806248 <_ZL7cmdBuff+0x9>
    3bce:	94 37       	cpi	r25, 0x74	; 116
    3bd0:	09 f0       	breq	.+2      	; 0x3bd4 <_ZL13solve_commandv+0x184>
    3bd2:	80 e0       	ldi	r24, 0x00	; 0
    3bd4:	80 93 1d 60 	sts	0x601D, r24	; 0x80601d <_ZN9my_eeprom11measure_glbE>
		my_eeprom::measure_vel = (command[15] == 't');
    3bd8:	81 e0       	ldi	r24, 0x01	; 1
    3bda:	90 91 4e 62 	lds	r25, 0x624E	; 0x80624e <_ZL7cmdBuff+0xf>
    3bde:	94 37       	cpi	r25, 0x74	; 116
    3be0:	09 f0       	breq	.+2      	; 0x3be4 <_ZL13solve_commandv+0x194>
    3be2:	80 e0       	ldi	r24, 0x00	; 0
    3be4:	80 93 1c 60 	sts	0x601C, r24	; 0x80601c <_ZN9my_eeprom11measure_velE>
		my_eeprom::measure_ill = (command[21] == 't');
    3be8:	81 e0       	ldi	r24, 0x01	; 1
    3bea:	90 91 54 62 	lds	r25, 0x6254	; 0x806254 <_ZL7cmdBuff+0x15>
    3bee:	94 37       	cpi	r25, 0x74	; 116
    3bf0:	09 f0       	breq	.+2      	; 0x3bf4 <_ZL13solve_commandv+0x1a4>
    3bf2:	80 e0       	ldi	r24, 0x00	; 0
    3bf4:	80 93 1b 60 	sts	0x601B, r24	; 0x80601b <_ZN9my_eeprom11measure_illE>
		if(37 < strlen(command))
    3bf8:	ef e3       	ldi	r30, 0x3F	; 63
    3bfa:	f2 e6       	ldi	r31, 0x62	; 98
    3bfc:	01 90       	ld	r0, Z+
    3bfe:	00 20       	and	r0, r0
    3c00:	e9 f7       	brne	.-6      	; 0x3bfc <_ZL13solve_commandv+0x1ac>
    3c02:	31 97       	sbiw	r30, 0x01	; 1
    3c04:	ef 53       	subi	r30, 0x3F	; 63
    3c06:	f2 46       	sbci	r31, 0x62	; 98
    3c08:	b6 97       	sbiw	r30, 0x26	; 38
    3c0a:	c8 f0       	brcs	.+50     	; 0x3c3e <_ZL13solve_commandv+0x1ee>
		{
			my_eeprom::measure_AD1 = (command[37] == 't');
    3c0c:	81 e0       	ldi	r24, 0x01	; 1
    3c0e:	90 91 64 62 	lds	r25, 0x6264	; 0x806264 <_ZL7cmdBuff+0x25>
    3c12:	94 37       	cpi	r25, 0x74	; 116
    3c14:	09 f0       	breq	.+2      	; 0x3c18 <_ZL13solve_commandv+0x1c8>
    3c16:	80 e0       	ldi	r24, 0x00	; 0
    3c18:	80 93 94 63 	sts	0x6394, r24	; 0x806394 <_ZN9my_eeprom11measure_AD1E>
			my_eeprom::measure_AD2 = (command[43] == 't');
    3c1c:	81 e0       	ldi	r24, 0x01	; 1
    3c1e:	90 91 6a 62 	lds	r25, 0x626A	; 0x80626a <_ZL7cmdBuff+0x2b>
    3c22:	94 37       	cpi	r25, 0x74	; 116
    3c24:	09 f0       	breq	.+2      	; 0x3c28 <_ZL13solve_commandv+0x1d8>
    3c26:	80 e0       	ldi	r24, 0x00	; 0
    3c28:	80 93 93 63 	sts	0x6393, r24	; 0x806393 <_ZN9my_eeprom11measure_AD2E>
			my_eeprom::measure_AD3 = (command[49] == 't');
    3c2c:	81 e0       	ldi	r24, 0x01	; 1
    3c2e:	90 91 70 62 	lds	r25, 0x6270	; 0x806270 <_ZL7cmdBuff+0x31>
    3c32:	94 37       	cpi	r25, 0x74	; 116
    3c34:	09 f0       	breq	.+2      	; 0x3c38 <_ZL13solve_commandv+0x1e8>
    3c36:	80 e0       	ldi	r24, 0x00	; 0
    3c38:	80 93 92 63 	sts	0x6392, r24	; 0x806392 <_ZN9my_eeprom11measure_AD3E>
    3c3c:	06 c0       	rjmp	.+12     	; 0x3c4a <_ZL13solve_commandv+0x1fa>
		}
		//o[W
		else
		{
			my_eeprom::measure_AD1 = false;
    3c3e:	10 92 94 63 	sts	0x6394, r1	; 0x806394 <_ZN9my_eeprom11measure_AD1E>
			my_eeprom::measure_AD2 = false;
    3c42:	10 92 93 63 	sts	0x6393, r1	; 0x806393 <_ZN9my_eeprom11measure_AD2E>
			my_eeprom::measure_AD3 = false;
    3c46:	10 92 92 63 	sts	0x6392, r1	; 0x806392 <_ZN9my_eeprom11measure_AD3E>
		}
		
		//u
		char num[6];
		num[5] = '\0';
    3c4a:	1f 8e       	std	Y+31, r1	; 0x1f
		strncpy(num, command + 4, 5);
    3c4c:	45 e0       	ldi	r20, 0x05	; 5
    3c4e:	50 e0       	ldi	r21, 0x00	; 0
    3c50:	63 e4       	ldi	r22, 0x43	; 67
    3c52:	72 e6       	ldi	r23, 0x62	; 98
    3c54:	ce 01       	movw	r24, r28
    3c56:	4a 96       	adiw	r24, 0x1a	; 26
    3c58:	0e 94 0c 39 	call	0x7218	; 0x7218 <strncpy>
		my_eeprom::interval_th = atoi(num);
    3c5c:	ce 01       	movw	r24, r28
    3c5e:	4a 96       	adiw	r24, 0x1a	; 26
    3c60:	0e 94 b9 38 	call	0x7172	; 0x7172 <atoi>
    3c64:	80 93 19 60 	sts	0x6019, r24	; 0x806019 <_ZN9my_eeprom11interval_thE>
    3c68:	90 93 1a 60 	sts	0x601A, r25	; 0x80601a <_ZN9my_eeprom11interval_thE+0x1>
		strncpy(num, command + 10, 5);
    3c6c:	45 e0       	ldi	r20, 0x05	; 5
    3c6e:	50 e0       	ldi	r21, 0x00	; 0
    3c70:	69 e4       	ldi	r22, 0x49	; 73
    3c72:	72 e6       	ldi	r23, 0x62	; 98
    3c74:	ce 01       	movw	r24, r28
    3c76:	4a 96       	adiw	r24, 0x1a	; 26
    3c78:	0e 94 0c 39 	call	0x7218	; 0x7218 <strncpy>
		my_eeprom::interval_glb = atoi(num);
    3c7c:	ce 01       	movw	r24, r28
    3c7e:	4a 96       	adiw	r24, 0x1a	; 26
    3c80:	0e 94 b9 38 	call	0x7172	; 0x7172 <atoi>
    3c84:	80 93 17 60 	sts	0x6017, r24	; 0x806017 <_ZN9my_eeprom12interval_glbE>
    3c88:	90 93 18 60 	sts	0x6018, r25	; 0x806018 <_ZN9my_eeprom12interval_glbE+0x1>
		strncpy(num, command + 16, 5);
    3c8c:	45 e0       	ldi	r20, 0x05	; 5
    3c8e:	50 e0       	ldi	r21, 0x00	; 0
    3c90:	6f e4       	ldi	r22, 0x4F	; 79
    3c92:	72 e6       	ldi	r23, 0x62	; 98
    3c94:	ce 01       	movw	r24, r28
    3c96:	4a 96       	adiw	r24, 0x1a	; 26
    3c98:	0e 94 0c 39 	call	0x7218	; 0x7218 <strncpy>
		my_eeprom::interval_vel = atoi(num);
    3c9c:	ce 01       	movw	r24, r28
    3c9e:	4a 96       	adiw	r24, 0x1a	; 26
    3ca0:	0e 94 b9 38 	call	0x7172	; 0x7172 <atoi>
    3ca4:	80 93 15 60 	sts	0x6015, r24	; 0x806015 <_ZN9my_eeprom12interval_velE>
    3ca8:	90 93 16 60 	sts	0x6016, r25	; 0x806016 <_ZN9my_eeprom12interval_velE+0x1>
		strncpy(num, command + 22, 5);
    3cac:	45 e0       	ldi	r20, 0x05	; 5
    3cae:	50 e0       	ldi	r21, 0x00	; 0
    3cb0:	65 e5       	ldi	r22, 0x55	; 85
    3cb2:	72 e6       	ldi	r23, 0x62	; 98
    3cb4:	ce 01       	movw	r24, r28
    3cb6:	4a 96       	adiw	r24, 0x1a	; 26
    3cb8:	0e 94 0c 39 	call	0x7218	; 0x7218 <strncpy>
		my_eeprom::interval_ill = atoi(num);
    3cbc:	ce 01       	movw	r24, r28
    3cbe:	4a 96       	adiw	r24, 0x1a	; 26
    3cc0:	0e 94 b9 38 	call	0x7172	; 0x7172 <atoi>
    3cc4:	80 93 13 60 	sts	0x6013, r24	; 0x806013 <_ZN9my_eeprom12interval_illE>
    3cc8:	90 93 14 60 	sts	0x6014, r25	; 0x806014 <_ZN9my_eeprom12interval_illE+0x1>
		if(37 < strlen(command))
    3ccc:	ef e3       	ldi	r30, 0x3F	; 63
    3cce:	f2 e6       	ldi	r31, 0x62	; 98
    3cd0:	01 90       	ld	r0, Z+
    3cd2:	00 20       	and	r0, r0
    3cd4:	e9 f7       	brne	.-6      	; 0x3cd0 <_ZL13solve_commandv+0x280>
    3cd6:	31 97       	sbiw	r30, 0x01	; 1
    3cd8:	ef 53       	subi	r30, 0x3F	; 63
    3cda:	f2 46       	sbci	r31, 0x62	; 98
    3cdc:	b6 97       	sbiw	r30, 0x26	; 38
    3cde:	88 f1       	brcs	.+98     	; 0x3d42 <_ZL13solve_commandv+0x2f2>
		{
			strncpy(num, command + 38, 5);
    3ce0:	45 e0       	ldi	r20, 0x05	; 5
    3ce2:	50 e0       	ldi	r21, 0x00	; 0
    3ce4:	65 e6       	ldi	r22, 0x65	; 101
    3ce6:	72 e6       	ldi	r23, 0x62	; 98
    3ce8:	ce 01       	movw	r24, r28
    3cea:	4a 96       	adiw	r24, 0x1a	; 26
    3cec:	0e 94 0c 39 	call	0x7218	; 0x7218 <strncpy>
			my_eeprom::interval_AD1 = atoi(num);
    3cf0:	ce 01       	movw	r24, r28
    3cf2:	4a 96       	adiw	r24, 0x1a	; 26
    3cf4:	0e 94 b9 38 	call	0x7172	; 0x7172 <atoi>
    3cf8:	80 93 11 60 	sts	0x6011, r24	; 0x806011 <_ZN9my_eeprom12interval_AD1E>
    3cfc:	90 93 12 60 	sts	0x6012, r25	; 0x806012 <_ZN9my_eeprom12interval_AD1E+0x1>
			strncpy(num, command + 44, 5);
    3d00:	45 e0       	ldi	r20, 0x05	; 5
    3d02:	50 e0       	ldi	r21, 0x00	; 0
    3d04:	6b e6       	ldi	r22, 0x6B	; 107
    3d06:	72 e6       	ldi	r23, 0x62	; 98
    3d08:	ce 01       	movw	r24, r28
    3d0a:	4a 96       	adiw	r24, 0x1a	; 26
    3d0c:	0e 94 0c 39 	call	0x7218	; 0x7218 <strncpy>
			my_eeprom::interval_AD2 = atoi(num);
    3d10:	ce 01       	movw	r24, r28
    3d12:	4a 96       	adiw	r24, 0x1a	; 26
    3d14:	0e 94 b9 38 	call	0x7172	; 0x7172 <atoi>
    3d18:	80 93 0f 60 	sts	0x600F, r24	; 0x80600f <_ZN9my_eeprom12interval_AD2E>
    3d1c:	90 93 10 60 	sts	0x6010, r25	; 0x806010 <_ZN9my_eeprom12interval_AD2E+0x1>
			strncpy(num, command + 50, 5);
    3d20:	45 e0       	ldi	r20, 0x05	; 5
    3d22:	50 e0       	ldi	r21, 0x00	; 0
    3d24:	61 e7       	ldi	r22, 0x71	; 113
    3d26:	72 e6       	ldi	r23, 0x62	; 98
    3d28:	ce 01       	movw	r24, r28
    3d2a:	4a 96       	adiw	r24, 0x1a	; 26
    3d2c:	0e 94 0c 39 	call	0x7218	; 0x7218 <strncpy>
			my_eeprom::interval_AD3 = atoi(num);
    3d30:	ce 01       	movw	r24, r28
    3d32:	4a 96       	adiw	r24, 0x1a	; 26
    3d34:	0e 94 b9 38 	call	0x7172	; 0x7172 <atoi>
    3d38:	80 93 0d 60 	sts	0x600D, r24	; 0x80600d <_ZN9my_eeprom12interval_AD3E>
    3d3c:	90 93 0e 60 	sts	0x600E, r25	; 0x80600e <_ZN9my_eeprom12interval_AD3E+0x1>
    3d40:	0e c0       	rjmp	.+28     	; 0x3d5e <_ZL13solve_commandv+0x30e>
		}
		//o[W
		else
		{
			my_eeprom::interval_AD1 = 60;
    3d42:	8c e3       	ldi	r24, 0x3C	; 60
    3d44:	90 e0       	ldi	r25, 0x00	; 0
    3d46:	80 93 11 60 	sts	0x6011, r24	; 0x806011 <_ZN9my_eeprom12interval_AD1E>
    3d4a:	90 93 12 60 	sts	0x6012, r25	; 0x806012 <_ZN9my_eeprom12interval_AD1E+0x1>
			my_eeprom::interval_AD2 = 60;
    3d4e:	80 93 0f 60 	sts	0x600F, r24	; 0x80600f <_ZN9my_eeprom12interval_AD2E>
    3d52:	90 93 10 60 	sts	0x6010, r25	; 0x806010 <_ZN9my_eeprom12interval_AD2E+0x1>
			my_eeprom::interval_AD3 = 60;
    3d56:	80 93 0d 60 	sts	0x600D, r24	; 0x80600d <_ZN9my_eeprom12interval_AD3E>
    3d5a:	90 93 0e 60 	sts	0x600E, r25	; 0x80600e <_ZN9my_eeprom12interval_AD3E+0x1>
		}
		
		//ZTL
		if(37 < strlen(command)) my_eeprom::measure_Prox = (command[55] == 't');
    3d5e:	ef e3       	ldi	r30, 0x3F	; 63
    3d60:	f2 e6       	ldi	r31, 0x62	; 98
    3d62:	01 90       	ld	r0, Z+
    3d64:	00 20       	and	r0, r0
    3d66:	e9 f7       	brne	.-6      	; 0x3d62 <_ZL13solve_commandv+0x312>
    3d68:	31 97       	sbiw	r30, 0x01	; 1
    3d6a:	ef 53       	subi	r30, 0x3F	; 63
    3d6c:	f2 46       	sbci	r31, 0x62	; 98
    3d6e:	b6 97       	sbiw	r30, 0x26	; 38
    3d70:	48 f0       	brcs	.+18     	; 0x3d84 <_ZL13solve_commandv+0x334>
    3d72:	81 e0       	ldi	r24, 0x01	; 1
    3d74:	90 91 76 62 	lds	r25, 0x6276	; 0x806276 <_ZL7cmdBuff+0x37>
    3d78:	94 37       	cpi	r25, 0x74	; 116
    3d7a:	09 f0       	breq	.+2      	; 0x3d7e <_ZL13solve_commandv+0x32e>
    3d7c:	80 e0       	ldi	r24, 0x00	; 0
    3d7e:	80 93 91 63 	sts	0x6391, r24	; 0x806391 <_ZN9my_eeprom12measure_ProxE>
    3d82:	02 c0       	rjmp	.+4      	; 0x3d88 <_ZL13solve_commandv+0x338>
		//o[W
		else my_eeprom::measure_Prox = false;
    3d84:	10 92 91 63 	sts	0x6391, r1	; 0x806391 <_ZN9my_eeprom12measure_ProxE>
		
		//vJn
		char num2[11];
		num2[10] = '\0';
    3d88:	1b 86       	std	Y+11, r1	; 0x0b
		strncpy(num2, command + 27, 10);
    3d8a:	4a e0       	ldi	r20, 0x0A	; 10
    3d8c:	50 e0       	ldi	r21, 0x00	; 0
    3d8e:	6a e5       	ldi	r22, 0x5A	; 90
    3d90:	72 e6       	ldi	r23, 0x62	; 98
    3d92:	ce 01       	movw	r24, r28
    3d94:	01 96       	adiw	r24, 0x01	; 1
    3d96:	0e 94 0c 39 	call	0x7218	; 0x7218 <strncpy>
		startTime = atol(num2);
    3d9a:	ce 01       	movw	r24, r28
    3d9c:	01 96       	adiw	r24, 0x01	; 1
    3d9e:	0e 94 d7 38 	call	0x71ae	; 0x71ae <atol>
    3da2:	60 93 09 60 	sts	0x6009, r22	; 0x806009 <_ZL9startTime>
    3da6:	70 93 0a 60 	sts	0x600A, r23	; 0x80600a <_ZL9startTime+0x1>
    3daa:	80 93 0b 60 	sts	0x600B, r24	; 0x80600b <_ZL9startTime+0x2>
    3dae:	90 93 0c 60 	sts	0x600C, r25	; 0x80600c <_ZL9startTime+0x3>
		
		//MOEEPROM
		my_eeprom::SetMeasurementSetting();
    3db2:	0e 94 e5 2c 	call	0x59ca	; 0x59ca <_ZN9my_eeprom21SetMeasurementSettingEv>
		
		//ACK
		sprintf(charBuff, "CMS:%d,%u,%d,%u,%d,%u,%d,%u,%ld,%d,%u,%d,%u,%d,%u,%d\r",
    3db6:	40 90 91 63 	lds	r4, 0x6391	; 0x806391 <_ZN9my_eeprom12measure_ProxE>
    3dba:	c0 90 0d 60 	lds	r12, 0x600D	; 0x80600d <_ZN9my_eeprom12interval_AD3E>
    3dbe:	d0 90 0e 60 	lds	r13, 0x600E	; 0x80600e <_ZN9my_eeprom12interval_AD3E+0x1>
    3dc2:	50 90 92 63 	lds	r5, 0x6392	; 0x806392 <_ZN9my_eeprom11measure_AD3E>
    3dc6:	e0 90 0f 60 	lds	r14, 0x600F	; 0x80600f <_ZN9my_eeprom12interval_AD2E>
    3dca:	f0 90 10 60 	lds	r15, 0x6010	; 0x806010 <_ZN9my_eeprom12interval_AD2E+0x1>
    3dce:	60 90 93 63 	lds	r6, 0x6393	; 0x806393 <_ZN9my_eeprom11measure_AD2E>
    3dd2:	00 91 11 60 	lds	r16, 0x6011	; 0x806011 <_ZN9my_eeprom12interval_AD1E>
    3dd6:	10 91 12 60 	lds	r17, 0x6012	; 0x806012 <_ZN9my_eeprom12interval_AD1E+0x1>
    3dda:	70 90 94 63 	lds	r7, 0x6394	; 0x806394 <_ZN9my_eeprom11measure_AD1E>
    3dde:	80 91 09 60 	lds	r24, 0x6009	; 0x806009 <_ZL9startTime>
    3de2:	90 91 0a 60 	lds	r25, 0x600A	; 0x80600a <_ZL9startTime+0x1>
    3de6:	a0 91 0b 60 	lds	r26, 0x600B	; 0x80600b <_ZL9startTime+0x2>
    3dea:	b0 91 0c 60 	lds	r27, 0x600C	; 0x80600c <_ZL9startTime+0x3>
    3dee:	e0 91 13 60 	lds	r30, 0x6013	; 0x806013 <_ZN9my_eeprom12interval_illE>
    3df2:	f0 91 14 60 	lds	r31, 0x6014	; 0x806014 <_ZN9my_eeprom12interval_illE+0x1>
    3df6:	80 90 1b 60 	lds	r8, 0x601B	; 0x80601b <_ZN9my_eeprom11measure_illE>
    3dfa:	60 91 15 60 	lds	r22, 0x6015	; 0x806015 <_ZN9my_eeprom12interval_velE>
    3dfe:	70 91 16 60 	lds	r23, 0x6016	; 0x806016 <_ZN9my_eeprom12interval_velE+0x1>
    3e02:	90 90 1c 60 	lds	r9, 0x601C	; 0x80601c <_ZN9my_eeprom11measure_velE>
    3e06:	40 91 17 60 	lds	r20, 0x6017	; 0x806017 <_ZN9my_eeprom12interval_glbE>
    3e0a:	50 91 18 60 	lds	r21, 0x6018	; 0x806018 <_ZN9my_eeprom12interval_glbE+0x1>
    3e0e:	a0 90 1d 60 	lds	r10, 0x601D	; 0x80601d <_ZN9my_eeprom11measure_glbE>
    3e12:	20 91 19 60 	lds	r18, 0x6019	; 0x806019 <_ZN9my_eeprom11interval_thE>
    3e16:	30 91 1a 60 	lds	r19, 0x601A	; 0x80601a <_ZN9my_eeprom11interval_thE+0x1>
    3e1a:	b0 90 1e 60 	lds	r11, 0x601E	; 0x80601e <_ZN9my_eeprom10measure_thE>
			my_eeprom::measure_ill, my_eeprom::interval_ill, 
			startTime,
			my_eeprom::measure_AD1, my_eeprom::interval_AD1, 
			my_eeprom::measure_AD2, my_eeprom::interval_AD2, 
			my_eeprom::measure_AD3, my_eeprom::interval_AD3,
			my_eeprom::measure_Prox);
    3e1e:	1f 92       	push	r1
    3e20:	4f 92       	push	r4
    3e22:	df 92       	push	r13
    3e24:	cf 92       	push	r12
    3e26:	1f 92       	push	r1
    3e28:	5f 92       	push	r5
    3e2a:	ff 92       	push	r15
    3e2c:	ef 92       	push	r14
    3e2e:	1f 92       	push	r1
    3e30:	6f 92       	push	r6
    3e32:	1f 93       	push	r17
    3e34:	0f 93       	push	r16
    3e36:	1f 92       	push	r1
    3e38:	7f 92       	push	r7
    3e3a:	bf 93       	push	r27
    3e3c:	af 93       	push	r26
    3e3e:	9f 93       	push	r25
    3e40:	8f 93       	push	r24
    3e42:	ff 93       	push	r31
    3e44:	ef 93       	push	r30
    3e46:	1f 92       	push	r1
    3e48:	8f 92       	push	r8
    3e4a:	7f 93       	push	r23
    3e4c:	6f 93       	push	r22
    3e4e:	1f 92       	push	r1
    3e50:	9f 92       	push	r9
    3e52:	5f 93       	push	r21
    3e54:	4f 93       	push	r20
    3e56:	1f 92       	push	r1
    3e58:	af 92       	push	r10
    3e5a:	3f 93       	push	r19
    3e5c:	2f 93       	push	r18
    3e5e:	1f 92       	push	r1
    3e60:	bf 92       	push	r11
    3e62:	8c e6       	ldi	r24, 0x6C	; 108
    3e64:	90 e6       	ldi	r25, 0x60	; 96
    3e66:	9f 93       	push	r25
    3e68:	8f 93       	push	r24
    3e6a:	83 e9       	ldi	r24, 0x93	; 147
    3e6c:	91 e6       	ldi	r25, 0x61	; 97
    3e6e:	9f 93       	push	r25
    3e70:	8f 93       	push	r24
    3e72:	0e 94 68 39 	call	0x72d0	; 0x72d0 <sprintf>
		my_xbee::bltx_chars(charBuff);
    3e76:	cd bf       	out	0x3d, r28	; 61
    3e78:	de bf       	out	0x3e, r29	; 62
    3e7a:	83 e9       	ldi	r24, 0x93	; 147
    3e7c:	91 e6       	ldi	r25, 0x61	; 97
    3e7e:	0e 94 ee 33 	call	0x67dc	; 0x67dc <_ZN7my_xbee10bltx_charsEPKc>
    3e82:	00 c1       	rjmp	.+512    	; 0x4084 <_ZL13solve_commandv+0x634>
	}
	//Load Measurement Settings
	else if(strncmp(command, "LMS", 3) == 0)
    3e84:	43 e0       	ldi	r20, 0x03	; 3
    3e86:	50 e0       	ldi	r21, 0x00	; 0
    3e88:	62 ea       	ldi	r22, 0xA2	; 162
    3e8a:	70 e6       	ldi	r23, 0x60	; 96
    3e8c:	8f e3       	ldi	r24, 0x3F	; 63
    3e8e:	92 e6       	ldi	r25, 0x62	; 98
    3e90:	0e 94 fe 38 	call	0x71fc	; 0x71fc <strncmp>
    3e94:	89 2b       	or	r24, r25
    3e96:	09 f0       	breq	.+2      	; 0x3e9a <_ZL13solve_commandv+0x44a>
    3e98:	67 c0       	rjmp	.+206    	; 0x3f68 <_ZL13solve_commandv+0x518>
	{
		sprintf(charBuff, "LMS:%d,%u,%d,%u,%d,%u,%d,%u,%ld,%d,%u,%d,%u,%d,%u,%d\r",
    3e9a:	40 90 91 63 	lds	r4, 0x6391	; 0x806391 <_ZN9my_eeprom12measure_ProxE>
    3e9e:	c0 90 0d 60 	lds	r12, 0x600D	; 0x80600d <_ZN9my_eeprom12interval_AD3E>
    3ea2:	d0 90 0e 60 	lds	r13, 0x600E	; 0x80600e <_ZN9my_eeprom12interval_AD3E+0x1>
    3ea6:	50 90 92 63 	lds	r5, 0x6392	; 0x806392 <_ZN9my_eeprom11measure_AD3E>
    3eaa:	e0 90 0f 60 	lds	r14, 0x600F	; 0x80600f <_ZN9my_eeprom12interval_AD2E>
    3eae:	f0 90 10 60 	lds	r15, 0x6010	; 0x806010 <_ZN9my_eeprom12interval_AD2E+0x1>
    3eb2:	60 90 93 63 	lds	r6, 0x6393	; 0x806393 <_ZN9my_eeprom11measure_AD2E>
    3eb6:	00 91 11 60 	lds	r16, 0x6011	; 0x806011 <_ZN9my_eeprom12interval_AD1E>
    3eba:	10 91 12 60 	lds	r17, 0x6012	; 0x806012 <_ZN9my_eeprom12interval_AD1E+0x1>
    3ebe:	70 90 94 63 	lds	r7, 0x6394	; 0x806394 <_ZN9my_eeprom11measure_AD1E>
    3ec2:	80 91 09 60 	lds	r24, 0x6009	; 0x806009 <_ZL9startTime>
    3ec6:	90 91 0a 60 	lds	r25, 0x600A	; 0x80600a <_ZL9startTime+0x1>
    3eca:	a0 91 0b 60 	lds	r26, 0x600B	; 0x80600b <_ZL9startTime+0x2>
    3ece:	b0 91 0c 60 	lds	r27, 0x600C	; 0x80600c <_ZL9startTime+0x3>
    3ed2:	e0 91 13 60 	lds	r30, 0x6013	; 0x806013 <_ZN9my_eeprom12interval_illE>
    3ed6:	f0 91 14 60 	lds	r31, 0x6014	; 0x806014 <_ZN9my_eeprom12interval_illE+0x1>
    3eda:	80 90 1b 60 	lds	r8, 0x601B	; 0x80601b <_ZN9my_eeprom11measure_illE>
    3ede:	60 91 15 60 	lds	r22, 0x6015	; 0x806015 <_ZN9my_eeprom12interval_velE>
    3ee2:	70 91 16 60 	lds	r23, 0x6016	; 0x806016 <_ZN9my_eeprom12interval_velE+0x1>
    3ee6:	90 90 1c 60 	lds	r9, 0x601C	; 0x80601c <_ZN9my_eeprom11measure_velE>
    3eea:	40 91 17 60 	lds	r20, 0x6017	; 0x806017 <_ZN9my_eeprom12interval_glbE>
    3eee:	50 91 18 60 	lds	r21, 0x6018	; 0x806018 <_ZN9my_eeprom12interval_glbE+0x1>
    3ef2:	a0 90 1d 60 	lds	r10, 0x601D	; 0x80601d <_ZN9my_eeprom11measure_glbE>
    3ef6:	20 91 19 60 	lds	r18, 0x6019	; 0x806019 <_ZN9my_eeprom11interval_thE>
    3efa:	30 91 1a 60 	lds	r19, 0x601A	; 0x80601a <_ZN9my_eeprom11interval_thE+0x1>
    3efe:	b0 90 1e 60 	lds	r11, 0x601E	; 0x80601e <_ZN9my_eeprom10measure_thE>
			my_eeprom::measure_ill, my_eeprom::interval_ill, 
			startTime,
			my_eeprom::measure_AD1, my_eeprom::interval_AD1,
			my_eeprom::measure_AD2, my_eeprom::interval_AD2,
			my_eeprom::measure_AD3, my_eeprom::interval_AD3,
			my_eeprom::measure_Prox);
    3f02:	1f 92       	push	r1
    3f04:	4f 92       	push	r4
    3f06:	df 92       	push	r13
    3f08:	cf 92       	push	r12
    3f0a:	1f 92       	push	r1
    3f0c:	5f 92       	push	r5
    3f0e:	ff 92       	push	r15
    3f10:	ef 92       	push	r14
    3f12:	1f 92       	push	r1
    3f14:	6f 92       	push	r6
    3f16:	1f 93       	push	r17
    3f18:	0f 93       	push	r16
    3f1a:	1f 92       	push	r1
    3f1c:	7f 92       	push	r7
    3f1e:	bf 93       	push	r27
    3f20:	af 93       	push	r26
    3f22:	9f 93       	push	r25
    3f24:	8f 93       	push	r24
    3f26:	ff 93       	push	r31
    3f28:	ef 93       	push	r30
    3f2a:	1f 92       	push	r1
    3f2c:	8f 92       	push	r8
    3f2e:	7f 93       	push	r23
    3f30:	6f 93       	push	r22
    3f32:	1f 92       	push	r1
    3f34:	9f 92       	push	r9
    3f36:	5f 93       	push	r21
    3f38:	4f 93       	push	r20
    3f3a:	1f 92       	push	r1
    3f3c:	af 92       	push	r10
    3f3e:	3f 93       	push	r19
    3f40:	2f 93       	push	r18
    3f42:	1f 92       	push	r1
    3f44:	bf 92       	push	r11
    3f46:	86 ea       	ldi	r24, 0xA6	; 166
    3f48:	90 e6       	ldi	r25, 0x60	; 96
    3f4a:	9f 93       	push	r25
    3f4c:	8f 93       	push	r24
    3f4e:	83 e9       	ldi	r24, 0x93	; 147
    3f50:	91 e6       	ldi	r25, 0x61	; 97
    3f52:	9f 93       	push	r25
    3f54:	8f 93       	push	r24
    3f56:	0e 94 68 39 	call	0x72d0	; 0x72d0 <sprintf>
		my_xbee::bltx_chars(charBuff);
    3f5a:	cd bf       	out	0x3d, r28	; 61
    3f5c:	de bf       	out	0x3e, r29	; 62
    3f5e:	83 e9       	ldi	r24, 0x93	; 147
    3f60:	91 e6       	ldi	r25, 0x61	; 97
    3f62:	0e 94 ee 33 	call	0x67dc	; 0x67dc <_ZN7my_xbee10bltx_charsEPKc>
    3f66:	8e c0       	rjmp	.+284    	; 0x4084 <_ZL13solve_commandv+0x634>
	}
	//End Logging
	else if(strncmp(command, "ENL", 3) == 0)
    3f68:	43 e0       	ldi	r20, 0x03	; 3
    3f6a:	50 e0       	ldi	r21, 0x00	; 0
    3f6c:	6c ed       	ldi	r22, 0xDC	; 220
    3f6e:	70 e6       	ldi	r23, 0x60	; 96
    3f70:	8f e3       	ldi	r24, 0x3F	; 63
    3f72:	92 e6       	ldi	r25, 0x62	; 98
    3f74:	0e 94 fe 38 	call	0x71fc	; 0x71fc <strncmp>
    3f78:	89 2b       	or	r24, r25
    3f7a:	39 f4       	brne	.+14     	; 0x3f8a <_ZL13solve_commandv+0x53a>
	{
		logging = false;
    3f7c:	10 92 6e 63 	sts	0x636E, r1	; 0x80636e <_ZL7logging>
		my_xbee::bltx_chars("ENL\r");
    3f80:	80 ee       	ldi	r24, 0xE0	; 224
    3f82:	90 e6       	ldi	r25, 0x60	; 96
    3f84:	0e 94 ee 33 	call	0x67dc	; 0x67dc <_ZN7my_xbee10bltx_charsEPKc>
    3f88:	7d c0       	rjmp	.+250    	; 0x4084 <_ZL13solve_commandv+0x634>
	}
	//Set Correction Factor
	else if(strncmp(command, "SCF", 3) == 0)
    3f8a:	43 e0       	ldi	r20, 0x03	; 3
    3f8c:	50 e0       	ldi	r21, 0x00	; 0
    3f8e:	65 ee       	ldi	r22, 0xE5	; 229
    3f90:	70 e6       	ldi	r23, 0x60	; 96
    3f92:	8f e3       	ldi	r24, 0x3F	; 63
    3f94:	92 e6       	ldi	r25, 0x62	; 98
    3f96:	0e 94 fe 38 	call	0x71fc	; 0x71fc <strncmp>
    3f9a:	89 2b       	or	r24, r25
    3f9c:	79 f4       	brne	.+30     	; 0x3fbc <_ZL13solve_commandv+0x56c>
	{
		my_eeprom::SetCorrectionFactor(command);
    3f9e:	8f e3       	ldi	r24, 0x3F	; 63
    3fa0:	92 e6       	ldi	r25, 0x62	; 98
    3fa2:	0e 94 06 29 	call	0x520c	; 0x520c <_ZN9my_eeprom19SetCorrectionFactorEPKc>
		my_eeprom::MakeCorrectionFactorString(charBuff, "SCF");
    3fa6:	65 ee       	ldi	r22, 0xE5	; 229
    3fa8:	70 e6       	ldi	r23, 0x60	; 96
    3faa:	83 e9       	ldi	r24, 0x93	; 147
    3fac:	91 e6       	ldi	r25, 0x61	; 97
    3fae:	0e 94 a4 2b 	call	0x5748	; 0x5748 <_ZN9my_eeprom26MakeCorrectionFactorStringEPcPKc>
		my_xbee::bltx_chars(charBuff);
    3fb2:	83 e9       	ldi	r24, 0x93	; 147
    3fb4:	91 e6       	ldi	r25, 0x61	; 97
    3fb6:	0e 94 ee 33 	call	0x67dc	; 0x67dc <_ZN7my_xbee10bltx_charsEPKc>
    3fba:	64 c0       	rjmp	.+200    	; 0x4084 <_ZL13solve_commandv+0x634>
	}
	//Load Correction Factor
	else if(strncmp(command, "LCF", 3) == 0)
    3fbc:	43 e0       	ldi	r20, 0x03	; 3
    3fbe:	50 e0       	ldi	r21, 0x00	; 0
    3fc0:	69 ee       	ldi	r22, 0xE9	; 233
    3fc2:	70 e6       	ldi	r23, 0x60	; 96
    3fc4:	8f e3       	ldi	r24, 0x3F	; 63
    3fc6:	92 e6       	ldi	r25, 0x62	; 98
    3fc8:	0e 94 fe 38 	call	0x71fc	; 0x71fc <strncmp>
    3fcc:	89 2b       	or	r24, r25
    3fce:	59 f4       	brne	.+22     	; 0x3fe6 <_ZL13solve_commandv+0x596>
	{
		my_eeprom::MakeCorrectionFactorString(charBuff, "LCF");
    3fd0:	69 ee       	ldi	r22, 0xE9	; 233
    3fd2:	70 e6       	ldi	r23, 0x60	; 96
    3fd4:	83 e9       	ldi	r24, 0x93	; 147
    3fd6:	91 e6       	ldi	r25, 0x61	; 97
    3fd8:	0e 94 a4 2b 	call	0x5748	; 0x5748 <_ZN9my_eeprom26MakeCorrectionFactorStringEPcPKc>
		my_xbee::bltx_chars(charBuff);
    3fdc:	83 e9       	ldi	r24, 0x93	; 147
    3fde:	91 e6       	ldi	r25, 0x61	; 97
    3fe0:	0e 94 ee 33 	call	0x67dc	; 0x67dc <_ZN7my_xbee10bltx_charsEPKc>
    3fe4:	4f c0       	rjmp	.+158    	; 0x4084 <_ZL13solve_commandv+0x634>
	}
	//Change Logger Name
	else if(strncmp(command, "CLN", 3) == 0)
    3fe6:	43 e0       	ldi	r20, 0x03	; 3
    3fe8:	50 e0       	ldi	r21, 0x00	; 0
    3fea:	6d ee       	ldi	r22, 0xED	; 237
    3fec:	70 e6       	ldi	r23, 0x60	; 96
    3fee:	8f e3       	ldi	r24, 0x3F	; 63
    3ff0:	92 e6       	ldi	r25, 0x62	; 98
    3ff2:	0e 94 fe 38 	call	0x71fc	; 0x71fc <strncmp>
    3ff6:	89 2b       	or	r24, r25
    3ff8:	19 f5       	brne	.+70     	; 0x4040 <_ZL13solve_commandv+0x5f0>
	{
		strncpy(my_eeprom::mlName, command + 3, 20);
    3ffa:	44 e1       	ldi	r20, 0x14	; 20
    3ffc:	50 e0       	ldi	r21, 0x00	; 0
    3ffe:	62 e4       	ldi	r22, 0x42	; 66
    4000:	72 e6       	ldi	r23, 0x62	; 98
    4002:	8b e7       	ldi	r24, 0x7B	; 123
    4004:	93 e6       	ldi	r25, 0x63	; 99
    4006:	0e 94 0c 39 	call	0x7218	; 0x7218 <strncpy>
		my_eeprom::SaveName();
    400a:	0e 94 c1 2d 	call	0x5b82	; 0x5b82 <_ZN9my_eeprom8SaveNameEv>
		
		//ACK
		char ack[21 + 4];
		sprintf(ack, "CLN:%s\r", my_eeprom::mlName);		
    400e:	8b e7       	ldi	r24, 0x7B	; 123
    4010:	93 e6       	ldi	r25, 0x63	; 99
    4012:	9f 93       	push	r25
    4014:	8f 93       	push	r24
    4016:	81 ef       	ldi	r24, 0xF1	; 241
    4018:	90 e6       	ldi	r25, 0x60	; 96
    401a:	9f 93       	push	r25
    401c:	8f 93       	push	r24
    401e:	8e 01       	movw	r16, r28
    4020:	0f 5f       	subi	r16, 0xFF	; 255
    4022:	1f 4f       	sbci	r17, 0xFF	; 255
    4024:	1f 93       	push	r17
    4026:	0f 93       	push	r16
    4028:	0e 94 68 39 	call	0x72d0	; 0x72d0 <sprintf>
		my_xbee::bltx_chars(ack);
    402c:	c8 01       	movw	r24, r16
    402e:	0e 94 ee 33 	call	0x67dc	; 0x67dc <_ZN7my_xbee10bltx_charsEPKc>
    4032:	0f 90       	pop	r0
    4034:	0f 90       	pop	r0
    4036:	0f 90       	pop	r0
    4038:	0f 90       	pop	r0
    403a:	0f 90       	pop	r0
    403c:	0f 90       	pop	r0
    403e:	22 c0       	rjmp	.+68     	; 0x4084 <_ZL13solve_commandv+0x634>
	}
	//Load Logger Name
	else if(strncmp(command, "LLN", 3) == 0)
    4040:	43 e0       	ldi	r20, 0x03	; 3
    4042:	50 e0       	ldi	r21, 0x00	; 0
    4044:	69 ef       	ldi	r22, 0xF9	; 249
    4046:	70 e6       	ldi	r23, 0x60	; 96
    4048:	8f e3       	ldi	r24, 0x3F	; 63
    404a:	92 e6       	ldi	r25, 0x62	; 98
    404c:	0e 94 fe 38 	call	0x71fc	; 0x71fc <strncmp>
    4050:	89 2b       	or	r24, r25
    4052:	c1 f4       	brne	.+48     	; 0x4084 <_ZL13solve_commandv+0x634>
	{
		char name[21+4];
		sprintf(name, "LLN:%s\r", my_eeprom::mlName);
    4054:	8b e7       	ldi	r24, 0x7B	; 123
    4056:	93 e6       	ldi	r25, 0x63	; 99
    4058:	9f 93       	push	r25
    405a:	8f 93       	push	r24
    405c:	8d ef       	ldi	r24, 0xFD	; 253
    405e:	90 e6       	ldi	r25, 0x60	; 96
    4060:	9f 93       	push	r25
    4062:	8f 93       	push	r24
    4064:	8e 01       	movw	r16, r28
    4066:	0f 5f       	subi	r16, 0xFF	; 255
    4068:	1f 4f       	sbci	r17, 0xFF	; 255
    406a:	1f 93       	push	r17
    406c:	0f 93       	push	r16
    406e:	0e 94 68 39 	call	0x72d0	; 0x72d0 <sprintf>
		my_xbee::bltx_chars(name);
    4072:	c8 01       	movw	r24, r16
    4074:	0e 94 ee 33 	call	0x67dc	; 0x67dc <_ZN7my_xbee10bltx_charsEPKc>
    4078:	0f 90       	pop	r0
    407a:	0f 90       	pop	r0
    407c:	0f 90       	pop	r0
    407e:	0f 90       	pop	r0
    4080:	0f 90       	pop	r0
    4082:	0f 90       	pop	r0
	}
	
	//R}h
	cmdBuff[0] = '\0';
    4084:	10 92 3f 62 	sts	0x623F, r1	; 0x80623f <_ZL7cmdBuff>
}
    4088:	6f 96       	adiw	r28, 0x1f	; 31
    408a:	cd bf       	out	0x3d, r28	; 61
    408c:	de bf       	out	0x3e, r29	; 62
    408e:	df 91       	pop	r29
    4090:	cf 91       	pop	r28
    4092:	1f 91       	pop	r17
    4094:	0f 91       	pop	r16
    4096:	ff 90       	pop	r15
    4098:	ef 90       	pop	r14
    409a:	df 90       	pop	r13
    409c:	cf 90       	pop	r12
    409e:	bf 90       	pop	r11
    40a0:	af 90       	pop	r10
    40a2:	9f 90       	pop	r9
    40a4:	8f 90       	pop	r8
    40a6:	7f 90       	pop	r7
    40a8:	6f 90       	pop	r6
    40aa:	5f 90       	pop	r5
    40ac:	4f 90       	pop	r4
    40ae:	08 95       	ret

000040b0 <_ZL14append_commandv>:
		framePosition++;
	}	
}

static void append_command(void)
{
    40b0:	0f 93       	push	r16
    40b2:	1f 93       	push	r17
    40b4:	cf 93       	push	r28
	//nulli
	unsigned int pos1 = 0;
    40b6:	80 e0       	ldi	r24, 0x00	; 0
    40b8:	90 e0       	ldi	r25, 0x00	; 0
	unsigned int cbLength = ARRAY_LENGTH(cmdBuff);
	while(cmdBuff[pos1] != '\0' && pos1 < cbLength) pos1++;
    40ba:	fc 01       	movw	r30, r24
    40bc:	e1 5c       	subi	r30, 0xC1	; 193
    40be:	fd 49       	sbci	r31, 0x9D	; 157
    40c0:	20 81       	ld	r18, Z
    40c2:	22 23       	and	r18, r18
    40c4:	29 f0       	breq	.+10     	; 0x40d0 <_ZL14append_commandv+0x20>
    40c6:	86 39       	cpi	r24, 0x96	; 150
    40c8:	91 05       	cpc	r25, r1
    40ca:	20 f0       	brcs	.+8      	; 0x40d4 <_ZL14append_commandv+0x24>
    40cc:	c0 e0       	ldi	r28, 0x00	; 0
    40ce:	03 c0       	rjmp	.+6      	; 0x40d6 <_ZL14append_commandv+0x26>
    40d0:	c0 e0       	ldi	r28, 0x00	; 0
    40d2:	01 c0       	rjmp	.+2      	; 0x40d6 <_ZL14append_commandv+0x26>
    40d4:	c1 e0       	ldi	r28, 0x01	; 1
    40d6:	cc 23       	and	r28, r28
    40d8:	11 f0       	breq	.+4      	; 0x40de <_ZL14append_commandv+0x2e>
    40da:	01 96       	adiw	r24, 0x01	; 1
    40dc:	ee cf       	rjmp	.-36     	; 0x40ba <_ZL14append_commandv+0xa>
	if(pos1 == cbLength - 1) pos1 = 0; //obt@iNULL
    40de:	85 39       	cpi	r24, 0x95	; 149
    40e0:	91 05       	cpc	r25, r1
    40e2:	11 f4       	brne	.+4      	; 0x40e8 <_ZL14append_commandv+0x38>
    40e4:	80 e0       	ldi	r24, 0x00	; 0
    40e6:	90 e0       	ldi	r25, 0x00	; 0
		//sR[h\R}hs
		if(nxtC == '\r')
		{
			cmdBuff[pos1] = '\0';
			solve_command();
			pos1 = 0;
    40e8:	00 e0       	ldi	r16, 0x00	; 0
    40ea:	10 e0       	ldi	r17, 0x00	; 0
	while(cmdBuff[pos1] != '\0' && pos1 < cbLength) pos1++;
	if(pos1 == cbLength - 1) pos1 = 0; //obt@iNULL
	
	unsigned int pos2 = 0;
	unsigned int fbLength =  ARRAY_LENGTH(frameBuff);
	while (frameBuff[pos2] != '\0' && pos2 < fbLength)
    40ec:	f8 01       	movw	r30, r16
    40ee:	eb 52       	subi	r30, 0x2B	; 43
    40f0:	fd 49       	sbci	r31, 0x9D	; 157
    40f2:	20 81       	ld	r18, Z
    40f4:	22 23       	and	r18, r18
    40f6:	29 f0       	breq	.+10     	; 0x4102 <_ZL14append_commandv+0x52>
    40f8:	06 39       	cpi	r16, 0x96	; 150
    40fa:	11 05       	cpc	r17, r1
    40fc:	20 f0       	brcs	.+8      	; 0x4106 <_ZL14append_commandv+0x56>
    40fe:	2c 2f       	mov	r18, r28
    4100:	03 c0       	rjmp	.+6      	; 0x4108 <_ZL14append_commandv+0x58>
    4102:	2c 2f       	mov	r18, r28
    4104:	01 c0       	rjmp	.+2      	; 0x4108 <_ZL14append_commandv+0x58>
    4106:	21 e0       	ldi	r18, 0x01	; 1
    4108:	22 23       	and	r18, r18
    410a:	c9 f0       	breq	.+50     	; 0x413e <_ZL14append_commandv+0x8e>
	{
		if(pos2 == fbLength - 1) break;
    410c:	05 39       	cpi	r16, 0x95	; 149
    410e:	11 05       	cpc	r17, r1
    4110:	b1 f0       	breq	.+44     	; 0x413e <_ZL14append_commandv+0x8e>
		
		char nxtC = frameBuff[pos2];
    4112:	f8 01       	movw	r30, r16
    4114:	eb 52       	subi	r30, 0x2B	; 43
    4116:	fd 49       	sbci	r31, 0x9D	; 157
    4118:	20 81       	ld	r18, Z
		cmdBuff[pos1] = nxtC;
    411a:	fc 01       	movw	r30, r24
    411c:	e1 5c       	subi	r30, 0xC1	; 193
    411e:	fd 49       	sbci	r31, 0x9D	; 157
    4120:	20 83       	st	Z, r18
		pos1++;
    4122:	01 96       	adiw	r24, 0x01	; 1
		pos2++;
    4124:	0f 5f       	subi	r16, 0xFF	; 255
    4126:	1f 4f       	sbci	r17, 0xFF	; 255
		//sR[h\R}hs
		if(nxtC == '\r')
    4128:	2d 30       	cpi	r18, 0x0D	; 13
    412a:	01 f7       	brne	.-64     	; 0x40ec <_ZL14append_commandv+0x3c>
		{
			cmdBuff[pos1] = '\0';
    412c:	fc 01       	movw	r30, r24
    412e:	e1 5c       	subi	r30, 0xC1	; 193
    4130:	fd 49       	sbci	r31, 0x9D	; 157
    4132:	10 82       	st	Z, r1
			solve_command();
    4134:	0e 94 28 1d 	call	0x3a50	; 0x3a50 <_ZL13solve_commandv>
			pos1 = 0;
    4138:	80 e0       	ldi	r24, 0x00	; 0
    413a:	90 e0       	ldi	r25, 0x00	; 0
    413c:	d7 cf       	rjmp	.-82     	; 0x40ec <_ZL14append_commandv+0x3c>
		}		
	}	
}
    413e:	cf 91       	pop	r28
    4140:	1f 91       	pop	r17
    4142:	0f 91       	pop	r16
    4144:	08 95       	ret

00004146 <_ZL11writeSDcard2tmPKc>:
			blinkLED(initSD ? 2 : 1);
	}
}

static void writeSDcard(const tm dtNow, const char write_chars[])
{
    4146:	af 92       	push	r10
    4148:	bf 92       	push	r11
    414a:	cf 92       	push	r12
    414c:	df 92       	push	r13
    414e:	ef 92       	push	r14
    4150:	ff 92       	push	r15
    4152:	0f 93       	push	r16
    4154:	1f 93       	push	r17
    4156:	cf 93       	push	r28
    4158:	df 93       	push	r29
    415a:	cd b7       	in	r28, 0x3d	; 61
    415c:	de b7       	in	r29, 0x3e	; 62
    415e:	69 97       	sbiw	r28, 0x19	; 25
    4160:	cd bf       	out	0x3d, r28	; 61
    4162:	de bf       	out	0x3e, r29	; 62
    4164:	ee 86       	std	Y+14, r14	; 0x0e
    4166:	ff 86       	std	Y+15, r15	; 0x0f
    4168:	08 8b       	std	Y+16, r16	; 0x10
    416a:	19 8b       	std	Y+17, r17	; 0x11
    416c:	2a 8b       	std	Y+18, r18	; 0x12
    416e:	3b 8b       	std	Y+19, r19	; 0x13
    4170:	4c 8b       	std	Y+20, r20	; 0x14
    4172:	5d 8b       	std	Y+21, r21	; 0x15
    4174:	6e 8b       	std	Y+22, r22	; 0x16
    4176:	7f 8b       	std	Y+23, r23	; 0x17
    4178:	88 8f       	std	Y+24, r24	; 0x18
    417a:	99 8f       	std	Y+25, r25	; 0x19
	//}EgI
	if(!initSD) return;
    417c:	90 91 2d 62 	lds	r25, 0x622D	; 0x80622d <initSD>
    4180:	99 23       	and	r25, r25
    4182:	09 f4       	brne	.+2      	; 0x4186 <_ZL11writeSDcard2tmPKc+0x40>
    4184:	4c c0       	rjmp	.+152    	; 0x421e <_ZL11writeSDcard2tmPKc+0xd8>
	
	char fileName[13]={}; //yyyymmdd.csv
    4186:	2d e0       	ldi	r18, 0x0D	; 13
    4188:	ce 01       	movw	r24, r28
    418a:	01 96       	adiw	r24, 0x01	; 1
    418c:	5c 01       	movw	r10, r24
    418e:	fc 01       	movw	r30, r24
    4190:	32 2f       	mov	r19, r18
    4192:	11 92       	st	Z+, r1
    4194:	3a 95       	dec	r19
    4196:	e9 f7       	brne	.-6      	; 0x4192 <_ZL11writeSDcard2tmPKc+0x4c>
	snprintf(fileName, sizeof(fileName), "%04d%02d%02d.txt", dtNow.tm_year + 1900, dtNow.tm_mon + 1, dtNow.tm_mday);
    4198:	e9 88       	ldd	r14, Y+17	; 0x11
    419a:	4e 2d       	mov	r20, r14
    419c:	0e 2c       	mov	r0, r14
    419e:	00 0c       	add	r0, r0
    41a0:	55 0b       	sbc	r21, r21
    41a2:	fb 88       	ldd	r15, Y+19	; 0x13
    41a4:	8f 2d       	mov	r24, r15
    41a6:	0f 2c       	mov	r0, r15
    41a8:	00 0c       	add	r0, r0
    41aa:	99 0b       	sbc	r25, r25
    41ac:	01 96       	adiw	r24, 0x01	; 1
    41ae:	0c 89       	ldd	r16, Y+20	; 0x14
    41b0:	1d 89       	ldd	r17, Y+21	; 0x15
    41b2:	04 59       	subi	r16, 0x94	; 148
    41b4:	18 4f       	sbci	r17, 0xF8	; 248
    41b6:	5f 93       	push	r21
    41b8:	ef 92       	push	r14
    41ba:	9f 93       	push	r25
    41bc:	8f 93       	push	r24
    41be:	1f 93       	push	r17
    41c0:	0f 93       	push	r16
    41c2:	85 e0       	ldi	r24, 0x05	; 5
    41c4:	91 e6       	ldi	r25, 0x61	; 97
    41c6:	9f 93       	push	r25
    41c8:	8f 93       	push	r24
    41ca:	1f 92       	push	r1
    41cc:	2f 93       	push	r18
    41ce:	bf 92       	push	r11
    41d0:	af 92       	push	r10
    41d2:	0e 94 38 39 	call	0x7270	; 0x7270 <snprintf>
	
	//SDJ[hL^ptXV
	myRTC.year=dtNow.tm_year+1900;
    41d6:	e3 e7       	ldi	r30, 0x73	; 115
    41d8:	f3 e6       	ldi	r31, 0x63	; 99
    41da:	00 83       	st	Z, r16
    41dc:	11 83       	std	Z+1, r17	; 0x01
	myRTC.month=dtNow.tm_mon+1;
    41de:	f3 94       	inc	r15
    41e0:	f2 82       	std	Z+2, r15	; 0x02
	myRTC.mday=dtNow.tm_mday;
    41e2:	e3 82       	std	Z+3, r14	; 0x03
	myRTC.hour=dtNow.tm_hour;
    41e4:	88 89       	ldd	r24, Y+16	; 0x10
    41e6:	85 83       	std	Z+5, r24	; 0x05
	myRTC.min=dtNow.tm_min;
    41e8:	8f 85       	ldd	r24, Y+15	; 0x0f
    41ea:	86 83       	std	Z+6, r24	; 0x06
	myRTC.sec=dtNow.tm_sec;
    41ec:	8e 85       	ldd	r24, Y+14	; 0x0e
    41ee:	87 83       	std	Z+7, r24	; 0x07
	
	FIL* fl = (FIL*)malloc(sizeof(FIL));	
    41f0:	82 e2       	ldi	r24, 0x22	; 34
    41f2:	92 e0       	ldi	r25, 0x02	; 2
    41f4:	0e 94 98 37 	call	0x6f30	; 0x6f30 <malloc>
    41f8:	8c 01       	movw	r16, r24
	if(f_open(fl, fileName, FA_OPEN_APPEND | FA_WRITE) == FR_OK){
    41fa:	42 e3       	ldi	r20, 0x32	; 50
    41fc:	b5 01       	movw	r22, r10
    41fe:	0e 94 9a 10 	call	0x2134	; 0x2134 <f_open>
    4202:	cd bf       	out	0x3d, r28	; 61
    4204:	de bf       	out	0x3e, r29	; 62
    4206:	81 11       	cpse	r24, r1
    4208:	07 c0       	rjmp	.+14     	; 0x4218 <_ZL11writeSDcard2tmPKc+0xd2>
		f_puts(write_chars, fl);
    420a:	b8 01       	movw	r22, r16
    420c:	c6 01       	movw	r24, r12
    420e:	0e 94 32 15 	call	0x2a64	; 0x2a64 <f_puts>
		f_close(fl);
    4212:	c8 01       	movw	r24, r16
    4214:	0e 94 14 15 	call	0x2a28	; 0x2a28 <f_close>
	}
	
	free(fl);
    4218:	c8 01       	movw	r24, r16
    421a:	0e 94 30 38 	call	0x7060	; 0x7060 <free>
}
    421e:	69 96       	adiw	r28, 0x19	; 25
    4220:	cd bf       	out	0x3d, r28	; 61
    4222:	de bf       	out	0x3e, r29	; 62
    4224:	df 91       	pop	r29
    4226:	cf 91       	pop	r28
    4228:	1f 91       	pop	r17
    422a:	0f 91       	pop	r16
    422c:	ff 90       	pop	r15
    422e:	ef 90       	pop	r14
    4230:	df 90       	pop	r13
    4232:	cf 90       	pop	r12
    4234:	bf 90       	pop	r11
    4236:	af 90       	pop	r10
    4238:	08 95       	ret

0000423a <main>:
#define ARRAY_LENGTH(array) (sizeof(array) / sizeof(array[0]))

int main(void)
{
	//EEPROM
	my_eeprom::LoadEEPROM();
    423a:	0e 94 5f 2f 	call	0x5ebe	; 0x5ebe <_ZN9my_eeprom10LoadEEPROMEv>
		
	//o|[g
	initialize_port();
    423e:	0e 94 4f 1c 	call	0x389e	; 0x389e <_ZL15initialize_portv>

	//UA~
	cli();
    4242:	f8 94       	cli
		
	//AD
	ADC0.CTRLA |= (ADC_ENABLE_bm | ADC_RESSEL_10BIT_gc); //ADCL, 10bit
    4244:	e0 e0       	ldi	r30, 0x00	; 0
    4246:	f6 e0       	ldi	r31, 0x06	; 6
    4248:	80 81       	ld	r24, Z
    424a:	85 60       	ori	r24, 0x05	; 5
    424c:	80 83       	st	Z, r24
	ADC0.CTRLB |= ADC_SAMPNUM_ACC64_gc; //64, 16, 32, 64
    424e:	81 81       	ldd	r24, Z+1	; 0x01
    4250:	86 60       	ori	r24, 0x06	; 6
    4252:	81 83       	std	Z+1, r24	; 0x01
	ADC0.CTRLC |= ADC_PRESC_DIV128_gc; //128vixAlj
    4254:	82 81       	ldd	r24, Z+2	; 0x02
    4256:	8c 60       	ori	r24, 0x0C	; 12
    4258:	82 83       	std	Z+2, r24	; 0x02
	VREF.ADC0REF = VREF_REFSEL_VREFA_gc; //dVREFA(2.0V)
    425a:	86 e0       	ldi	r24, 0x06	; 6
    425c:	80 93 a0 00 	sts	0x00A0, r24	; 0x8000a0 <__TEXT_REGION_LENGTH__+0x7f00a0>
	
	//XCb`
	PORTA.PIN2CTRL |= PORT_ISC_BOTHEDGES_gc; //dE~
    4260:	e0 e0       	ldi	r30, 0x00	; 0
    4262:	f4 e0       	ldi	r31, 0x04	; 4
    4264:	82 89       	ldd	r24, Z+18	; 0x12
    4266:	81 60       	ori	r24, 0x01	; 1
    4268:	82 8b       	std	Z+18, r24	; 0x12
		
	//M
	my_i2c::InitializeI2C(); //I2C
    426a:	0e 94 fc 2f 	call	0x5ff8	; 0x5ff8 <_ZN6my_i2c13InitializeI2CEv>
	//my_i2c::InitializeOPT(OPT_ADDRESS);  //xZTOPTxxxxg
	my_xbee::Initialize();  //XBeeiUARTj
    426e:	0e 94 1b 33 	call	0x6636	; 0x6636 <_ZN7my_xbee10InitializeEv>
	
	//^C}
	initialize_timer();
    4272:	0e 94 7a 1c 	call	0x38f4	; 0x38f4 <_ZL16initialize_timerv>
	PORTF.OUTSET = PIN5_bm;
}

inline static void wakeup_xbee(void)
{
	PORTF.OUTCLR = PIN5_bm;
    4276:	80 e2       	ldi	r24, 0x20	; 32
    4278:	80 93 a6 04 	sts	0x04A6, r24	; 0x8004a6 <__TEXT_REGION_LENGTH__+0x7f04a6>
	initialize_timer();
	
	//XBeeX[v
	wakeup_xbee();
	
	fSystem = (FATFS*) malloc(sizeof(FATFS));
    427c:	83 e3       	ldi	r24, 0x33	; 51
    427e:	92 e0       	ldi	r25, 0x02	; 2
    4280:	0e 94 98 37 	call	0x6f30	; 0x6f30 <malloc>
    4284:	80 93 2b 62 	sts	0x622B, r24	; 0x80622b <_ZL7fSystem>
    4288:	90 93 2c 62 	sts	0x622C, r25	; 0x80622c <_ZL7fSystem+0x1>
    428c:	2f e7       	ldi	r18, 0x7F	; 127
    428e:	8a e1       	ldi	r24, 0x1A	; 26
    4290:	96 e0       	ldi	r25, 0x06	; 6
    4292:	21 50       	subi	r18, 0x01	; 1
    4294:	80 40       	sbci	r24, 0x00	; 0
    4296:	90 40       	sbci	r25, 0x00	; 0
    4298:	e1 f7       	brne	.-8      	; 0x4292 <main+0x58>
    429a:	00 c0       	rjmp	.+0      	; 0x429c <main+0x62>
    429c:	00 00       	nop
	
	//I@
	_delay_ms(500);

	//J
	sei();
    429e:	78 94       	sei

	//MJtOmF
	if(my_eeprom::startAuto)
    42a0:	80 91 90 63 	lds	r24, 0x6390	; 0x806390 <_ZN9my_eeprom9startAutoE>
    42a4:	88 23       	and	r24, r24
    42a6:	c9 f0       	breq	.+50     	; 0x42da <main+0xa0>
	{
		logging = true;
    42a8:	81 e0       	ldi	r24, 0x01	; 1
    42aa:	80 93 6e 63 	sts	0x636E, r24	; 0x80636e <_ZL7logging>
		outputToXBee = true;
    42ae:	80 93 07 60 	sts	0x6007, r24	; 0x806007 <_ZL12outputToXBee>
		outputToBLE = outputToSDCard = false;
    42b2:	10 92 3d 62 	sts	0x623D, r1	; 0x80623d <_ZL14outputToSDCard>
    42b6:	10 92 3e 62 	sts	0x623E, r1	; 0x80623e <_ZL11outputToBLE>
		startTime = currentTime;
    42ba:	80 91 6f 63 	lds	r24, 0x636F	; 0x80636f <_ZL11currentTime>
    42be:	90 91 70 63 	lds	r25, 0x6370	; 0x806370 <_ZL11currentTime+0x1>
    42c2:	a0 91 71 63 	lds	r26, 0x6371	; 0x806371 <_ZL11currentTime+0x2>
    42c6:	b0 91 72 63 	lds	r27, 0x6372	; 0x806372 <_ZL11currentTime+0x3>
    42ca:	80 93 09 60 	sts	0x6009, r24	; 0x806009 <_ZL9startTime>
    42ce:	90 93 0a 60 	sts	0x600A, r25	; 0x80600a <_ZL9startTime+0x1>
    42d2:	a0 93 0b 60 	sts	0x600B, r26	; 0x80600b <_ZL9startTime+0x2>
    42d6:	b0 93 0c 60 	sts	0x600C, r27	; 0x80600c <_ZL9startTime+0x3>
	}
	
    while (1) 
    {
		//LoggingSDJ[h}Eg
		if(!logging && !initSD)
    42da:	80 91 6e 63 	lds	r24, 0x636E	; 0x80636e <_ZL7logging>
    42de:	81 11       	cpse	r24, r1
    42e0:	06 c0       	rjmp	.+12     	; 0x42ee <main+0xb4>
    42e2:	80 91 2d 62 	lds	r24, 0x622D	; 0x80622d <initSD>
    42e6:	88 23       	and	r24, r24
    42e8:	21 f0       	breq	.+8      	; 0x42f2 <main+0xb8>
    42ea:	80 e0       	ldi	r24, 0x00	; 0
    42ec:	03 c0       	rjmp	.+6      	; 0x42f4 <main+0xba>
    42ee:	80 e0       	ldi	r24, 0x00	; 0
    42f0:	01 c0       	rjmp	.+2      	; 0x42f4 <main+0xba>
    42f2:	81 e0       	ldi	r24, 0x01	; 1
    42f4:	88 23       	and	r24, r24
    42f6:	71 f0       	breq	.+28     	; 0x4314 <main+0xda>
			if(f_mount(fSystem, "", 1) == FR_OK) initSD = true;
    42f8:	41 e0       	ldi	r20, 0x01	; 1
    42fa:	6e e5       	ldi	r22, 0x5E	; 94
    42fc:	70 e6       	ldi	r23, 0x60	; 96
    42fe:	80 91 2b 62 	lds	r24, 0x622B	; 0x80622b <_ZL7fSystem>
    4302:	90 91 2c 62 	lds	r25, 0x622C	; 0x80622c <_ZL7fSystem+0x1>
    4306:	0e 94 57 10 	call	0x20ae	; 0x20ae <f_mount>
    430a:	81 11       	cpse	r24, r1
    430c:	03 c0       	rjmp	.+6      	; 0x4314 <main+0xda>
    430e:	81 e0       	ldi	r24, 0x01	; 1
    4310:	80 93 2d 62 	sts	0x622D, r24	; 0x80622d <initSD>
		
		//X[v[h		
		if(logging && !outputToBLE) set_sleep_mode(SLEEP_MODE_PWR_DOWN); //ATmega328PPWR_SAVE
    4314:	80 91 6e 63 	lds	r24, 0x636E	; 0x80636e <_ZL7logging>
    4318:	88 23       	and	r24, r24
    431a:	31 f0       	breq	.+12     	; 0x4328 <main+0xee>
    431c:	90 91 3e 62 	lds	r25, 0x623E	; 0x80623e <_ZL11outputToBLE>
    4320:	99 23       	and	r25, r25
    4322:	19 f0       	breq	.+6      	; 0x432a <main+0xf0>
    4324:	80 e0       	ldi	r24, 0x00	; 0
    4326:	01 c0       	rjmp	.+2      	; 0x432a <main+0xf0>
    4328:	80 e0       	ldi	r24, 0x00	; 0
    432a:	88 23       	and	r24, r24
    432c:	39 f0       	breq	.+14     	; 0x433c <main+0x102>
    432e:	e0 e5       	ldi	r30, 0x50	; 80
    4330:	f0 e0       	ldi	r31, 0x00	; 0
    4332:	80 81       	ld	r24, Z
    4334:	89 7f       	andi	r24, 0xF9	; 249
    4336:	84 60       	ori	r24, 0x04	; 4
    4338:	80 83       	st	Z, r24
    433a:	05 c0       	rjmp	.+10     	; 0x4346 <main+0x10c>
		else set_sleep_mode(SLEEP_MODE_IDLE); //MOJnOUARTMIDLEX[v
    433c:	e0 e5       	ldi	r30, 0x50	; 80
    433e:	f0 e0       	ldi	r31, 0x00	; 0
    4340:	80 81       	ld	r24, Z
    4342:	89 7f       	andi	r24, 0xF9	; 249
    4344:	80 83       	st	Z, r24

		//BluetoothMAMOXBeeX[viXBeedlABluetooth[hX[vsj
		if(logging && !outputToBLE) sleep_xbee();
    4346:	80 91 6e 63 	lds	r24, 0x636E	; 0x80636e <_ZL7logging>
    434a:	88 23       	and	r24, r24
    434c:	31 f0       	breq	.+12     	; 0x435a <main+0x120>
    434e:	90 91 3e 62 	lds	r25, 0x623E	; 0x80623e <_ZL11outputToBLE>
    4352:	99 23       	and	r25, r25
    4354:	19 f0       	breq	.+6      	; 0x435c <main+0x122>
    4356:	80 e0       	ldi	r24, 0x00	; 0
    4358:	01 c0       	rjmp	.+2      	; 0x435c <main+0x122>
    435a:	80 e0       	ldi	r24, 0x00	; 0
    435c:	88 23       	and	r24, r24
    435e:	19 f0       	breq	.+6      	; 0x4366 <main+0x12c>
	PORTA.OUTSET = PIN4_bm; //5VJn
}

inline static void sleep_xbee(void)
{
	PORTF.OUTSET = PIN5_bm;
    4360:	80 e2       	ldi	r24, 0x20	; 32
    4362:	80 93 a5 04 	sts	0x04A5, r24	; 0x8004a5 <__TEXT_REGION_LENGTH__+0x7f04a5>

		//BluetoothMAMOXBeeX[viXBeedlABluetooth[hX[vsj
		if(logging && !outputToBLE) sleep_xbee();
		
		//}CRX[v
		sleep_mode();
    4366:	e0 e5       	ldi	r30, 0x50	; 80
    4368:	f0 e0       	ldi	r31, 0x00	; 0
    436a:	80 81       	ld	r24, Z
    436c:	81 60       	ori	r24, 0x01	; 1
    436e:	80 83       	st	Z, r24
    4370:	88 95       	sleep
    4372:	80 81       	ld	r24, Z
    4374:	8e 7f       	andi	r24, 0xFE	; 254
    4376:	80 83       	st	Z, r24
		outputToXBee = true;
		outputToBLE = outputToSDCard = false;
		startTime = currentTime;
	}
	
    while (1) 
    4378:	b0 cf       	rjmp	.-160    	; 0x42da <main+0xa0>

0000437a <__vector_19>:
	SLPCTRL.CTRLA |= SLPCTRL_SEN_bm;
}

//UARTM
ISR(USART0_RXC_vect)
{
    437a:	1f 92       	push	r1
    437c:	0f 92       	push	r0
    437e:	0f b6       	in	r0, 0x3f	; 63
    4380:	0f 92       	push	r0
    4382:	11 24       	eor	r1, r1
    4384:	2f 93       	push	r18
    4386:	3f 93       	push	r19
    4388:	4f 93       	push	r20
    438a:	5f 93       	push	r21
    438c:	6f 93       	push	r22
    438e:	7f 93       	push	r23
    4390:	8f 93       	push	r24
    4392:	9f 93       	push	r25
    4394:	af 93       	push	r26
    4396:	bf 93       	push	r27
    4398:	ef 93       	push	r30
    439a:	ff 93       	push	r31
	char dat = USART0.RXDATAL;	//o
    439c:	80 91 00 08 	lds	r24, 0x0800	; 0x800800 <__TEXT_REGION_LENGTH__+0x7f0800>
	
	//JnR[hu~vB{EscapeAu~vR}hg
	if(dat == 0x7E)
    43a0:	8e 37       	cpi	r24, 0x7E	; 126
    43a2:	31 f4       	brne	.+12     	; 0x43b0 <__vector_19+0x36>
	{
		framePosition = 1;
    43a4:	81 e0       	ldi	r24, 0x01	; 1
    43a6:	80 93 6c 63 	sts	0x636C, r24	; 0x80636c <_ZL13framePosition>
		readingFrame = true;
    43aa:	80 93 6d 63 	sts	0x636D, r24	; 0x80636d <_ZL12readingFrame>
    43ae:	49 c0       	rjmp	.+146    	; 0x4442 <__vector_19+0xc8>
	}
	//t[
	else if(readingFrame)
    43b0:	90 91 6d 63 	lds	r25, 0x636D	; 0x80636d <_ZL12readingFrame>
    43b4:	99 23       	and	r25, r25
    43b6:	09 f4       	brne	.+2      	; 0x43ba <__vector_19+0x40>
    43b8:	44 c0       	rjmp	.+136    	; 0x4442 <__vector_19+0xc8>
	{
		if(framePosition == 1); //f[^oCgipPbgK0j
    43ba:	e0 91 6c 63 	lds	r30, 0x636C	; 0x80636c <_ZL13framePosition>
    43be:	e1 30       	cpi	r30, 0x01	; 1
    43c0:	d9 f1       	breq	.+118    	; 0x4438 <__vector_19+0xbe>
		else if(framePosition == 2) //f[^oCg
    43c2:	e2 30       	cpi	r30, 0x02	; 2
    43c4:	21 f4       	brne	.+8      	; 0x43ce <__vector_19+0x54>
			frameSize = (int)dat + 3;
    43c6:	8d 5f       	subi	r24, 0xFD	; 253
    43c8:	80 93 6b 63 	sts	0x636B, r24	; 0x80636b <_ZL9frameSize>
    43cc:	35 c0       	rjmp	.+106    	; 0x4438 <__vector_19+0xbe>
		else if(framePosition == 3 && dat != 0x90) //0x90OR}h//A
    43ce:	e3 30       	cpi	r30, 0x03	; 3
    43d0:	71 f4       	brne	.+28     	; 0x43ee <__vector_19+0x74>
    43d2:	80 39       	cpi	r24, 0x90	; 144
    43d4:	61 f0       	breq	.+24     	; 0x43ee <__vector_19+0x74>
		{
			if(dat == 0x90) xbeeOffset = 14; //ZigBee Recieve PacketItZbg
    43d6:	80 39       	cpi	r24, 0x90	; 144
    43d8:	21 f4       	brne	.+8      	; 0x43e2 <__vector_19+0x68>
    43da:	8e e0       	ldi	r24, 0x0E	; 14
    43dc:	80 93 08 60 	sts	0x6008, r24	; 0x806008 <_ZL10xbeeOffset>
    43e0:	2b c0       	rjmp	.+86     	; 0x4438 <__vector_19+0xbe>
			else if(dat == 0xAD) xbeeOffset = 4; //User Data RelayItZbg
    43e2:	8d 3a       	cpi	r24, 0xAD	; 173
    43e4:	49 f5       	brne	.+82     	; 0x4438 <__vector_19+0xbe>
    43e6:	84 e0       	ldi	r24, 0x04	; 4
    43e8:	80 93 08 60 	sts	0x6008, r24	; 0x806008 <_ZL10xbeeOffset>
    43ec:	25 c0       	rjmp	.+74     	; 0x4438 <__vector_19+0xbe>
		}
		else if(framePosition <= xbeeOffset); //MIvV
    43ee:	20 91 08 60 	lds	r18, 0x6008	; 0x806008 <_ZL10xbeeOffset>
    43f2:	2e 17       	cp	r18, r30
    43f4:	08 f5       	brcc	.+66     	; 0x4438 <__vector_19+0xbe>
		else
		{
			if(frameSize <= framePosition) //`FbNTB
    43f6:	90 91 6b 63 	lds	r25, 0x636B	; 0x80636b <_ZL9frameSize>
    43fa:	e9 17       	cp	r30, r25
    43fc:	90 f0       	brcs	.+36     	; 0x4422 <__vector_19+0xa8>
			{
				frameBuff[framePosition - (xbeeOffset + 1)] = '\0';
    43fe:	30 e0       	ldi	r19, 0x00	; 0
    4400:	2f 5f       	subi	r18, 0xFF	; 255
    4402:	3f 4f       	sbci	r19, 0xFF	; 255
    4404:	f0 e0       	ldi	r31, 0x00	; 0
    4406:	e2 1b       	sub	r30, r18
    4408:	f3 0b       	sbc	r31, r19
    440a:	eb 52       	subi	r30, 0x2B	; 43
    440c:	fd 49       	sbci	r31, 0x9D	; 157
    440e:	10 82       	st	Z, r1
				readingFrame = false;
    4410:	10 92 6d 63 	sts	0x636D, r1	; 0x80636d <_ZL12readingFrame>
				frameSize = 0;
    4414:	10 92 6b 63 	sts	0x636B, r1	; 0x80636b <_ZL9frameSize>
				framePosition = 0;
    4418:	10 92 6c 63 	sts	0x636C, r1	; 0x80636c <_ZL13framePosition>
				
				//R}h
				append_command();
    441c:	0e 94 58 20 	call	0x40b0	; 0x40b0 <_ZL14append_commandv>
    4420:	0b c0       	rjmp	.+22     	; 0x4438 <__vector_19+0xbe>
			}
			else if(framePosition < frameSize) //f[^obt@i[
    4422:	e9 17       	cp	r30, r25
    4424:	48 f4       	brcc	.+18     	; 0x4438 <__vector_19+0xbe>
				frameBuff[framePosition - (xbeeOffset + 1)] = dat;
    4426:	30 e0       	ldi	r19, 0x00	; 0
    4428:	2f 5f       	subi	r18, 0xFF	; 255
    442a:	3f 4f       	sbci	r19, 0xFF	; 255
    442c:	f0 e0       	ldi	r31, 0x00	; 0
    442e:	e2 1b       	sub	r30, r18
    4430:	f3 0b       	sbc	r31, r19
    4432:	eb 52       	subi	r30, 0x2B	; 43
    4434:	fd 49       	sbci	r31, 0x9D	; 157
    4436:	80 83       	st	Z, r24
		}
		
		framePosition++;
    4438:	80 91 6c 63 	lds	r24, 0x636C	; 0x80636c <_ZL13framePosition>
    443c:	8f 5f       	subi	r24, 0xFF	; 255
    443e:	80 93 6c 63 	sts	0x636C, r24	; 0x80636c <_ZL13framePosition>
	}	
}
    4442:	ff 91       	pop	r31
    4444:	ef 91       	pop	r30
    4446:	bf 91       	pop	r27
    4448:	af 91       	pop	r26
    444a:	9f 91       	pop	r25
    444c:	8f 91       	pop	r24
    444e:	7f 91       	pop	r23
    4450:	6f 91       	pop	r22
    4452:	5f 91       	pop	r21
    4454:	4f 91       	pop	r20
    4456:	3f 91       	pop	r19
    4458:	2f 91       	pop	r18
    445a:	0f 90       	pop	r0
    445c:	0f be       	out	0x3f, r0	; 63
    445e:	0f 90       	pop	r0
    4460:	1f 90       	pop	r1
    4462:	18 95       	reti

00004464 <__vector_7>:
	cmdBuff[0] = '\0';
}

// Timer1//FatFsiSDJ[hoMjp
ISR(TCA0_OVF_vect)
{
    4464:	1f 92       	push	r1
    4466:	0f 92       	push	r0
    4468:	0f b6       	in	r0, 0x3f	; 63
    446a:	0f 92       	push	r0
    446c:	11 24       	eor	r1, r1
    446e:	2f 93       	push	r18
    4470:	3f 93       	push	r19
    4472:	4f 93       	push	r20
    4474:	5f 93       	push	r21
    4476:	6f 93       	push	r22
    4478:	7f 93       	push	r23
    447a:	8f 93       	push	r24
    447c:	9f 93       	push	r25
    447e:	af 93       	push	r26
    4480:	bf 93       	push	r27
    4482:	ef 93       	push	r30
    4484:	ff 93       	push	r31
	disk_timerproc();	/* Drive timer procedure of low level disk I/O module */
    4486:	0e 94 ba 1b 	call	0x3774	; 0x3774 <disk_timerproc>
	
	TCA0.SINGLE.INTFLAGS = TCA_SINGLE_OVF_bm; //
    448a:	81 e0       	ldi	r24, 0x01	; 1
    448c:	80 93 0b 0a 	sts	0x0A0B, r24	; 0x800a0b <__TEXT_REGION_LENGTH__+0x7f0a0b>
}
    4490:	ff 91       	pop	r31
    4492:	ef 91       	pop	r30
    4494:	bf 91       	pop	r27
    4496:	af 91       	pop	r26
    4498:	9f 91       	pop	r25
    449a:	8f 91       	pop	r24
    449c:	7f 91       	pop	r23
    449e:	6f 91       	pop	r22
    44a0:	5f 91       	pop	r21
    44a2:	4f 91       	pop	r20
    44a4:	3f 91       	pop	r19
    44a6:	2f 91       	pop	r18
    44a8:	0f 90       	pop	r0
    44aa:	0f be       	out	0x3f, r0	; 63
    44ac:	0f 90       	pop	r0
    44ae:	1f 90       	pop	r1
    44b0:	18 95       	reti

000044b2 <__vector_4>:

//MOp1b
ISR(RTC_PIT_vect)
{
    44b2:	1f 92       	push	r1
    44b4:	0f 92       	push	r0
    44b6:	0f b6       	in	r0, 0x3f	; 63
    44b8:	0f 92       	push	r0
    44ba:	11 24       	eor	r1, r1
    44bc:	8f 92       	push	r8
    44be:	9f 92       	push	r9
    44c0:	af 92       	push	r10
    44c2:	bf 92       	push	r11
    44c4:	cf 92       	push	r12
    44c6:	df 92       	push	r13
    44c8:	ef 92       	push	r14
    44ca:	ff 92       	push	r15
    44cc:	0f 93       	push	r16
    44ce:	1f 93       	push	r17
    44d0:	2f 93       	push	r18
    44d2:	3f 93       	push	r19
    44d4:	4f 93       	push	r20
    44d6:	5f 93       	push	r21
    44d8:	6f 93       	push	r22
    44da:	7f 93       	push	r23
    44dc:	8f 93       	push	r24
    44de:	9f 93       	push	r25
    44e0:	af 93       	push	r26
    44e2:	bf 93       	push	r27
    44e4:	ef 93       	push	r30
    44e6:	ff 93       	push	r31
    44e8:	cf 93       	push	r28
    44ea:	df 93       	push	r29
    44ec:	cd b7       	in	r28, 0x3d	; 61
    44ee:	de b7       	in	r29, 0x3e	; 62
    44f0:	c8 55       	subi	r28, 0x58	; 88
    44f2:	d1 09       	sbc	r29, r1
    44f4:	cd bf       	out	0x3d, r28	; 61
    44f6:	de bf       	out	0x3e, r29	; 62
	//vtO
	RTC.PITINTFLAGS = RTC_PI_bm;
    44f8:	81 e0       	ldi	r24, 0x01	; 1
    44fa:	80 93 53 01 	sts	0x0153, r24	; 0x800153 <__TEXT_REGION_LENGTH__+0x7f0153>
	
	currentTime++; //1bi
    44fe:	80 91 6f 63 	lds	r24, 0x636F	; 0x80636f <_ZL11currentTime>
    4502:	90 91 70 63 	lds	r25, 0x6370	; 0x806370 <_ZL11currentTime+0x1>
    4506:	a0 91 71 63 	lds	r26, 0x6371	; 0x806371 <_ZL11currentTime+0x2>
    450a:	b0 91 72 63 	lds	r27, 0x6372	; 0x806372 <_ZL11currentTime+0x3>
    450e:	01 96       	adiw	r24, 0x01	; 1
    4510:	a1 1d       	adc	r26, r1
    4512:	b1 1d       	adc	r27, r1
    4514:	80 93 6f 63 	sts	0x636F, r24	; 0x80636f <_ZL11currentTime>
    4518:	90 93 70 63 	sts	0x6370, r25	; 0x806370 <_ZL11currentTime+0x1>
    451c:	a0 93 71 63 	sts	0x6371, r26	; 0x806371 <_ZL11currentTime+0x2>
    4520:	b0 93 72 63 	sts	0x6372, r27	; 0x806372 <_ZL11currentTime+0x3>
	
	//Zbg{^mF
	if(!(PORTA.IN & PIN2_bm))
    4524:	80 91 08 04 	lds	r24, 0x0408	; 0x800408 <__TEXT_REGION_LENGTH__+0x7f0408>
    4528:	82 fd       	sbrc	r24, 2
    452a:	38 c0       	rjmp	.+112    	; 0x459c <__vector_4+0xea>
	{
		resetTime++;
    452c:	80 91 29 62 	lds	r24, 0x6229	; 0x806229 <_ZL9resetTime>
    4530:	90 91 2a 62 	lds	r25, 0x622A	; 0x80622a <_ZL9resetTime+0x1>
    4534:	01 96       	adiw	r24, 0x01	; 1
    4536:	80 93 29 62 	sts	0x6229, r24	; 0x806229 <_ZL9resetTime>
    453a:	90 93 2a 62 	sts	0x622A, r25	; 0x80622a <_ZL9resetTime+0x1>
		if(3 < resetTime)
    453e:	80 91 29 62 	lds	r24, 0x6229	; 0x806229 <_ZL9resetTime>
    4542:	90 91 2a 62 	lds	r25, 0x622A	; 0x80622a <_ZL9resetTime+0x1>
    4546:	04 97       	sbiw	r24, 0x04	; 4
    4548:	68 f1       	brcs	.+90     	; 0x45a4 <__vector_4+0xf2>
		{
			logging=false;	//MO~
    454a:	10 92 6e 63 	sts	0x636E, r1	; 0x80636e <_ZL7logging>
			initSD = false;	//SDJ[h}Eg
    454e:	10 92 2d 62 	sts	0x622D, r1	; 0x80622d <initSD>
	return 2.0 * (float)ADC0.RES / 65536; //1024*64 (10bit,64)
}

static void sleep_anemo(void)
{
	PORTA.OUTCLR = PIN5_bm; //[f
    4552:	e0 e0       	ldi	r30, 0x00	; 0
    4554:	f4 e0       	ldi	r31, 0x04	; 4
    4556:	80 e2       	ldi	r24, 0x20	; 32
    4558:	86 83       	std	Z+6, r24	; 0x06
	PORTA.OUTCLR = PIN4_bm; //5V~
    455a:	80 e1       	ldi	r24, 0x10	; 16
    455c:	86 83       	std	Z+6, r24	; 0x06
inline static void blinkLED(int iterNum)
{
	if(iterNum < 1) return;

	//
	PORTD.OUTCLR = PIN6_bm; //UK
    455e:	80 e4       	ldi	r24, 0x40	; 64
    4560:	80 93 66 04 	sts	0x0466, r24	; 0x800466 <__TEXT_REGION_LENGTH__+0x7f0466>
	//_
	for(int i=0;i<iterNum;i++)
    4564:	80 e0       	ldi	r24, 0x00	; 0
    4566:	90 e0       	ldi	r25, 0x00	; 0
    4568:	83 30       	cpi	r24, 0x03	; 3
    456a:	91 05       	cpc	r25, r1
    456c:	0c f0       	brlt	.+2      	; 0x4570 <__vector_4+0xbe>
    456e:	e3 c4       	rjmp	.+2502   	; 0x4f36 <__vector_4+0xa84>
    4570:	2f e7       	ldi	r18, 0x7F	; 127
    4572:	38 e3       	ldi	r19, 0x38	; 56
    4574:	41 e0       	ldi	r20, 0x01	; 1
    4576:	21 50       	subi	r18, 0x01	; 1
    4578:	30 40       	sbci	r19, 0x00	; 0
    457a:	40 40       	sbci	r20, 0x00	; 0
    457c:	e1 f7       	brne	.-8      	; 0x4576 <__vector_4+0xc4>
    457e:	00 c0       	rjmp	.+0      	; 0x4580 <__vector_4+0xce>
    4580:	00 00       	nop
	{
		_delay_ms(100);
		PORTD.OUTSET = PIN6_bm; //_
    4582:	e0 e6       	ldi	r30, 0x60	; 96
    4584:	f4 e0       	ldi	r31, 0x04	; 4
    4586:	20 e4       	ldi	r18, 0x40	; 64
    4588:	25 83       	std	Z+5, r18	; 0x05
    458a:	a7 ea       	ldi	r26, 0xA7	; 167
    458c:	b1 e6       	ldi	r27, 0x61	; 97
    458e:	11 97       	sbiw	r26, 0x01	; 1
    4590:	f1 f7       	brne	.-4      	; 0x458e <__vector_4+0xdc>
    4592:	00 c0       	rjmp	.+0      	; 0x4594 <__vector_4+0xe2>
    4594:	00 00       	nop
		_delay_ms(25);
		PORTD.OUTCLR = PIN6_bm; //
    4596:	26 83       	std	Z+6, r18	; 0x06
	if(iterNum < 1) return;

	//
	PORTD.OUTCLR = PIN6_bm; //UK
	//_
	for(int i=0;i<iterNum;i++)
    4598:	01 96       	adiw	r24, 0x01	; 1
    459a:	e6 cf       	rjmp	.-52     	; 0x4568 <__vector_4+0xb6>
			sleep_anemo();	//ZT~
			blinkLED(3);	//LED_
			return;
		}
	}
	else resetTime = 0; //Reset{^0
    459c:	10 92 29 62 	sts	0x6229, r1	; 0x806229 <_ZL9resetTime>
    45a0:	10 92 2a 62 	sts	0x622A, r1	; 0x80622a <_ZL9resetTime+0x1>
				
	//MO
	if(logging)
    45a4:	80 91 6e 63 	lds	r24, 0x636E	; 0x80636e <_ZL7logging>
    45a8:	88 23       	and	r24, r24
    45aa:	09 f4       	brne	.+2      	; 0x45ae <__vector_4+0xfc>
    45ac:	7d c4       	rjmp	.+2298   	; 0x4ea8 <__vector_4+0x9f6>
	{		
		//vJnOI
		if(currentTime < startTime) return;
    45ae:	40 91 6f 63 	lds	r20, 0x636F	; 0x80636f <_ZL11currentTime>
    45b2:	50 91 70 63 	lds	r21, 0x6370	; 0x806370 <_ZL11currentTime+0x1>
    45b6:	60 91 71 63 	lds	r22, 0x6371	; 0x806371 <_ZL11currentTime+0x2>
    45ba:	70 91 72 63 	lds	r23, 0x6372	; 0x806372 <_ZL11currentTime+0x3>
    45be:	80 91 09 60 	lds	r24, 0x6009	; 0x806009 <_ZL9startTime>
    45c2:	90 91 0a 60 	lds	r25, 0x600A	; 0x80600a <_ZL9startTime+0x1>
    45c6:	a0 91 0b 60 	lds	r26, 0x600B	; 0x80600b <_ZL9startTime+0x2>
    45ca:	b0 91 0c 60 	lds	r27, 0x600C	; 0x80600c <_ZL9startTime+0x3>
    45ce:	48 17       	cp	r20, r24
    45d0:	59 07       	cpc	r21, r25
    45d2:	6a 07       	cpc	r22, r26
    45d4:	7b 07       	cpc	r23, r27
    45d6:	08 f4       	brcc	.+2      	; 0x45da <__vector_4+0x128>
    45d8:	ae c4       	rjmp	.+2396   	; 0x4f36 <__vector_4+0xa84>
		
		//vWAKEUP_TIME[sec]OMvHX[vMJn
		if(my_eeprom::measure_vel && my_eeprom::interval_vel - pass_vel < V_WAKEUP_TIME) wakeup_anemo();
    45da:	80 91 1c 60 	lds	r24, 0x601C	; 0x80601c <_ZN9my_eeprom11measure_velE>
    45de:	88 23       	and	r24, r24
    45e0:	79 f0       	breq	.+30     	; 0x4600 <__vector_4+0x14e>
    45e2:	20 91 15 60 	lds	r18, 0x6015	; 0x806015 <_ZN9my_eeprom12interval_velE>
    45e6:	30 91 16 60 	lds	r19, 0x6016	; 0x806016 <_ZN9my_eeprom12interval_velE+0x1>
    45ea:	40 91 37 62 	lds	r20, 0x6237	; 0x806237 <_ZL8pass_vel>
    45ee:	50 91 38 62 	lds	r21, 0x6238	; 0x806238 <_ZL8pass_vel+0x1>
    45f2:	24 1b       	sub	r18, r20
    45f4:	35 0b       	sbc	r19, r21
    45f6:	24 31       	cpi	r18, 0x14	; 20
    45f8:	31 05       	cpc	r19, r1
    45fa:	18 f0       	brcs	.+6      	; 0x4602 <__vector_4+0x150>
    45fc:	80 e0       	ldi	r24, 0x00	; 0
    45fe:	01 c0       	rjmp	.+2      	; 0x4602 <__vector_4+0x150>
    4600:	80 e0       	ldi	r24, 0x00	; 0
    4602:	88 23       	and	r24, r24
    4604:	31 f0       	breq	.+12     	; 0x4612 <__vector_4+0x160>

//inline************************************

inline static void wakeup_anemo(void)
{
	PORTA.OUTSET = PIN5_bm; //[d
    4606:	e0 e0       	ldi	r30, 0x00	; 0
    4608:	f4 e0       	ldi	r31, 0x04	; 4
    460a:	80 e2       	ldi	r24, 0x20	; 32
    460c:	85 83       	std	Z+5, r24	; 0x05
	PORTA.OUTSET = PIN4_bm; //5VJn
    460e:	80 e1       	ldi	r24, 0x10	; 16
    4610:	85 83       	std	Z+5, r24	; 0x05
		
		//vWAKEUP_TIME[sec]OMvHX[vMJn
		if(my_eeprom::measure_vel && my_eeprom::interval_vel - pass_vel < V_WAKEUP_TIME) wakeup_anemo();
		
		bool hasNewData = false;
		char tmpS[7] = "n/a"; //-10.00 ~ 50.00//6+\r
    4612:	2e e6       	ldi	r18, 0x6E	; 110
    4614:	3f e2       	ldi	r19, 0x2F	; 47
    4616:	60 96       	adiw	r28, 0x10	; 16
    4618:	2e af       	std	Y+62, r18	; 0x3e
    461a:	3f af       	std	Y+63, r19	; 0x3f
    461c:	60 97       	sbiw	r28, 0x10	; 16
    461e:	81 e6       	ldi	r24, 0x61	; 97
    4620:	90 e0       	ldi	r25, 0x00	; 0
    4622:	62 96       	adiw	r28, 0x12	; 18
    4624:	8e af       	std	Y+62, r24	; 0x3e
    4626:	9f af       	std	Y+63, r25	; 0x3f
    4628:	62 97       	sbiw	r28, 0x12	; 18
    462a:	43 e0       	ldi	r20, 0x03	; 3
    462c:	ee e4       	ldi	r30, 0x4E	; 78
    462e:	f0 e0       	ldi	r31, 0x00	; 0
    4630:	ec 0f       	add	r30, r28
    4632:	fd 1f       	adc	r31, r29
    4634:	34 96       	adiw	r30, 0x04	; 4
    4636:	df 01       	movw	r26, r30
    4638:	54 2f       	mov	r21, r20
    463a:	1d 92       	st	X+, r1
    463c:	5a 95       	dec	r21
    463e:	e9 f7       	brne	.-6      	; 0x463a <__vector_4+0x188>
		char hmdS[7] = "n/a"; //0.00 ~ 100.00//6+\r
    4640:	29 96       	adiw	r28, 0x09	; 9
    4642:	2e af       	std	Y+62, r18	; 0x3e
    4644:	3f af       	std	Y+63, r19	; 0x3f
    4646:	29 97       	sbiw	r28, 0x09	; 9
    4648:	2b 96       	adiw	r28, 0x0b	; 11
    464a:	8e af       	std	Y+62, r24	; 0x3e
    464c:	9f af       	std	Y+63, r25	; 0x3f
    464e:	2b 97       	sbiw	r28, 0x0b	; 11
    4650:	e7 e4       	ldi	r30, 0x47	; 71
    4652:	f0 e0       	ldi	r31, 0x00	; 0
    4654:	ec 0f       	add	r30, r28
    4656:	fd 1f       	adc	r31, r29
    4658:	34 96       	adiw	r30, 0x04	; 4
    465a:	df 01       	movw	r26, r30
    465c:	54 2f       	mov	r21, r20
    465e:	1d 92       	st	X+, r1
    4660:	5a 95       	dec	r21
    4662:	e9 f7       	brne	.-6      	; 0x465e <__vector_4+0x1ac>
		char glbTS[7] = "n/a"; //-10.00 ~ 50.00//6+\r
    4664:	22 96       	adiw	r28, 0x02	; 2
    4666:	2e af       	std	Y+62, r18	; 0x3e
    4668:	3f af       	std	Y+63, r19	; 0x3f
    466a:	22 97       	sbiw	r28, 0x02	; 2
    466c:	24 96       	adiw	r28, 0x04	; 4
    466e:	8e af       	std	Y+62, r24	; 0x3e
    4670:	9f af       	std	Y+63, r25	; 0x3f
    4672:	24 97       	sbiw	r28, 0x04	; 4
    4674:	fe 01       	movw	r30, r28
    4676:	ec 5b       	subi	r30, 0xBC	; 188
    4678:	ff 4f       	sbci	r31, 0xFF	; 255
    467a:	df 01       	movw	r26, r30
    467c:	54 2f       	mov	r21, r20
    467e:	1d 92       	st	X+, r1
    4680:	5a 95       	dec	r21
    4682:	e9 f7       	brne	.-6      	; 0x467e <__vector_4+0x1cc>
		char glbVS[7] = "n/a";
    4684:	29 af       	std	Y+57, r18	; 0x39
    4686:	3a af       	std	Y+58, r19	; 0x3a
    4688:	8b af       	std	Y+59, r24	; 0x3b
    468a:	9c af       	std	Y+60, r25	; 0x3c
    468c:	37 97       	sbiw	r30, 0x07	; 7
    468e:	df 01       	movw	r26, r30
    4690:	54 2f       	mov	r21, r20
    4692:	1d 92       	st	X+, r1
    4694:	5a 95       	dec	r21
    4696:	e9 f7       	brne	.-6      	; 0x4692 <__vector_4+0x1e0>
		char velS[7] = "n/a"; //0.0000 ~ 1.5000//6+\r
    4698:	2a ab       	std	Y+50, r18	; 0x32
    469a:	3b ab       	std	Y+51, r19	; 0x33
    469c:	8c ab       	std	Y+52, r24	; 0x34
    469e:	9d ab       	std	Y+53, r25	; 0x35
    46a0:	37 97       	sbiw	r30, 0x07	; 7
    46a2:	df 01       	movw	r26, r30
    46a4:	54 2f       	mov	r21, r20
    46a6:	1d 92       	st	X+, r1
    46a8:	5a 95       	dec	r21
    46aa:	e9 f7       	brne	.-6      	; 0x46a6 <__vector_4+0x1f4>
		char velVS[7] = "n/a";
    46ac:	2b a7       	std	Y+43, r18	; 0x2b
    46ae:	3c a7       	std	Y+44, r19	; 0x2c
    46b0:	8d a7       	std	Y+45, r24	; 0x2d
    46b2:	9e a7       	std	Y+46, r25	; 0x2e
    46b4:	37 97       	sbiw	r30, 0x07	; 7
    46b6:	df 01       	movw	r26, r30
    46b8:	54 2f       	mov	r21, r20
    46ba:	1d 92       	st	X+, r1
    46bc:	5a 95       	dec	r21
    46be:	e9 f7       	brne	.-6      	; 0x46ba <__vector_4+0x208>
		char illS[9] = "n/a"; //0.01~83865.60
    46c0:	2d 87       	std	Y+13, r18	; 0x0d
    46c2:	3e 87       	std	Y+14, r19	; 0x0e
    46c4:	8f 87       	std	Y+15, r24	; 0x0f
    46c6:	98 8b       	std	Y+16, r25	; 0x10
    46c8:	7e 97       	sbiw	r30, 0x1e	; 30
    46ca:	55 e0       	ldi	r21, 0x05	; 5
    46cc:	df 01       	movw	r26, r30
    46ce:	1d 92       	st	X+, r1
    46d0:	5a 95       	dec	r21
    46d2:	e9 f7       	brne	.-6      	; 0x46ce <__vector_4+0x21c>
		char adV1S[7] = "n/a";
    46d4:	2c a3       	std	Y+36, r18	; 0x24
    46d6:	3d a3       	std	Y+37, r19	; 0x25
    46d8:	8e a3       	std	Y+38, r24	; 0x26
    46da:	9f a3       	std	Y+39, r25	; 0x27
    46dc:	77 96       	adiw	r30, 0x17	; 23
    46de:	df 01       	movw	r26, r30
    46e0:	54 2f       	mov	r21, r20
    46e2:	1d 92       	st	X+, r1
    46e4:	5a 95       	dec	r21
    46e6:	e9 f7       	brne	.-6      	; 0x46e2 <__vector_4+0x230>
		char adV2S[7] = "n/a";
    46e8:	2d 8f       	std	Y+29, r18	; 0x1d
    46ea:	3e 8f       	std	Y+30, r19	; 0x1e
    46ec:	8f 8f       	std	Y+31, r24	; 0x1f
    46ee:	98 a3       	std	Y+32, r25	; 0x20
    46f0:	37 97       	sbiw	r30, 0x07	; 7
    46f2:	df 01       	movw	r26, r30
    46f4:	54 2f       	mov	r21, r20
    46f6:	1d 92       	st	X+, r1
    46f8:	5a 95       	dec	r21
    46fa:	e9 f7       	brne	.-6      	; 0x46f6 <__vector_4+0x244>
		char adV3S[7] = "n/a";
    46fc:	2e 8b       	std	Y+22, r18	; 0x16
    46fe:	3f 8b       	std	Y+23, r19	; 0x17
    4700:	88 8f       	std	Y+24, r24	; 0x18
    4702:	99 8f       	std	Y+25, r25	; 0x19
    4704:	37 97       	sbiw	r30, 0x07	; 7
    4706:	df 01       	movw	r26, r30
    4708:	1d 92       	st	X+, r1
    470a:	4a 95       	dec	r20
    470c:	e9 f7       	brne	.-6      	; 0x4708 <__vector_4+0x256>
		
		//************
		pass_vel++;
    470e:	80 91 37 62 	lds	r24, 0x6237	; 0x806237 <_ZL8pass_vel>
    4712:	90 91 38 62 	lds	r25, 0x6238	; 0x806238 <_ZL8pass_vel+0x1>
    4716:	01 96       	adiw	r24, 0x01	; 1
    4718:	80 93 37 62 	sts	0x6237, r24	; 0x806237 <_ZL8pass_vel>
    471c:	90 93 38 62 	sts	0x6238, r25	; 0x806238 <_ZL8pass_vel+0x1>
		if(my_eeprom::measure_vel && my_eeprom::interval_vel <= pass_vel)
    4720:	80 91 1c 60 	lds	r24, 0x601C	; 0x80601c <_ZN9my_eeprom11measure_velE>
    4724:	88 23       	and	r24, r24
    4726:	69 f0       	breq	.+26     	; 0x4742 <__vector_4+0x290>
    4728:	40 91 15 60 	lds	r20, 0x6015	; 0x806015 <_ZN9my_eeprom12interval_velE>
    472c:	50 91 16 60 	lds	r21, 0x6016	; 0x806016 <_ZN9my_eeprom12interval_velE+0x1>
    4730:	20 91 37 62 	lds	r18, 0x6237	; 0x806237 <_ZL8pass_vel>
    4734:	30 91 38 62 	lds	r19, 0x6238	; 0x806238 <_ZL8pass_vel+0x1>
    4738:	24 17       	cp	r18, r20
    473a:	35 07       	cpc	r19, r21
    473c:	18 f4       	brcc	.+6      	; 0x4744 <__vector_4+0x292>
    473e:	80 e0       	ldi	r24, 0x00	; 0
    4740:	01 c0       	rjmp	.+2      	; 0x4744 <__vector_4+0x292>
    4742:	80 e0       	ldi	r24, 0x00	; 0
    4744:	88 23       	and	r24, r24
    4746:	09 f4       	brne	.+2      	; 0x474a <__vector_4+0x298>
    4748:	6b c0       	rjmp	.+214    	; 0x4820 <__vector_4+0x36e>
		{
			double velV = readVelVoltage(); //AD
    474a:	0e 94 d5 1c 	call	0x39aa	; 0x39aa <_ZL14readVelVoltagev>
    474e:	6b 01       	movw	r12, r22
    4750:	7c 01       	movw	r14, r24
			dtostrf(velV,6,4,velVS);
    4752:	8e 01       	movw	r16, r28
    4754:	05 5d       	subi	r16, 0xD5	; 213
    4756:	1f 4f       	sbci	r17, 0xFF	; 255
    4758:	24 e0       	ldi	r18, 0x04	; 4
    475a:	46 e0       	ldi	r20, 0x06	; 6
    475c:	0e 94 78 37 	call	0x6ef0	; 0x6ef0 <dtostrf>
			
			float bff = max(0, velV / my_eeprom::Cf_vel0 - 1.0);
    4760:	20 91 1f 60 	lds	r18, 0x601F	; 0x80601f <_ZN9my_eeprom7Cf_vel0E>
    4764:	30 91 20 60 	lds	r19, 0x6020	; 0x806020 <_ZN9my_eeprom7Cf_vel0E+0x1>
    4768:	40 91 21 60 	lds	r20, 0x6021	; 0x806021 <_ZN9my_eeprom7Cf_vel0E+0x2>
    476c:	50 91 22 60 	lds	r21, 0x6022	; 0x806022 <_ZN9my_eeprom7Cf_vel0E+0x3>
    4770:	c7 01       	movw	r24, r14
    4772:	b6 01       	movw	r22, r12
    4774:	0e 94 6b 34 	call	0x68d6	; 0x68d6 <__divsf3>
    4778:	20 e0       	ldi	r18, 0x00	; 0
    477a:	30 e0       	ldi	r19, 0x00	; 0
    477c:	40 e8       	ldi	r20, 0x80	; 128
    477e:	5f e3       	ldi	r21, 0x3F	; 63
    4780:	0e 94 f9 33 	call	0x67f2	; 0x67f2 <__subsf3>
    4784:	e6 2e       	mov	r14, r22
    4786:	f7 2e       	mov	r15, r23
    4788:	08 2f       	mov	r16, r24
    478a:	19 2f       	mov	r17, r25
	}
}

inline static float max(float x, float y)
{
	return (x > y) ? x : y;
    478c:	20 e0       	ldi	r18, 0x00	; 0
    478e:	30 e0       	ldi	r19, 0x00	; 0
    4790:	a9 01       	movw	r20, r18
    4792:	0e 94 66 34 	call	0x68cc	; 0x68cc <__cmpsf2>
    4796:	88 23       	and	r24, r24
    4798:	24 f4       	brge	.+8      	; 0x47a2 <__vector_4+0x2f0>
    479a:	e1 2c       	mov	r14, r1
    479c:	f1 2c       	mov	r15, r1
    479e:	00 e0       	ldi	r16, 0x00	; 0
    47a0:	10 e0       	ldi	r17, 0x00	; 0
		{
			double velV = readVelVoltage(); //AD
			dtostrf(velV,6,4,velVS);
			
			float bff = max(0, velV / my_eeprom::Cf_vel0 - 1.0);
			float vel = bff * (2.3595 + bff * (-12.029 + bff * 79.744)); //d-Z
    47a2:	2e ee       	ldi	r18, 0xEE	; 238
    47a4:	3c e7       	ldi	r19, 0x7C	; 124
    47a6:	4f e9       	ldi	r20, 0x9F	; 159
    47a8:	52 e4       	ldi	r21, 0x42	; 66
    47aa:	6e 2d       	mov	r22, r14
    47ac:	7f 2d       	mov	r23, r15
    47ae:	80 2f       	mov	r24, r16
    47b0:	91 2f       	mov	r25, r17
    47b2:	0e 94 bb 36 	call	0x6d76	; 0x6d76 <__mulsf3>
    47b6:	29 ec       	ldi	r18, 0xC9	; 201
    47b8:	36 e7       	ldi	r19, 0x76	; 118
    47ba:	40 e4       	ldi	r20, 0x40	; 64
    47bc:	51 e4       	ldi	r21, 0x41	; 65
    47be:	0e 94 f9 33 	call	0x67f2	; 0x67f2 <__subsf3>
    47c2:	9b 01       	movw	r18, r22
    47c4:	ac 01       	movw	r20, r24
    47c6:	6e 2d       	mov	r22, r14
    47c8:	7f 2d       	mov	r23, r15
    47ca:	80 2f       	mov	r24, r16
    47cc:	91 2f       	mov	r25, r17
    47ce:	0e 94 bb 36 	call	0x6d76	; 0x6d76 <__mulsf3>
    47d2:	2c e0       	ldi	r18, 0x0C	; 12
    47d4:	32 e0       	ldi	r19, 0x02	; 2
    47d6:	47 e1       	ldi	r20, 0x17	; 23
    47d8:	50 e4       	ldi	r21, 0x40	; 64
    47da:	0e 94 fa 33 	call	0x67f4	; 0x67f4 <__addsf3>
    47de:	9b 01       	movw	r18, r22
    47e0:	ac 01       	movw	r20, r24
    47e2:	6e 2d       	mov	r22, r14
    47e4:	7f 2d       	mov	r23, r15
    47e6:	80 2f       	mov	r24, r16
    47e8:	91 2f       	mov	r25, r17
    47ea:	0e 94 bb 36 	call	0x6d76	; 0x6d76 <__mulsf3>
			dtostrf(vel,6,4,velS);
    47ee:	8e 01       	movw	r16, r28
    47f0:	0e 5c       	subi	r16, 0xCE	; 206
    47f2:	1f 4f       	sbci	r17, 0xFF	; 255
    47f4:	24 e0       	ldi	r18, 0x04	; 4
    47f6:	46 e0       	ldi	r20, 0x06	; 6
    47f8:	0e 94 78 37 	call	0x6ef0	; 0x6ef0 <dtostrf>
			
			pass_vel = 0;
    47fc:	10 92 37 62 	sts	0x6237, r1	; 0x806237 <_ZL8pass_vel>
    4800:	10 92 38 62 	sts	0x6238, r1	; 0x806238 <_ZL8pass_vel+0x1>
			hasNewData = true;
			//NNKvvHX[v
			if(V_WAKEUP_TIME <= my_eeprom::interval_vel) sleep_anemo();
    4804:	80 91 15 60 	lds	r24, 0x6015	; 0x806015 <_ZN9my_eeprom12interval_velE>
    4808:	90 91 16 60 	lds	r25, 0x6016	; 0x806016 <_ZN9my_eeprom12interval_velE+0x1>
    480c:	44 97       	sbiw	r24, 0x14	; 20
    480e:	50 f0       	brcs	.+20     	; 0x4824 <__vector_4+0x372>
	return 2.0 * (float)ADC0.RES / 65536; //1024*64 (10bit,64)
}

static void sleep_anemo(void)
{
	PORTA.OUTCLR = PIN5_bm; //[f
    4810:	e0 e0       	ldi	r30, 0x00	; 0
    4812:	f4 e0       	ldi	r31, 0x04	; 4
    4814:	80 e2       	ldi	r24, 0x20	; 32
    4816:	86 83       	std	Z+6, r24	; 0x06
	PORTA.OUTCLR = PIN4_bm; //5V~
    4818:	80 e1       	ldi	r24, 0x10	; 16
    481a:	86 83       	std	Z+6, r24	; 0x06
			float bff = max(0, velV / my_eeprom::Cf_vel0 - 1.0);
			float vel = bff * (2.3595 + bff * (-12.029 + bff * 79.744)); //d-Z
			dtostrf(vel,6,4,velS);
			
			pass_vel = 0;
			hasNewData = true;
    481c:	21 e0       	ldi	r18, 0x01	; 1
    481e:	03 c0       	rjmp	.+6      	; 0x4826 <__vector_4+0x374>
		if(currentTime < startTime) return;
		
		//vWAKEUP_TIME[sec]OMvHX[vMJn
		if(my_eeprom::measure_vel && my_eeprom::interval_vel - pass_vel < V_WAKEUP_TIME) wakeup_anemo();
		
		bool hasNewData = false;
    4820:	20 e0       	ldi	r18, 0x00	; 0
    4822:	01 c0       	rjmp	.+2      	; 0x4826 <__vector_4+0x374>
			float bff = max(0, velV / my_eeprom::Cf_vel0 - 1.0);
			float vel = bff * (2.3595 + bff * (-12.029 + bff * 79.744)); //d-Z
			dtostrf(vel,6,4,velS);
			
			pass_vel = 0;
			hasNewData = true;
    4824:	21 e0       	ldi	r18, 0x01	; 1
			//NNKvvHX[v
			if(V_WAKEUP_TIME <= my_eeprom::interval_vel) sleep_anemo();
		}
		
		//x************
		pass_th++;
    4826:	80 91 3b 62 	lds	r24, 0x623B	; 0x80623b <_ZL7pass_th>
    482a:	90 91 3c 62 	lds	r25, 0x623C	; 0x80623c <_ZL7pass_th+0x1>
    482e:	01 96       	adiw	r24, 0x01	; 1
    4830:	80 93 3b 62 	sts	0x623B, r24	; 0x80623b <_ZL7pass_th>
    4834:	90 93 3c 62 	sts	0x623C, r25	; 0x80623c <_ZL7pass_th+0x1>
		if(my_eeprom::measure_th && my_eeprom::interval_th <= pass_th)
    4838:	80 91 1e 60 	lds	r24, 0x601E	; 0x80601e <_ZN9my_eeprom10measure_thE>
    483c:	88 23       	and	r24, r24
    483e:	69 f0       	breq	.+26     	; 0x485a <__vector_4+0x3a8>
    4840:	60 91 19 60 	lds	r22, 0x6019	; 0x806019 <_ZN9my_eeprom11interval_thE>
    4844:	70 91 1a 60 	lds	r23, 0x601A	; 0x80601a <_ZN9my_eeprom11interval_thE+0x1>
    4848:	40 91 3b 62 	lds	r20, 0x623B	; 0x80623b <_ZL7pass_th>
    484c:	50 91 3c 62 	lds	r21, 0x623C	; 0x80623c <_ZL7pass_th+0x1>
    4850:	46 17       	cp	r20, r22
    4852:	57 07       	cpc	r21, r23
    4854:	18 f4       	brcc	.+6      	; 0x485c <__vector_4+0x3aa>
    4856:	80 e0       	ldi	r24, 0x00	; 0
    4858:	01 c0       	rjmp	.+2      	; 0x485c <__vector_4+0x3aa>
    485a:	80 e0       	ldi	r24, 0x00	; 0
    485c:	88 23       	and	r24, r24
    485e:	09 f4       	brne	.+2      	; 0x4862 <__vector_4+0x3b0>
    4860:	ab c0       	rjmp	.+342    	; 0x49b8 <__vector_4+0x506>
		{
			float tmp_f = 0;
    4862:	69 96       	adiw	r28, 0x19	; 25
    4864:	1c ae       	std	Y+60, r1	; 0x3c
    4866:	1d ae       	std	Y+61, r1	; 0x3d
    4868:	1e ae       	std	Y+62, r1	; 0x3e
    486a:	1f ae       	std	Y+63, r1	; 0x3f
    486c:	69 97       	sbiw	r28, 0x19	; 25
			float hmd_f = 0;
    486e:	19 82       	std	Y+1, r1	; 0x01
    4870:	1a 82       	std	Y+2, r1	; 0x02
    4872:	1b 82       	std	Y+3, r1	; 0x03
    4874:	1c 82       	std	Y+4, r1	; 0x04
			if((IS_AM2320 && my_i2c::ReadAM2320(&tmp_f, &hmd_f)) || (!IS_AM2320  &&  my_i2c::ReadAHT20(&tmp_f, &hmd_f)))
    4876:	be 01       	movw	r22, r28
    4878:	6f 5f       	subi	r22, 0xFF	; 255
    487a:	7f 4f       	sbci	r23, 0xFF	; 255
    487c:	ce 01       	movw	r24, r28
    487e:	8b 5a       	subi	r24, 0xAB	; 171
    4880:	9f 4f       	sbci	r25, 0xFF	; 255
    4882:	0e 94 7c 30 	call	0x60f8	; 0x60f8 <_ZN6my_i2c9ReadAHT20EPfS0_>
    4886:	88 23       	and	r24, r24
    4888:	09 f4       	brne	.+2      	; 0x488c <__vector_4+0x3da>
    488a:	91 c0       	rjmp	.+290    	; 0x49ae <__vector_4+0x4fc>
			{
				tmp_f = max(-10,min(50,my_eeprom::Cf_dbtA *(tmp_f) + my_eeprom::Cf_dbtB));
    488c:	60 91 33 60 	lds	r22, 0x6033	; 0x806033 <_ZN9my_eeprom7Cf_dbtAE>
    4890:	70 91 34 60 	lds	r23, 0x6034	; 0x806034 <_ZN9my_eeprom7Cf_dbtAE+0x1>
    4894:	80 91 35 60 	lds	r24, 0x6035	; 0x806035 <_ZN9my_eeprom7Cf_dbtAE+0x2>
    4898:	90 91 36 60 	lds	r25, 0x6036	; 0x806036 <_ZN9my_eeprom7Cf_dbtAE+0x3>
    489c:	69 96       	adiw	r28, 0x19	; 25
    489e:	2c ad       	ldd	r18, Y+60	; 0x3c
    48a0:	3d ad       	ldd	r19, Y+61	; 0x3d
    48a2:	4e ad       	ldd	r20, Y+62	; 0x3e
    48a4:	5f ad       	ldd	r21, Y+63	; 0x3f
    48a6:	69 97       	sbiw	r28, 0x19	; 25
    48a8:	0e 94 bb 36 	call	0x6d76	; 0x6d76 <__mulsf3>
    48ac:	20 91 a5 63 	lds	r18, 0x63A5	; 0x8063a5 <_ZN9my_eeprom7Cf_dbtBE>
    48b0:	30 91 a6 63 	lds	r19, 0x63A6	; 0x8063a6 <_ZN9my_eeprom7Cf_dbtBE+0x1>
    48b4:	40 91 a7 63 	lds	r20, 0x63A7	; 0x8063a7 <_ZN9my_eeprom7Cf_dbtBE+0x2>
    48b8:	50 91 a8 63 	lds	r21, 0x63A8	; 0x8063a8 <_ZN9my_eeprom7Cf_dbtBE+0x3>
    48bc:	0e 94 fa 33 	call	0x67f4	; 0x67f4 <__addsf3>
    48c0:	6b 01       	movw	r12, r22
    48c2:	7c 01       	movw	r14, r24
	return (x > y) ? x : y;
}

inline static float min(float x, float y)
{
	return (x < y) ? x : y;
    48c4:	20 e0       	ldi	r18, 0x00	; 0
    48c6:	30 e0       	ldi	r19, 0x00	; 0
    48c8:	48 e4       	ldi	r20, 0x48	; 72
    48ca:	52 e4       	ldi	r21, 0x42	; 66
    48cc:	0e 94 f0 35 	call	0x6be0	; 0x6be0 <__gesf2>
    48d0:	18 16       	cp	r1, r24
    48d2:	44 f4       	brge	.+16     	; 0x48e4 <__vector_4+0x432>
    48d4:	0f 2e       	mov	r0, r31
    48d6:	c1 2c       	mov	r12, r1
    48d8:	d1 2c       	mov	r13, r1
    48da:	f8 e4       	ldi	r31, 0x48	; 72
    48dc:	ef 2e       	mov	r14, r31
    48de:	f2 e4       	ldi	r31, 0x42	; 66
    48e0:	ff 2e       	mov	r15, r31
    48e2:	f0 2d       	mov	r31, r0
	}
}

inline static float max(float x, float y)
{
	return (x > y) ? x : y;
    48e4:	20 e0       	ldi	r18, 0x00	; 0
    48e6:	30 e0       	ldi	r19, 0x00	; 0
    48e8:	40 e2       	ldi	r20, 0x20	; 32
    48ea:	51 ec       	ldi	r21, 0xC1	; 193
    48ec:	c7 01       	movw	r24, r14
    48ee:	b6 01       	movw	r22, r12
    48f0:	0e 94 66 34 	call	0x68cc	; 0x68cc <__cmpsf2>
    48f4:	88 23       	and	r24, r24
    48f6:	44 f4       	brge	.+16     	; 0x4908 <__vector_4+0x456>
    48f8:	0f 2e       	mov	r0, r31
    48fa:	c1 2c       	mov	r12, r1
    48fc:	d1 2c       	mov	r13, r1
    48fe:	f0 e2       	ldi	r31, 0x20	; 32
    4900:	ef 2e       	mov	r14, r31
    4902:	f1 ec       	ldi	r31, 0xC1	; 193
    4904:	ff 2e       	mov	r15, r31
    4906:	f0 2d       	mov	r31, r0
		{
			float tmp_f = 0;
			float hmd_f = 0;
			if((IS_AM2320 && my_i2c::ReadAM2320(&tmp_f, &hmd_f)) || (!IS_AM2320  &&  my_i2c::ReadAHT20(&tmp_f, &hmd_f)))
			{
				tmp_f = max(-10,min(50,my_eeprom::Cf_dbtA *(tmp_f) + my_eeprom::Cf_dbtB));
    4908:	69 96       	adiw	r28, 0x19	; 25
    490a:	cc ae       	std	Y+60, r12	; 0x3c
    490c:	dd ae       	std	Y+61, r13	; 0x3d
    490e:	ee ae       	std	Y+62, r14	; 0x3e
    4910:	ff ae       	std	Y+63, r15	; 0x3f
    4912:	69 97       	sbiw	r28, 0x19	; 25
				hmd_f = max(0,min(100,my_eeprom::Cf_hmdA *(hmd_f) + my_eeprom::Cf_hmdB));
    4914:	60 91 2f 60 	lds	r22, 0x602F	; 0x80602f <_ZN9my_eeprom7Cf_hmdAE>
    4918:	70 91 30 60 	lds	r23, 0x6030	; 0x806030 <_ZN9my_eeprom7Cf_hmdAE+0x1>
    491c:	80 91 31 60 	lds	r24, 0x6031	; 0x806031 <_ZN9my_eeprom7Cf_hmdAE+0x2>
    4920:	90 91 32 60 	lds	r25, 0x6032	; 0x806032 <_ZN9my_eeprom7Cf_hmdAE+0x3>
    4924:	29 81       	ldd	r18, Y+1	; 0x01
    4926:	3a 81       	ldd	r19, Y+2	; 0x02
    4928:	4b 81       	ldd	r20, Y+3	; 0x03
    492a:	5c 81       	ldd	r21, Y+4	; 0x04
    492c:	0e 94 bb 36 	call	0x6d76	; 0x6d76 <__mulsf3>
    4930:	20 91 a1 63 	lds	r18, 0x63A1	; 0x8063a1 <_ZN9my_eeprom7Cf_hmdBE>
    4934:	30 91 a2 63 	lds	r19, 0x63A2	; 0x8063a2 <_ZN9my_eeprom7Cf_hmdBE+0x1>
    4938:	40 91 a3 63 	lds	r20, 0x63A3	; 0x8063a3 <_ZN9my_eeprom7Cf_hmdBE+0x2>
    493c:	50 91 a4 63 	lds	r21, 0x63A4	; 0x8063a4 <_ZN9my_eeprom7Cf_hmdBE+0x3>
    4940:	0e 94 fa 33 	call	0x67f4	; 0x67f4 <__addsf3>
    4944:	4b 01       	movw	r8, r22
    4946:	5c 01       	movw	r10, r24
	return (x > y) ? x : y;
}

inline static float min(float x, float y)
{
	return (x < y) ? x : y;
    4948:	20 e0       	ldi	r18, 0x00	; 0
    494a:	30 e0       	ldi	r19, 0x00	; 0
    494c:	48 ec       	ldi	r20, 0xC8	; 200
    494e:	52 e4       	ldi	r21, 0x42	; 66
    4950:	0e 94 f0 35 	call	0x6be0	; 0x6be0 <__gesf2>
    4954:	18 16       	cp	r1, r24
    4956:	44 f4       	brge	.+16     	; 0x4968 <__vector_4+0x4b6>
    4958:	0f 2e       	mov	r0, r31
    495a:	81 2c       	mov	r8, r1
    495c:	91 2c       	mov	r9, r1
    495e:	f8 ec       	ldi	r31, 0xC8	; 200
    4960:	af 2e       	mov	r10, r31
    4962:	f2 e4       	ldi	r31, 0x42	; 66
    4964:	bf 2e       	mov	r11, r31
    4966:	f0 2d       	mov	r31, r0
	}
}

inline static float max(float x, float y)
{
	return (x > y) ? x : y;
    4968:	20 e0       	ldi	r18, 0x00	; 0
    496a:	30 e0       	ldi	r19, 0x00	; 0
    496c:	a9 01       	movw	r20, r18
    496e:	c5 01       	movw	r24, r10
    4970:	b4 01       	movw	r22, r8
    4972:	0e 94 66 34 	call	0x68cc	; 0x68cc <__cmpsf2>
    4976:	88 23       	and	r24, r24
    4978:	1c f4       	brge	.+6      	; 0x4980 <__vector_4+0x4ce>
    497a:	81 2c       	mov	r8, r1
    497c:	91 2c       	mov	r9, r1
    497e:	54 01       	movw	r10, r8
			float tmp_f = 0;
			float hmd_f = 0;
			if((IS_AM2320 && my_i2c::ReadAM2320(&tmp_f, &hmd_f)) || (!IS_AM2320  &&  my_i2c::ReadAHT20(&tmp_f, &hmd_f)))
			{
				tmp_f = max(-10,min(50,my_eeprom::Cf_dbtA *(tmp_f) + my_eeprom::Cf_dbtB));
				hmd_f = max(0,min(100,my_eeprom::Cf_hmdA *(hmd_f) + my_eeprom::Cf_hmdB));
    4980:	89 82       	std	Y+1, r8	; 0x01
    4982:	9a 82       	std	Y+2, r9	; 0x02
    4984:	ab 82       	std	Y+3, r10	; 0x03
    4986:	bc 82       	std	Y+4, r11	; 0x04
				dtostrf(tmp_f,6,2,tmpS);
    4988:	8e 01       	movw	r16, r28
    498a:	02 5b       	subi	r16, 0xB2	; 178
    498c:	1f 4f       	sbci	r17, 0xFF	; 255
    498e:	22 e0       	ldi	r18, 0x02	; 2
    4990:	46 e0       	ldi	r20, 0x06	; 6
    4992:	c7 01       	movw	r24, r14
    4994:	b6 01       	movw	r22, r12
    4996:	0e 94 78 37 	call	0x6ef0	; 0x6ef0 <dtostrf>
				dtostrf(hmd_f,6,2,hmdS);
    499a:	69 81       	ldd	r22, Y+1	; 0x01
    499c:	7a 81       	ldd	r23, Y+2	; 0x02
    499e:	8b 81       	ldd	r24, Y+3	; 0x03
    49a0:	9c 81       	ldd	r25, Y+4	; 0x04
    49a2:	07 50       	subi	r16, 0x07	; 7
    49a4:	11 09       	sbc	r17, r1
    49a6:	22 e0       	ldi	r18, 0x02	; 2
    49a8:	46 e0       	ldi	r20, 0x06	; 6
    49aa:	0e 94 78 37 	call	0x6ef0	; 0x6ef0 <dtostrf>
			}
			pass_th = 0;
    49ae:	10 92 3b 62 	sts	0x623B, r1	; 0x80623b <_ZL7pass_th>
    49b2:	10 92 3c 62 	sts	0x623C, r1	; 0x80623c <_ZL7pass_th+0x1>
			hasNewData = true;
    49b6:	21 e0       	ldi	r18, 0x01	; 1
		}
	
		//O[ux************
		pass_glb++;
    49b8:	80 91 39 62 	lds	r24, 0x6239	; 0x806239 <_ZL8pass_glb>
    49bc:	90 91 3a 62 	lds	r25, 0x623A	; 0x80623a <_ZL8pass_glb+0x1>
    49c0:	01 96       	adiw	r24, 0x01	; 1
    49c2:	80 93 39 62 	sts	0x6239, r24	; 0x806239 <_ZL8pass_glb>
    49c6:	90 93 3a 62 	sts	0x623A, r25	; 0x80623a <_ZL8pass_glb+0x1>
		if(my_eeprom::measure_glb && my_eeprom::interval_glb <= pass_glb)
    49ca:	80 91 1d 60 	lds	r24, 0x601D	; 0x80601d <_ZN9my_eeprom11measure_glbE>
    49ce:	88 23       	and	r24, r24
    49d0:	69 f0       	breq	.+26     	; 0x49ec <__vector_4+0x53a>
    49d2:	60 91 17 60 	lds	r22, 0x6017	; 0x806017 <_ZN9my_eeprom12interval_glbE>
    49d6:	70 91 18 60 	lds	r23, 0x6018	; 0x806018 <_ZN9my_eeprom12interval_glbE+0x1>
    49da:	40 91 39 62 	lds	r20, 0x6239	; 0x806239 <_ZL8pass_glb>
    49de:	50 91 3a 62 	lds	r21, 0x623A	; 0x80623a <_ZL8pass_glb+0x1>
    49e2:	46 17       	cp	r20, r22
    49e4:	57 07       	cpc	r21, r23
    49e6:	18 f4       	brcc	.+6      	; 0x49ee <__vector_4+0x53c>
    49e8:	80 e0       	ldi	r24, 0x00	; 0
    49ea:	01 c0       	rjmp	.+2      	; 0x49ee <__vector_4+0x53c>
    49ec:	80 e0       	ldi	r24, 0x00	; 0
    49ee:	88 23       	and	r24, r24
    49f0:	09 f4       	brne	.+2      	; 0x49f4 <__vector_4+0x542>
    49f2:	5f c0       	rjmp	.+190    	; 0x4ab2 <__vector_4+0x600>
		{
			float glbV = readGlbVoltage(); //AD
    49f4:	0e 94 b2 1c 	call	0x3964	; 0x3964 <_ZL14readGlbVoltagev>
    49f8:	6b 01       	movw	r12, r22
    49fa:	7c 01       	movw	r14, r24
			dtostrf(glbV,6,4,glbVS);
    49fc:	8e 01       	movw	r16, r28
    49fe:	07 5c       	subi	r16, 0xC7	; 199
    4a00:	1f 4f       	sbci	r17, 0xFF	; 255
    4a02:	24 e0       	ldi	r18, 0x04	; 4
    4a04:	46 e0       	ldi	r20, 0x06	; 6
    4a06:	0e 94 78 37 	call	0x6ef0	; 0x6ef0 <dtostrf>
			
			float glbT = (glbV - (IS_MCP9700 ? 0.5 : 0.4)) / (IS_MCP9700 ? 0.0100 : 0.0195);
    4a0a:	2d ec       	ldi	r18, 0xCD	; 205
    4a0c:	3c ec       	ldi	r19, 0xCC	; 204
    4a0e:	4c ec       	ldi	r20, 0xCC	; 204
    4a10:	5e e3       	ldi	r21, 0x3E	; 62
    4a12:	c7 01       	movw	r24, r14
    4a14:	b6 01       	movw	r22, r12
    4a16:	0e 94 f9 33 	call	0x67f2	; 0x67f2 <__subsf3>
    4a1a:	27 e7       	ldi	r18, 0x77	; 119
    4a1c:	3e eb       	ldi	r19, 0xBE	; 190
    4a1e:	4f e9       	ldi	r20, 0x9F	; 159
    4a20:	5c e3       	ldi	r21, 0x3C	; 60
    4a22:	0e 94 6b 34 	call	0x68d6	; 0x68d6 <__divsf3>
			glbT = max(-10,min(50,my_eeprom::Cf_glbA * glbT + my_eeprom::Cf_glbB));
    4a26:	20 91 2b 60 	lds	r18, 0x602B	; 0x80602b <_ZN9my_eeprom7Cf_glbAE>
    4a2a:	30 91 2c 60 	lds	r19, 0x602C	; 0x80602c <_ZN9my_eeprom7Cf_glbAE+0x1>
    4a2e:	40 91 2d 60 	lds	r20, 0x602D	; 0x80602d <_ZN9my_eeprom7Cf_glbAE+0x2>
    4a32:	50 91 2e 60 	lds	r21, 0x602E	; 0x80602e <_ZN9my_eeprom7Cf_glbAE+0x3>
    4a36:	0e 94 bb 36 	call	0x6d76	; 0x6d76 <__mulsf3>
    4a3a:	20 91 9d 63 	lds	r18, 0x639D	; 0x80639d <_ZN9my_eeprom7Cf_glbBE>
    4a3e:	30 91 9e 63 	lds	r19, 0x639E	; 0x80639e <_ZN9my_eeprom7Cf_glbBE+0x1>
    4a42:	40 91 9f 63 	lds	r20, 0x639F	; 0x80639f <_ZN9my_eeprom7Cf_glbBE+0x2>
    4a46:	50 91 a0 63 	lds	r21, 0x63A0	; 0x8063a0 <_ZN9my_eeprom7Cf_glbBE+0x3>
    4a4a:	0e 94 fa 33 	call	0x67f4	; 0x67f4 <__addsf3>
    4a4e:	6b 01       	movw	r12, r22
    4a50:	7c 01       	movw	r14, r24
	return (x > y) ? x : y;
}

inline static float min(float x, float y)
{
	return (x < y) ? x : y;
    4a52:	20 e0       	ldi	r18, 0x00	; 0
    4a54:	30 e0       	ldi	r19, 0x00	; 0
    4a56:	48 e4       	ldi	r20, 0x48	; 72
    4a58:	52 e4       	ldi	r21, 0x42	; 66
    4a5a:	0e 94 f0 35 	call	0x6be0	; 0x6be0 <__gesf2>
    4a5e:	18 16       	cp	r1, r24
    4a60:	44 f4       	brge	.+16     	; 0x4a72 <__vector_4+0x5c0>
    4a62:	0f 2e       	mov	r0, r31
    4a64:	c1 2c       	mov	r12, r1
    4a66:	d1 2c       	mov	r13, r1
    4a68:	f8 e4       	ldi	r31, 0x48	; 72
    4a6a:	ef 2e       	mov	r14, r31
    4a6c:	f2 e4       	ldi	r31, 0x42	; 66
    4a6e:	ff 2e       	mov	r15, r31
    4a70:	f0 2d       	mov	r31, r0
	}
}

inline static float max(float x, float y)
{
	return (x > y) ? x : y;
    4a72:	20 e0       	ldi	r18, 0x00	; 0
    4a74:	30 e0       	ldi	r19, 0x00	; 0
    4a76:	40 e2       	ldi	r20, 0x20	; 32
    4a78:	51 ec       	ldi	r21, 0xC1	; 193
    4a7a:	c7 01       	movw	r24, r14
    4a7c:	b6 01       	movw	r22, r12
    4a7e:	0e 94 66 34 	call	0x68cc	; 0x68cc <__cmpsf2>
    4a82:	88 23       	and	r24, r24
    4a84:	44 f4       	brge	.+16     	; 0x4a96 <__vector_4+0x5e4>
    4a86:	0f 2e       	mov	r0, r31
    4a88:	c1 2c       	mov	r12, r1
    4a8a:	d1 2c       	mov	r13, r1
    4a8c:	f0 e2       	ldi	r31, 0x20	; 32
    4a8e:	ef 2e       	mov	r14, r31
    4a90:	f1 ec       	ldi	r31, 0xC1	; 193
    4a92:	ff 2e       	mov	r15, r31
    4a94:	f0 2d       	mov	r31, r0
			float glbV = readGlbVoltage(); //AD
			dtostrf(glbV,6,4,glbVS);
			
			float glbT = (glbV - (IS_MCP9700 ? 0.5 : 0.4)) / (IS_MCP9700 ? 0.0100 : 0.0195);
			glbT = max(-10,min(50,my_eeprom::Cf_glbA * glbT + my_eeprom::Cf_glbB));
			dtostrf(glbT,6,2,glbTS);
    4a96:	8e 01       	movw	r16, r28
    4a98:	00 5c       	subi	r16, 0xC0	; 192
    4a9a:	1f 4f       	sbci	r17, 0xFF	; 255
    4a9c:	22 e0       	ldi	r18, 0x02	; 2
    4a9e:	46 e0       	ldi	r20, 0x06	; 6
    4aa0:	c7 01       	movw	r24, r14
    4aa2:	b6 01       	movw	r22, r12
    4aa4:	0e 94 78 37 	call	0x6ef0	; 0x6ef0 <dtostrf>
			
			pass_glb = 0;
    4aa8:	10 92 39 62 	sts	0x6239, r1	; 0x806239 <_ZL8pass_glb>
    4aac:	10 92 3a 62 	sts	0x623A, r1	; 0x80623a <_ZL8pass_glb+0x1>
			hasNewData = true;			
    4ab0:	21 e0       	ldi	r18, 0x01	; 1
		}
		
		//xZT**************
		pass_ill++;
    4ab2:	80 91 35 62 	lds	r24, 0x6235	; 0x806235 <_ZL8pass_ill>
    4ab6:	90 91 36 62 	lds	r25, 0x6236	; 0x806236 <_ZL8pass_ill+0x1>
    4aba:	01 96       	adiw	r24, 0x01	; 1
    4abc:	80 93 35 62 	sts	0x6235, r24	; 0x806235 <_ZL8pass_ill>
    4ac0:	90 93 36 62 	sts	0x6236, r25	; 0x806236 <_ZL8pass_ill+0x1>
		if(my_eeprom::measure_ill && my_eeprom::interval_ill <= pass_ill)
    4ac4:	80 91 1b 60 	lds	r24, 0x601B	; 0x80601b <_ZN9my_eeprom11measure_illE>
    4ac8:	88 23       	and	r24, r24
    4aca:	69 f0       	breq	.+26     	; 0x4ae6 <__vector_4+0x634>
    4acc:	60 91 13 60 	lds	r22, 0x6013	; 0x806013 <_ZN9my_eeprom12interval_illE>
    4ad0:	70 91 14 60 	lds	r23, 0x6014	; 0x806014 <_ZN9my_eeprom12interval_illE+0x1>
    4ad4:	40 91 35 62 	lds	r20, 0x6235	; 0x806235 <_ZL8pass_ill>
    4ad8:	50 91 36 62 	lds	r21, 0x6236	; 0x806236 <_ZL8pass_ill+0x1>
    4adc:	46 17       	cp	r20, r22
    4ade:	57 07       	cpc	r21, r23
    4ae0:	18 f4       	brcc	.+6      	; 0x4ae8 <__vector_4+0x636>
    4ae2:	80 e0       	ldi	r24, 0x00	; 0
    4ae4:	01 c0       	rjmp	.+2      	; 0x4ae8 <__vector_4+0x636>
    4ae6:	80 e0       	ldi	r24, 0x00	; 0
    4ae8:	88 23       	and	r24, r24
    4aea:	09 f4       	brne	.+2      	; 0x4aee <__vector_4+0x63c>
    4aec:	52 c0       	rjmp	.+164    	; 0x4b92 <__vector_4+0x6e0>
		{
			
			if(my_eeprom::measure_Prox) 
    4aee:	80 91 91 63 	lds	r24, 0x6391	; 0x806391 <_ZN9my_eeprom12measure_ProxE>
    4af2:	88 23       	and	r24, r24
    4af4:	51 f0       	breq	.+20     	; 0x4b0a <__vector_4+0x658>
			{
				float ill_d = my_i2c::ReadVCNL4030_PS();
    4af6:	0e 94 79 32 	call	0x64f2	; 0x64f2 <_ZN6my_i2c15ReadVCNL4030_PSEv>
				dtostrf(ill_d,8,2,illS);
    4afa:	8e 01       	movw	r16, r28
    4afc:	03 5f       	subi	r16, 0xF3	; 243
    4afe:	1f 4f       	sbci	r17, 0xFF	; 255
    4b00:	22 e0       	ldi	r18, 0x02	; 2
    4b02:	48 e0       	ldi	r20, 0x08	; 8
    4b04:	0e 94 78 37 	call	0x6ef0	; 0x6ef0 <dtostrf>
    4b08:	3f c0       	rjmp	.+126    	; 0x4b88 <__vector_4+0x6d6>
			}
			else
			{
				float ill_d = my_i2c::ReadVCNL4030_ALS();
    4b0a:	0e 94 1f 32 	call	0x643e	; 0x643e <_ZN6my_i2c16ReadVCNL4030_ALSEv>
				ill_d = max(0,min(99999.99,my_eeprom::Cf_luxA * ill_d + my_eeprom::Cf_luxB));
    4b0e:	20 91 27 60 	lds	r18, 0x6027	; 0x806027 <_ZN9my_eeprom7Cf_luxAE>
    4b12:	30 91 28 60 	lds	r19, 0x6028	; 0x806028 <_ZN9my_eeprom7Cf_luxAE+0x1>
    4b16:	40 91 29 60 	lds	r20, 0x6029	; 0x806029 <_ZN9my_eeprom7Cf_luxAE+0x2>
    4b1a:	50 91 2a 60 	lds	r21, 0x602A	; 0x80602a <_ZN9my_eeprom7Cf_luxAE+0x3>
    4b1e:	0e 94 bb 36 	call	0x6d76	; 0x6d76 <__mulsf3>
    4b22:	20 91 99 63 	lds	r18, 0x6399	; 0x806399 <_ZN9my_eeprom7Cf_luxBE>
    4b26:	30 91 9a 63 	lds	r19, 0x639A	; 0x80639a <_ZN9my_eeprom7Cf_luxBE+0x1>
    4b2a:	40 91 9b 63 	lds	r20, 0x639B	; 0x80639b <_ZN9my_eeprom7Cf_luxBE+0x2>
    4b2e:	50 91 9c 63 	lds	r21, 0x639C	; 0x80639c <_ZN9my_eeprom7Cf_luxBE+0x3>
    4b32:	0e 94 fa 33 	call	0x67f4	; 0x67f4 <__addsf3>
    4b36:	6b 01       	movw	r12, r22
    4b38:	7c 01       	movw	r14, r24
	return (x > y) ? x : y;
}

inline static float min(float x, float y)
{
	return (x < y) ? x : y;
    4b3a:	2f ef       	ldi	r18, 0xFF	; 255
    4b3c:	3f e4       	ldi	r19, 0x4F	; 79
    4b3e:	43 ec       	ldi	r20, 0xC3	; 195
    4b40:	57 e4       	ldi	r21, 0x47	; 71
    4b42:	0e 94 f0 35 	call	0x6be0	; 0x6be0 <__gesf2>
    4b46:	18 16       	cp	r1, r24
    4b48:	54 f4       	brge	.+20     	; 0x4b5e <__vector_4+0x6ac>
    4b4a:	0f 2e       	mov	r0, r31
    4b4c:	cc 24       	eor	r12, r12
    4b4e:	ca 94       	dec	r12
    4b50:	ff e4       	ldi	r31, 0x4F	; 79
    4b52:	df 2e       	mov	r13, r31
    4b54:	f3 ec       	ldi	r31, 0xC3	; 195
    4b56:	ef 2e       	mov	r14, r31
    4b58:	f7 e4       	ldi	r31, 0x47	; 71
    4b5a:	ff 2e       	mov	r15, r31
    4b5c:	f0 2d       	mov	r31, r0
	}
}

inline static float max(float x, float y)
{
	return (x > y) ? x : y;
    4b5e:	20 e0       	ldi	r18, 0x00	; 0
    4b60:	30 e0       	ldi	r19, 0x00	; 0
    4b62:	a9 01       	movw	r20, r18
    4b64:	c7 01       	movw	r24, r14
    4b66:	b6 01       	movw	r22, r12
    4b68:	0e 94 66 34 	call	0x68cc	; 0x68cc <__cmpsf2>
    4b6c:	88 23       	and	r24, r24
    4b6e:	1c f4       	brge	.+6      	; 0x4b76 <__vector_4+0x6c4>
    4b70:	c1 2c       	mov	r12, r1
    4b72:	d1 2c       	mov	r13, r1
    4b74:	76 01       	movw	r14, r12
			}
			else
			{
				float ill_d = my_i2c::ReadVCNL4030_ALS();
				ill_d = max(0,min(99999.99,my_eeprom::Cf_luxA * ill_d + my_eeprom::Cf_luxB));
				dtostrf(ill_d,8,2,illS);
    4b76:	8e 01       	movw	r16, r28
    4b78:	03 5f       	subi	r16, 0xF3	; 243
    4b7a:	1f 4f       	sbci	r17, 0xFF	; 255
    4b7c:	22 e0       	ldi	r18, 0x02	; 2
    4b7e:	48 e0       	ldi	r20, 0x08	; 8
    4b80:	c7 01       	movw	r24, r14
    4b82:	b6 01       	movw	r22, r12
    4b84:	0e 94 78 37 	call	0x6ef0	; 0x6ef0 <dtostrf>
			}
			pass_ill = 0;
    4b88:	10 92 35 62 	sts	0x6235, r1	; 0x806235 <_ZL8pass_ill>
    4b8c:	10 92 36 62 	sts	0x6236, r1	; 0x806236 <_ZL8pass_ill+0x1>
			hasNewData = true;
    4b90:	21 e0       	ldi	r18, 0x01	; 1
		}
		
		//pAD1
		pass_ad1++;
    4b92:	80 91 33 62 	lds	r24, 0x6233	; 0x806233 <_ZL8pass_ad1>
    4b96:	90 91 34 62 	lds	r25, 0x6234	; 0x806234 <_ZL8pass_ad1+0x1>
    4b9a:	01 96       	adiw	r24, 0x01	; 1
    4b9c:	80 93 33 62 	sts	0x6233, r24	; 0x806233 <_ZL8pass_ad1>
    4ba0:	90 93 34 62 	sts	0x6234, r25	; 0x806234 <_ZL8pass_ad1+0x1>
		if(my_eeprom::measure_AD1 && my_eeprom::interval_AD1 <= pass_ad1)
    4ba4:	80 91 94 63 	lds	r24, 0x6394	; 0x806394 <_ZN9my_eeprom11measure_AD1E>
    4ba8:	88 23       	and	r24, r24
    4baa:	69 f0       	breq	.+26     	; 0x4bc6 <__vector_4+0x714>
    4bac:	60 91 11 60 	lds	r22, 0x6011	; 0x806011 <_ZN9my_eeprom12interval_AD1E>
    4bb0:	70 91 12 60 	lds	r23, 0x6012	; 0x806012 <_ZN9my_eeprom12interval_AD1E+0x1>
    4bb4:	40 91 33 62 	lds	r20, 0x6233	; 0x806233 <_ZL8pass_ad1>
    4bb8:	50 91 34 62 	lds	r21, 0x6234	; 0x806234 <_ZL8pass_ad1+0x1>
    4bbc:	46 17       	cp	r20, r22
    4bbe:	57 07       	cpc	r21, r23
    4bc0:	18 f4       	brcc	.+6      	; 0x4bc8 <__vector_4+0x716>
    4bc2:	80 e0       	ldi	r24, 0x00	; 0
    4bc4:	01 c0       	rjmp	.+2      	; 0x4bc8 <__vector_4+0x716>
    4bc6:	80 e0       	ldi	r24, 0x00	; 0
    4bc8:	88 23       	and	r24, r24
    4bca:	81 f0       	breq	.+32     	; 0x4bec <__vector_4+0x73a>
		{
			float adV = readVoltage(1); //AD
    4bcc:	81 e0       	ldi	r24, 0x01	; 1
    4bce:	90 e0       	ldi	r25, 0x00	; 0
    4bd0:	0e 94 f8 1c 	call	0x39f0	; 0x39f0 <_ZL11readVoltagej>
			dtostrf(adV,6,4,adV1S);
    4bd4:	8e 01       	movw	r16, r28
    4bd6:	0c 5d       	subi	r16, 0xDC	; 220
    4bd8:	1f 4f       	sbci	r17, 0xFF	; 255
    4bda:	24 e0       	ldi	r18, 0x04	; 4
    4bdc:	46 e0       	ldi	r20, 0x06	; 6
    4bde:	0e 94 78 37 	call	0x6ef0	; 0x6ef0 <dtostrf>
			pass_ad1 = 0;
    4be2:	10 92 33 62 	sts	0x6233, r1	; 0x806233 <_ZL8pass_ad1>
    4be6:	10 92 34 62 	sts	0x6234, r1	; 0x806234 <_ZL8pass_ad1+0x1>
			hasNewData = true;
    4bea:	21 e0       	ldi	r18, 0x01	; 1
		}
		
		//pAD2
		pass_ad2++;
    4bec:	80 91 31 62 	lds	r24, 0x6231	; 0x806231 <_ZL8pass_ad2>
    4bf0:	90 91 32 62 	lds	r25, 0x6232	; 0x806232 <_ZL8pass_ad2+0x1>
    4bf4:	01 96       	adiw	r24, 0x01	; 1
    4bf6:	80 93 31 62 	sts	0x6231, r24	; 0x806231 <_ZL8pass_ad2>
    4bfa:	90 93 32 62 	sts	0x6232, r25	; 0x806232 <_ZL8pass_ad2+0x1>
		if(my_eeprom::measure_AD2 && my_eeprom::interval_AD2 <= pass_ad2)
    4bfe:	80 91 93 63 	lds	r24, 0x6393	; 0x806393 <_ZN9my_eeprom11measure_AD2E>
    4c02:	88 23       	and	r24, r24
    4c04:	69 f0       	breq	.+26     	; 0x4c20 <__vector_4+0x76e>
    4c06:	60 91 0f 60 	lds	r22, 0x600F	; 0x80600f <_ZN9my_eeprom12interval_AD2E>
    4c0a:	70 91 10 60 	lds	r23, 0x6010	; 0x806010 <_ZN9my_eeprom12interval_AD2E+0x1>
    4c0e:	40 91 31 62 	lds	r20, 0x6231	; 0x806231 <_ZL8pass_ad2>
    4c12:	50 91 32 62 	lds	r21, 0x6232	; 0x806232 <_ZL8pass_ad2+0x1>
    4c16:	46 17       	cp	r20, r22
    4c18:	57 07       	cpc	r21, r23
    4c1a:	18 f4       	brcc	.+6      	; 0x4c22 <__vector_4+0x770>
    4c1c:	80 e0       	ldi	r24, 0x00	; 0
    4c1e:	01 c0       	rjmp	.+2      	; 0x4c22 <__vector_4+0x770>
    4c20:	80 e0       	ldi	r24, 0x00	; 0
    4c22:	88 23       	and	r24, r24
    4c24:	81 f0       	breq	.+32     	; 0x4c46 <__vector_4+0x794>
		{
			float adV = readVoltage(2); //AD
    4c26:	82 e0       	ldi	r24, 0x02	; 2
    4c28:	90 e0       	ldi	r25, 0x00	; 0
    4c2a:	0e 94 f8 1c 	call	0x39f0	; 0x39f0 <_ZL11readVoltagej>
			dtostrf(adV,6,4,adV2S);
    4c2e:	8e 01       	movw	r16, r28
    4c30:	03 5e       	subi	r16, 0xE3	; 227
    4c32:	1f 4f       	sbci	r17, 0xFF	; 255
    4c34:	24 e0       	ldi	r18, 0x04	; 4
    4c36:	46 e0       	ldi	r20, 0x06	; 6
    4c38:	0e 94 78 37 	call	0x6ef0	; 0x6ef0 <dtostrf>
			pass_ad2 = 0;
    4c3c:	10 92 31 62 	sts	0x6231, r1	; 0x806231 <_ZL8pass_ad2>
    4c40:	10 92 32 62 	sts	0x6232, r1	; 0x806232 <_ZL8pass_ad2+0x1>
			hasNewData = true;
    4c44:	21 e0       	ldi	r18, 0x01	; 1
		}
		
		//pAD3
		pass_ad3++;
    4c46:	80 91 2f 62 	lds	r24, 0x622F	; 0x80622f <_ZL8pass_ad3>
    4c4a:	90 91 30 62 	lds	r25, 0x6230	; 0x806230 <_ZL8pass_ad3+0x1>
    4c4e:	01 96       	adiw	r24, 0x01	; 1
    4c50:	80 93 2f 62 	sts	0x622F, r24	; 0x80622f <_ZL8pass_ad3>
    4c54:	90 93 30 62 	sts	0x6230, r25	; 0x806230 <_ZL8pass_ad3+0x1>
		if(my_eeprom::measure_AD3 && my_eeprom::interval_AD3 <= pass_ad3)
    4c58:	80 91 92 63 	lds	r24, 0x6392	; 0x806392 <_ZN9my_eeprom11measure_AD3E>
    4c5c:	88 23       	and	r24, r24
    4c5e:	69 f0       	breq	.+26     	; 0x4c7a <__vector_4+0x7c8>
    4c60:	60 91 0d 60 	lds	r22, 0x600D	; 0x80600d <_ZN9my_eeprom12interval_AD3E>
    4c64:	70 91 0e 60 	lds	r23, 0x600E	; 0x80600e <_ZN9my_eeprom12interval_AD3E+0x1>
    4c68:	40 91 2f 62 	lds	r20, 0x622F	; 0x80622f <_ZL8pass_ad3>
    4c6c:	50 91 30 62 	lds	r21, 0x6230	; 0x806230 <_ZL8pass_ad3+0x1>
    4c70:	46 17       	cp	r20, r22
    4c72:	57 07       	cpc	r21, r23
    4c74:	18 f4       	brcc	.+6      	; 0x4c7c <__vector_4+0x7ca>
    4c76:	80 e0       	ldi	r24, 0x00	; 0
    4c78:	01 c0       	rjmp	.+2      	; 0x4c7c <__vector_4+0x7ca>
    4c7a:	80 e0       	ldi	r24, 0x00	; 0
    4c7c:	88 23       	and	r24, r24
    4c7e:	81 f0       	breq	.+32     	; 0x4ca0 <__vector_4+0x7ee>
		{
			float adV = readVoltage(3); //AD
    4c80:	83 e0       	ldi	r24, 0x03	; 3
    4c82:	90 e0       	ldi	r25, 0x00	; 0
    4c84:	0e 94 f8 1c 	call	0x39f0	; 0x39f0 <_ZL11readVoltagej>
			dtostrf(adV,6,4,adV3S);
    4c88:	8e 01       	movw	r16, r28
    4c8a:	0a 5e       	subi	r16, 0xEA	; 234
    4c8c:	1f 4f       	sbci	r17, 0xFF	; 255
    4c8e:	24 e0       	ldi	r18, 0x04	; 4
    4c90:	46 e0       	ldi	r20, 0x06	; 6
    4c92:	0e 94 78 37 	call	0x6ef0	; 0x6ef0 <dtostrf>
			pass_ad3 = 0;
    4c96:	10 92 2f 62 	sts	0x622F, r1	; 0x80622f <_ZL8pass_ad3>
    4c9a:	10 92 30 62 	sts	0x6230, r1	; 0x806230 <_ZL8pass_ad3+0x1>
			hasNewData = true;
    4c9e:	21 e0       	ldi	r18, 0x01	; 1
		}
		
		//VKf[^M
		if(hasNewData)
    4ca0:	22 23       	and	r18, r18
    4ca2:	09 f4       	brne	.+2      	; 0x4ca6 <__vector_4+0x7f4>
    4ca4:	d7 c0       	rjmp	.+430    	; 0x4e54 <__vector_4+0x9a2>
		{
			if(outputToXBee || outputToBLE) 
    4ca6:	80 91 07 60 	lds	r24, 0x6007	; 0x806007 <_ZL12outputToXBee>
    4caa:	81 11       	cpse	r24, r1
    4cac:	02 c0       	rjmp	.+4      	; 0x4cb2 <__vector_4+0x800>
    4cae:	80 91 3e 62 	lds	r24, 0x623E	; 0x80623e <_ZL11outputToBLE>
    4cb2:	88 23       	and	r24, r24
    4cb4:	49 f0       	breq	.+18     	; 0x4cc8 <__vector_4+0x816>
	PORTF.OUTSET = PIN5_bm;
}

inline static void wakeup_xbee(void)
{
	PORTF.OUTCLR = PIN5_bm;
    4cb6:	80 e2       	ldi	r24, 0x20	; 32
    4cb8:	80 93 a6 04 	sts	0x04A6, r24	; 0x8004a6 <__TEXT_REGION_LENGTH__+0x7f04a6>
    4cbc:	87 ee       	ldi	r24, 0xE7	; 231
    4cbe:	93 e0       	ldi	r25, 0x03	; 3
    4cc0:	01 97       	sbiw	r24, 0x01	; 1
    4cc2:	f1 f7       	brne	.-4      	; 0x4cc0 <__vector_4+0x80e>
    4cc4:	00 c0       	rjmp	.+0      	; 0x4cc6 <__vector_4+0x814>
    4cc6:	00 00       	nop
				wakeup_xbee(); //XBeeX[v
				_delay_ms(1); //X[v50us=0.05msx
			}
			
			//
			time_t ct = currentTime - UNIX_OFFSET;
    4cc8:	80 91 6f 63 	lds	r24, 0x636F	; 0x80636f <_ZL11currentTime>
    4ccc:	90 91 70 63 	lds	r25, 0x6370	; 0x806370 <_ZL11currentTime+0x1>
    4cd0:	a0 91 71 63 	lds	r26, 0x6371	; 0x806371 <_ZL11currentTime+0x2>
    4cd4:	b0 91 72 63 	lds	r27, 0x6372	; 0x806372 <_ZL11currentTime+0x3>
    4cd8:	80 58       	subi	r24, 0x80	; 128
    4cda:	93 44       	sbci	r25, 0x43	; 67
    4cdc:	ad 46       	sbci	r26, 0x6D	; 109
    4cde:	b8 43       	sbci	r27, 0x38	; 56
    4ce0:	69 96       	adiw	r28, 0x19	; 25
    4ce2:	8c af       	std	Y+60, r24	; 0x3c
    4ce4:	9d af       	std	Y+61, r25	; 0x3d
    4ce6:	ae af       	std	Y+62, r26	; 0x3e
    4ce8:	bf af       	std	Y+63, r27	; 0x3f
    4cea:	69 97       	sbiw	r28, 0x19	; 25
			tm dtNow;
			gmtime_r(&ct, &dtNow);
    4cec:	be 01       	movw	r22, r28
    4cee:	6f 5f       	subi	r22, 0xFF	; 255
    4cf0:	7f 4f       	sbci	r23, 0xFF	; 255
    4cf2:	ce 01       	movw	r24, r28
    4cf4:	8b 5a       	subi	r24, 0xAB	; 171
    4cf6:	9f 4f       	sbci	r25, 0xFF	; 255
    4cf8:	0e 94 6f 01 	call	0x2de	; 0x2de <gmtime_r>
			
			//o
			snprintf(charBuff, sizeof(charBuff), "%s%04d,%02d/%02d,%02d:%02d:%02d,%s,%s,%s,%s,%s,%s,%s,%s,%s,%s\r",
			(outputToSDCard ? "" : "DTT:"), dtNow.tm_year + 1900, dtNow.tm_mon + 1, dtNow.tm_mday, dtNow.tm_hour, dtNow.tm_min, dtNow.tm_sec,
    4cfc:	c9 80       	ldd	r12, Y+1	; 0x01
			time_t ct = currentTime - UNIX_OFFSET;
			tm dtNow;
			gmtime_r(&ct, &dtNow);
			
			//o
			snprintf(charBuff, sizeof(charBuff), "%s%04d,%02d/%02d,%02d:%02d:%02d,%s,%s,%s,%s,%s,%s,%s,%s,%s,%s\r",
    4cfe:	ec 2c       	mov	r14, r12
    4d00:	0c 2c       	mov	r0, r12
    4d02:	00 0c       	add	r0, r0
    4d04:	ff 08       	sbc	r15, r15
			(outputToSDCard ? "" : "DTT:"), dtNow.tm_year + 1900, dtNow.tm_mon + 1, dtNow.tm_mday, dtNow.tm_hour, dtNow.tm_min, dtNow.tm_sec,
    4d06:	da 80       	ldd	r13, Y+2	; 0x02
			time_t ct = currentTime - UNIX_OFFSET;
			tm dtNow;
			gmtime_r(&ct, &dtNow);
			
			//o
			snprintf(charBuff, sizeof(charBuff), "%s%04d,%02d/%02d,%02d:%02d:%02d,%s,%s,%s,%s,%s,%s,%s,%s,%s,%s\r",
    4d08:	0d 2d       	mov	r16, r13
    4d0a:	0d 2c       	mov	r0, r13
    4d0c:	00 0c       	add	r0, r0
    4d0e:	11 0b       	sbc	r17, r17
			(outputToSDCard ? "" : "DTT:"), dtNow.tm_year + 1900, dtNow.tm_mon + 1, dtNow.tm_mday, dtNow.tm_hour, dtNow.tm_min, dtNow.tm_sec,
    4d10:	7b 81       	ldd	r23, Y+3	; 0x03
			time_t ct = currentTime - UNIX_OFFSET;
			tm dtNow;
			gmtime_r(&ct, &dtNow);
			
			//o
			snprintf(charBuff, sizeof(charBuff), "%s%04d,%02d/%02d,%02d:%02d:%02d,%s,%s,%s,%s,%s,%s,%s,%s,%s,%s\r",
    4d12:	a7 2f       	mov	r26, r23
    4d14:	07 2e       	mov	r0, r23
    4d16:	00 0c       	add	r0, r0
    4d18:	bb 0b       	sbc	r27, r27
			(outputToSDCard ? "" : "DTT:"), dtNow.tm_year + 1900, dtNow.tm_mon + 1, dtNow.tm_mday, dtNow.tm_hour, dtNow.tm_min, dtNow.tm_sec,
    4d1a:	9c 80       	ldd	r9, Y+4	; 0x04
			time_t ct = currentTime - UNIX_OFFSET;
			tm dtNow;
			gmtime_r(&ct, &dtNow);
			
			//o
			snprintf(charBuff, sizeof(charBuff), "%s%04d,%02d/%02d,%02d:%02d:%02d,%s,%s,%s,%s,%s,%s,%s,%s,%s,%s\r",
    4d1c:	e9 2d       	mov	r30, r9
    4d1e:	09 2c       	mov	r0, r9
    4d20:	00 0c       	add	r0, r0
    4d22:	ff 0b       	sbc	r31, r31
			(outputToSDCard ? "" : "DTT:"), dtNow.tm_year + 1900, dtNow.tm_mon + 1, dtNow.tm_mday, dtNow.tm_hour, dtNow.tm_min, dtNow.tm_sec,
    4d24:	8e 81       	ldd	r24, Y+6	; 0x06
			time_t ct = currentTime - UNIX_OFFSET;
			tm dtNow;
			gmtime_r(&ct, &dtNow);
			
			//o
			snprintf(charBuff, sizeof(charBuff), "%s%04d,%02d/%02d,%02d:%02d:%02d,%s,%s,%s,%s,%s,%s,%s,%s,%s,%s\r",
    4d26:	08 2e       	mov	r0, r24
    4d28:	00 0c       	add	r0, r0
    4d2a:	99 0b       	sbc	r25, r25
    4d2c:	01 96       	adiw	r24, 0x01	; 1
			(outputToSDCard ? "" : "DTT:"), dtNow.tm_year + 1900, dtNow.tm_mon + 1, dtNow.tm_mday, dtNow.tm_hour, dtNow.tm_min, dtNow.tm_sec,
    4d2e:	2f 81       	ldd	r18, Y+7	; 0x07
    4d30:	38 85       	ldd	r19, Y+8	; 0x08
			time_t ct = currentTime - UNIX_OFFSET;
			tm dtNow;
			gmtime_r(&ct, &dtNow);
			
			//o
			snprintf(charBuff, sizeof(charBuff), "%s%04d,%02d/%02d,%02d:%02d:%02d,%s,%s,%s,%s,%s,%s,%s,%s,%s,%s\r",
    4d32:	24 59       	subi	r18, 0x94	; 148
    4d34:	38 4f       	sbci	r19, 0xF8	; 248
    4d36:	40 91 3d 62 	lds	r20, 0x623D	; 0x80623d <_ZL14outputToSDCard>
    4d3a:	44 23       	and	r20, r20
    4d3c:	19 f0       	breq	.+6      	; 0x4d44 <__vector_4+0x892>
    4d3e:	4e e5       	ldi	r20, 0x5E	; 94
    4d40:	50 e6       	ldi	r21, 0x60	; 96
    4d42:	02 c0       	rjmp	.+4      	; 0x4d48 <__vector_4+0x896>
    4d44:	46 e1       	ldi	r20, 0x16	; 22
    4d46:	51 e6       	ldi	r21, 0x61	; 97
			(outputToSDCard ? "" : "DTT:"), dtNow.tm_year + 1900, dtNow.tm_mon + 1, dtNow.tm_mday, dtNow.tm_hour, dtNow.tm_min, dtNow.tm_sec,
			tmpS, hmdS, glbTS, velS, illS, glbVS, velVS, adV1S, adV2S, adV3S);
    4d48:	5e 01       	movw	r10, r28
    4d4a:	66 e1       	ldi	r22, 0x16	; 22
    4d4c:	a6 0e       	add	r10, r22
    4d4e:	b1 1c       	adc	r11, r1
    4d50:	bf 92       	push	r11
    4d52:	af 92       	push	r10
    4d54:	5e 01       	movw	r10, r28
    4d56:	6d e1       	ldi	r22, 0x1D	; 29
    4d58:	a6 0e       	add	r10, r22
    4d5a:	b1 1c       	adc	r11, r1
    4d5c:	bf 92       	push	r11
    4d5e:	af 92       	push	r10
    4d60:	5e 01       	movw	r10, r28
    4d62:	64 e2       	ldi	r22, 0x24	; 36
    4d64:	a6 0e       	add	r10, r22
    4d66:	b1 1c       	adc	r11, r1
    4d68:	bf 92       	push	r11
    4d6a:	af 92       	push	r10
    4d6c:	5e 01       	movw	r10, r28
    4d6e:	6b e2       	ldi	r22, 0x2B	; 43
    4d70:	a6 0e       	add	r10, r22
    4d72:	b1 1c       	adc	r11, r1
    4d74:	bf 92       	push	r11
    4d76:	af 92       	push	r10
    4d78:	5e 01       	movw	r10, r28
    4d7a:	69 e3       	ldi	r22, 0x39	; 57
    4d7c:	a6 0e       	add	r10, r22
    4d7e:	b1 1c       	adc	r11, r1
    4d80:	bf 92       	push	r11
    4d82:	af 92       	push	r10
    4d84:	5e 01       	movw	r10, r28
    4d86:	6d e0       	ldi	r22, 0x0D	; 13
    4d88:	a6 0e       	add	r10, r22
    4d8a:	b1 1c       	adc	r11, r1
    4d8c:	bf 92       	push	r11
    4d8e:	af 92       	push	r10
    4d90:	5e 01       	movw	r10, r28
    4d92:	62 e3       	ldi	r22, 0x32	; 50
    4d94:	a6 0e       	add	r10, r22
    4d96:	b1 1c       	adc	r11, r1
    4d98:	bf 92       	push	r11
    4d9a:	af 92       	push	r10
    4d9c:	5e 01       	movw	r10, r28
    4d9e:	60 e4       	ldi	r22, 0x40	; 64
    4da0:	a6 0e       	add	r10, r22
    4da2:	b1 1c       	adc	r11, r1
    4da4:	bf 92       	push	r11
    4da6:	af 92       	push	r10
    4da8:	5e 01       	movw	r10, r28
    4daa:	67 e4       	ldi	r22, 0x47	; 71
    4dac:	a6 0e       	add	r10, r22
    4dae:	b1 1c       	adc	r11, r1
    4db0:	bf 92       	push	r11
    4db2:	af 92       	push	r10
    4db4:	5e 01       	movw	r10, r28
    4db6:	6e e4       	ldi	r22, 0x4E	; 78
    4db8:	a6 0e       	add	r10, r22
    4dba:	b1 1c       	adc	r11, r1
    4dbc:	bf 92       	push	r11
    4dbe:	af 92       	push	r10
    4dc0:	ff 92       	push	r15
    4dc2:	cf 92       	push	r12
    4dc4:	1f 93       	push	r17
    4dc6:	df 92       	push	r13
    4dc8:	bf 93       	push	r27
    4dca:	7f 93       	push	r23
    4dcc:	ff 93       	push	r31
    4dce:	9f 92       	push	r9
    4dd0:	9f 93       	push	r25
    4dd2:	8f 93       	push	r24
    4dd4:	3f 93       	push	r19
    4dd6:	2f 93       	push	r18
    4dd8:	5f 93       	push	r21
    4dda:	4f 93       	push	r20
    4ddc:	8b e1       	ldi	r24, 0x1B	; 27
    4dde:	91 e6       	ldi	r25, 0x61	; 97
    4de0:	9f 93       	push	r25
    4de2:	8f 93       	push	r24
    4de4:	1f 92       	push	r1
    4de6:	86 e9       	ldi	r24, 0x96	; 150
    4de8:	8f 93       	push	r24
    4dea:	83 e9       	ldi	r24, 0x93	; 147
    4dec:	91 e6       	ldi	r25, 0x61	; 97
    4dee:	9f 93       	push	r25
    4df0:	8f 93       	push	r24
    4df2:	0e 94 38 39 	call	0x7270	; 0x7270 <snprintf>
			
			//I[o[IR[h'\r\0'
			charBuff[my_xbee::MAX_CMD_CHAR-2]='\r';
    4df6:	8d e0       	ldi	r24, 0x0D	; 13
    4df8:	80 93 27 62 	sts	0x6227, r24	; 0x806227 <_ZL8charBuff+0x94>
			charBuff[my_xbee::MAX_CMD_CHAR-1]= '\0';
    4dfc:	10 92 28 62 	sts	0x6228, r1	; 0x806228 <_ZL8charBuff+0x95>

			if(outputToXBee) my_xbee::tx_chars(charBuff); //XBee Zigbeeo
    4e00:	80 91 07 60 	lds	r24, 0x6007	; 0x806007 <_ZL12outputToXBee>
    4e04:	cd bf       	out	0x3d, r28	; 61
    4e06:	de bf       	out	0x3e, r29	; 62
    4e08:	88 23       	and	r24, r24
    4e0a:	21 f0       	breq	.+8      	; 0x4e14 <__vector_4+0x962>
    4e0c:	83 e9       	ldi	r24, 0x93	; 147
    4e0e:	91 e6       	ldi	r25, 0x61	; 97
    4e10:	0e 94 2e 33 	call	0x665c	; 0x665c <_ZN7my_xbee8tx_charsEPKc>
			if(outputToBLE) my_xbee::bl_chars(charBuff); //XBee Bluetootho
    4e14:	80 91 3e 62 	lds	r24, 0x623E	; 0x80623e <_ZL11outputToBLE>
    4e18:	88 23       	and	r24, r24
    4e1a:	21 f0       	breq	.+8      	; 0x4e24 <__vector_4+0x972>
    4e1c:	83 e9       	ldi	r24, 0x93	; 147
    4e1e:	91 e6       	ldi	r25, 0x61	; 97
    4e20:	0e 94 9a 33 	call	0x6734	; 0x6734 <_ZN7my_xbee8bl_charsEPKc>
			if(outputToSDCard) writeSDcard(dtNow, charBuff); //SD cardo
    4e24:	80 91 3d 62 	lds	r24, 0x623D	; 0x80623d <_ZL14outputToSDCard>
    4e28:	88 23       	and	r24, r24
    4e2a:	a1 f0       	breq	.+40     	; 0x4e54 <__vector_4+0x9a2>
    4e2c:	0f 2e       	mov	r0, r31
    4e2e:	f3 e9       	ldi	r31, 0x93	; 147
    4e30:	cf 2e       	mov	r12, r31
    4e32:	f1 e6       	ldi	r31, 0x61	; 97
    4e34:	df 2e       	mov	r13, r31
    4e36:	f0 2d       	mov	r31, r0
    4e38:	e9 80       	ldd	r14, Y+1	; 0x01
    4e3a:	fa 80       	ldd	r15, Y+2	; 0x02
    4e3c:	0b 81       	ldd	r16, Y+3	; 0x03
    4e3e:	1c 81       	ldd	r17, Y+4	; 0x04
    4e40:	2d 81       	ldd	r18, Y+5	; 0x05
    4e42:	3e 81       	ldd	r19, Y+6	; 0x06
    4e44:	4f 81       	ldd	r20, Y+7	; 0x07
    4e46:	58 85       	ldd	r21, Y+8	; 0x08
    4e48:	69 85       	ldd	r22, Y+9	; 0x09
    4e4a:	7a 85       	ldd	r23, Y+10	; 0x0a
    4e4c:	8b 85       	ldd	r24, Y+11	; 0x0b
    4e4e:	9c 85       	ldd	r25, Y+12	; 0x0c
    4e50:	0e 94 a3 20 	call	0x4146	; 0x4146 <_ZL11writeSDcard2tmPKc>
    4e54:	8f e0       	ldi	r24, 0x0F	; 15
    4e56:	97 e2       	ldi	r25, 0x27	; 39
    4e58:	01 97       	sbiw	r24, 0x01	; 1
    4e5a:	f1 f7       	brne	.-4      	; 0x4e58 <__vector_4+0x9a6>
    4e5c:	00 c0       	rjmp	.+0      	; 0x4e5e <__vector_4+0x9ac>
    4e5e:	00 00       	nop
		//UARTMI10msecXBeeX[v(XBeeMI)
		//{ACTSgM\^C~OX[vHt[Rg[B
		//while(! my_uart::tx_done());
		_delay_ms(10); //X[vXBeeMIIBsplABBv
		
		if(outputToSDCard) blinkLED(1); //SDJ[hL^bLED_
    4e60:	80 91 3d 62 	lds	r24, 0x623D	; 0x80623d <_ZL14outputToSDCard>
    4e64:	88 23       	and	r24, r24
    4e66:	09 f4       	brne	.+2      	; 0x4e6a <__vector_4+0x9b8>
    4e68:	66 c0       	rjmp	.+204    	; 0x4f36 <__vector_4+0xa84>
inline static void blinkLED(int iterNum)
{
	if(iterNum < 1) return;

	//
	PORTD.OUTCLR = PIN6_bm; //UK
    4e6a:	80 e4       	ldi	r24, 0x40	; 64
    4e6c:	80 93 66 04 	sts	0x0466, r24	; 0x800466 <__TEXT_REGION_LENGTH__+0x7f0466>
	//_
	for(int i=0;i<iterNum;i++)
    4e70:	80 e0       	ldi	r24, 0x00	; 0
    4e72:	90 e0       	ldi	r25, 0x00	; 0
    4e74:	18 16       	cp	r1, r24
    4e76:	19 06       	cpc	r1, r25
    4e78:	0c f4       	brge	.+2      	; 0x4e7c <__vector_4+0x9ca>
    4e7a:	5d c0       	rjmp	.+186    	; 0x4f36 <__vector_4+0xa84>
    4e7c:	af e7       	ldi	r26, 0x7F	; 127
    4e7e:	b8 e3       	ldi	r27, 0x38	; 56
    4e80:	21 e0       	ldi	r18, 0x01	; 1
    4e82:	a1 50       	subi	r26, 0x01	; 1
    4e84:	b0 40       	sbci	r27, 0x00	; 0
    4e86:	20 40       	sbci	r18, 0x00	; 0
    4e88:	e1 f7       	brne	.-8      	; 0x4e82 <__vector_4+0x9d0>
    4e8a:	00 c0       	rjmp	.+0      	; 0x4e8c <__vector_4+0x9da>
    4e8c:	00 00       	nop
	{
		_delay_ms(100);
		PORTD.OUTSET = PIN6_bm; //_
    4e8e:	e0 e6       	ldi	r30, 0x60	; 96
    4e90:	f4 e0       	ldi	r31, 0x04	; 4
    4e92:	20 e4       	ldi	r18, 0x40	; 64
    4e94:	25 83       	std	Z+5, r18	; 0x05
    4e96:	a7 ea       	ldi	r26, 0xA7	; 167
    4e98:	b1 e6       	ldi	r27, 0x61	; 97
    4e9a:	11 97       	sbiw	r26, 0x01	; 1
    4e9c:	f1 f7       	brne	.-4      	; 0x4e9a <__vector_4+0x9e8>
    4e9e:	00 c0       	rjmp	.+0      	; 0x4ea0 <__vector_4+0x9ee>
    4ea0:	00 00       	nop
		_delay_ms(25);
		PORTD.OUTCLR = PIN6_bm; //
    4ea2:	26 83       	std	Z+6, r18	; 0x06
	if(iterNum < 1) return;

	//
	PORTD.OUTCLR = PIN6_bm; //UK
	//_
	for(int i=0;i<iterNum;i++)
    4ea4:	01 96       	adiw	r24, 0x01	; 1
    4ea6:	e6 cf       	rjmp	.-52     	; 0x4e74 <__vector_4+0x9c2>
	PORTF.OUTSET = PIN5_bm;
}

inline static void wakeup_xbee(void)
{
	PORTF.OUTCLR = PIN5_bm;
    4ea8:	80 e2       	ldi	r24, 0x20	; 32
    4eaa:	80 93 a6 04 	sts	0x04A6, r24	; 0x8004a6 <__TEXT_REGION_LENGTH__+0x7f04a6>
    4eae:	87 ee       	ldi	r24, 0xE7	; 231
    4eb0:	93 e0       	ldi	r25, 0x03	; 3
    4eb2:	01 97       	sbiw	r24, 0x01	; 1
    4eb4:	f1 f7       	brne	.-4      	; 0x4eb2 <__vector_4+0xa00>
    4eb6:	00 c0       	rjmp	.+0      	; 0x4eb8 <__vector_4+0xa06>
    4eb8:	00 00       	nop
	{
		wakeup_xbee(); //XBeeX[v
		_delay_ms(1); //X[v50us=0.05msx
		
		//IR}hM
		if(wc_time <= 0)
    4eba:	80 91 2e 62 	lds	r24, 0x622E	; 0x80622e <_ZL7wc_time>
    4ebe:	81 11       	cpse	r24, r1
    4ec0:	07 c0       	rjmp	.+14     	; 0x4ed0 <__vector_4+0xa1e>
		{
			my_xbee::bltx_chars("WFC\r"); //Waiting for command.
    4ec2:	8a e5       	ldi	r24, 0x5A	; 90
    4ec4:	91 e6       	ldi	r25, 0x61	; 97
    4ec6:	0e 94 ee 33 	call	0x67dc	; 0x67dc <_ZN7my_xbee10bltx_charsEPKc>
			wc_time = 6;
    4eca:	86 e0       	ldi	r24, 0x06	; 6
    4ecc:	80 93 2e 62 	sts	0x622E, r24	; 0x80622e <_ZL7wc_time>
		}
		wc_time--;
    4ed0:	80 91 2e 62 	lds	r24, 0x622E	; 0x80622e <_ZL7wc_time>
    4ed4:	81 50       	subi	r24, 0x01	; 1
    4ed6:	80 93 2e 62 	sts	0x622E, r24	; 0x80622e <_ZL7wc_time>
		
		//
		if((PORTA.IN & PIN2_bm))  //Reset~
    4eda:	80 91 08 04 	lds	r24, 0x0408	; 0x800408 <__TEXT_REGION_LENGTH__+0x7f0408>
    4ede:	82 ff       	sbrs	r24, 2
    4ee0:	2a c0       	rjmp	.+84     	; 0x4f36 <__vector_4+0xa84>
			blinkLED(initSD ? 2 : 1);
    4ee2:	80 91 2d 62 	lds	r24, 0x622D	; 0x80622d <initSD>
    4ee6:	88 23       	and	r24, r24
    4ee8:	19 f0       	breq	.+6      	; 0x4ef0 <__vector_4+0xa3e>
    4eea:	42 e0       	ldi	r20, 0x02	; 2
    4eec:	50 e0       	ldi	r21, 0x00	; 0
    4eee:	02 c0       	rjmp	.+4      	; 0x4ef4 <__vector_4+0xa42>
    4ef0:	41 e0       	ldi	r20, 0x01	; 1
    4ef2:	50 e0       	ldi	r21, 0x00	; 0
	PORTF.OUTCLR = PIN5_bm;
}

inline static void blinkLED(int iterNum)
{
	if(iterNum < 1) return;
    4ef4:	14 16       	cp	r1, r20
    4ef6:	15 06       	cpc	r1, r21
    4ef8:	f4 f4       	brge	.+60     	; 0x4f36 <__vector_4+0xa84>

	//
	PORTD.OUTCLR = PIN6_bm; //UK
    4efa:	80 e4       	ldi	r24, 0x40	; 64
    4efc:	80 93 66 04 	sts	0x0466, r24	; 0x800466 <__TEXT_REGION_LENGTH__+0x7f0466>
	//_
	for(int i=0;i<iterNum;i++)
    4f00:	80 e0       	ldi	r24, 0x00	; 0
    4f02:	90 e0       	ldi	r25, 0x00	; 0
    4f04:	84 17       	cp	r24, r20
    4f06:	95 07       	cpc	r25, r21
    4f08:	b4 f4       	brge	.+44     	; 0x4f36 <__vector_4+0xa84>
    4f0a:	af e7       	ldi	r26, 0x7F	; 127
    4f0c:	b8 e3       	ldi	r27, 0x38	; 56
    4f0e:	21 e0       	ldi	r18, 0x01	; 1
    4f10:	a1 50       	subi	r26, 0x01	; 1
    4f12:	b0 40       	sbci	r27, 0x00	; 0
    4f14:	20 40       	sbci	r18, 0x00	; 0
    4f16:	e1 f7       	brne	.-8      	; 0x4f10 <__vector_4+0xa5e>
    4f18:	00 c0       	rjmp	.+0      	; 0x4f1a <__vector_4+0xa68>
    4f1a:	00 00       	nop
	{
		_delay_ms(100);
		PORTD.OUTSET = PIN6_bm; //_
    4f1c:	e0 e6       	ldi	r30, 0x60	; 96
    4f1e:	f4 e0       	ldi	r31, 0x04	; 4
    4f20:	20 e4       	ldi	r18, 0x40	; 64
    4f22:	25 83       	std	Z+5, r18	; 0x05
    4f24:	a7 ea       	ldi	r26, 0xA7	; 167
    4f26:	b1 e6       	ldi	r27, 0x61	; 97
    4f28:	11 97       	sbiw	r26, 0x01	; 1
    4f2a:	f1 f7       	brne	.-4      	; 0x4f28 <__vector_4+0xa76>
    4f2c:	00 c0       	rjmp	.+0      	; 0x4f2e <__vector_4+0xa7c>
    4f2e:	00 00       	nop
		_delay_ms(25);
		PORTD.OUTCLR = PIN6_bm; //
    4f30:	26 83       	std	Z+6, r18	; 0x06
	if(iterNum < 1) return;

	//
	PORTD.OUTCLR = PIN6_bm; //UK
	//_
	for(int i=0;i<iterNum;i++)
    4f32:	01 96       	adiw	r24, 0x01	; 1
    4f34:	e7 cf       	rjmp	.-50     	; 0x4f04 <__vector_4+0xa52>
		
		//
		if((PORTA.IN & PIN2_bm))  //Reset~
			blinkLED(initSD ? 2 : 1);
	}
}
    4f36:	c8 5a       	subi	r28, 0xA8	; 168
    4f38:	df 4f       	sbci	r29, 0xFF	; 255
    4f3a:	cd bf       	out	0x3d, r28	; 61
    4f3c:	de bf       	out	0x3e, r29	; 62
    4f3e:	df 91       	pop	r29
    4f40:	cf 91       	pop	r28
    4f42:	ff 91       	pop	r31
    4f44:	ef 91       	pop	r30
    4f46:	bf 91       	pop	r27
    4f48:	af 91       	pop	r26
    4f4a:	9f 91       	pop	r25
    4f4c:	8f 91       	pop	r24
    4f4e:	7f 91       	pop	r23
    4f50:	6f 91       	pop	r22
    4f52:	5f 91       	pop	r21
    4f54:	4f 91       	pop	r20
    4f56:	3f 91       	pop	r19
    4f58:	2f 91       	pop	r18
    4f5a:	1f 91       	pop	r17
    4f5c:	0f 91       	pop	r16
    4f5e:	ff 90       	pop	r15
    4f60:	ef 90       	pop	r14
    4f62:	df 90       	pop	r13
    4f64:	cf 90       	pop	r12
    4f66:	bf 90       	pop	r11
    4f68:	af 90       	pop	r10
    4f6a:	9f 90       	pop	r9
    4f6c:	8f 90       	pop	r8
    4f6e:	0f 90       	pop	r0
    4f70:	0f be       	out	0x3f, r0	; 63
    4f72:	0f 90       	pop	r0
    4f74:	1f 90       	pop	r1
    4f76:	18 95       	reti

00004f78 <__vector_6>:
	free(fl);
}

//PORTA PIN2
ISR(PORTA_PORT_vect)
{
    4f78:	1f 92       	push	r1
    4f7a:	0f 92       	push	r0
    4f7c:	0f b6       	in	r0, 0x3f	; 63
    4f7e:	0f 92       	push	r0
    4f80:	11 24       	eor	r1, r1
    4f82:	8f 93       	push	r24
    4f84:	ef 93       	push	r30
    4f86:	ff 93       	push	r31
	// tO
	PORTA.INTFLAGS = PIN2_bm;
    4f88:	e0 e0       	ldi	r30, 0x00	; 0
    4f8a:	f4 e0       	ldi	r31, 0x04	; 4
    4f8c:	84 e0       	ldi	r24, 0x04	; 4
    4f8e:	81 87       	std	Z+9, r24	; 0x09
	
	//Push:LED_, None:LED
	if(PORTA.IN & PIN2_bm) PORTD.OUTCLR = PIN6_bm;
    4f90:	80 85       	ldd	r24, Z+8	; 0x08
    4f92:	82 ff       	sbrs	r24, 2
    4f94:	04 c0       	rjmp	.+8      	; 0x4f9e <__vector_6+0x26>
    4f96:	80 e4       	ldi	r24, 0x40	; 64
    4f98:	80 93 66 04 	sts	0x0466, r24	; 0x800466 <__TEXT_REGION_LENGTH__+0x7f0466>
    4f9c:	03 c0       	rjmp	.+6      	; 0x4fa4 <__vector_6+0x2c>
	else PORTD.OUTSET = PIN6_bm;
    4f9e:	80 e4       	ldi	r24, 0x40	; 64
    4fa0:	80 93 65 04 	sts	0x0465, r24	; 0x800465 <__TEXT_REGION_LENGTH__+0x7f0465>
}
    4fa4:	ff 91       	pop	r31
    4fa6:	ef 91       	pop	r30
    4fa8:	8f 91       	pop	r24
    4faa:	0f 90       	pop	r0
    4fac:	0f be       	out	0x3f, r0	; 63
    4fae:	0f 90       	pop	r0
    4fb0:	1f 90       	pop	r1
    4fb2:	18 95       	reti

00004fb4 <_Z10initMemoryv>:

//
void initMemory()
{
	//xWA,B
	eeprom_busy_wait();
    4fb4:	80 91 02 10 	lds	r24, 0x1002	; 0x801002 <__TEXT_REGION_LENGTH__+0x7f1002>
    4fb8:	81 fd       	sbrc	r24, 1
    4fba:	fc cf       	rjmp	.-8      	; 0x4fb4 <_Z10initMemoryv>
	eeprom_update_float(&EEP_DBTCF_A, 1.000);
    4fbc:	40 e0       	ldi	r20, 0x00	; 0
    4fbe:	50 e0       	ldi	r21, 0x00	; 0
    4fc0:	60 e8       	ldi	r22, 0x80	; 128
    4fc2:	7f e3       	ldi	r23, 0x3F	; 63
    4fc4:	84 e5       	ldi	r24, 0x54	; 84
    4fc6:	90 e0       	ldi	r25, 0x00	; 0
    4fc8:	0e 94 80 3e 	call	0x7d00	; 0x7d00 <eeprom_update_dword>
	eeprom_busy_wait();
    4fcc:	80 91 02 10 	lds	r24, 0x1002	; 0x801002 <__TEXT_REGION_LENGTH__+0x7f1002>
    4fd0:	81 fd       	sbrc	r24, 1
    4fd2:	fc cf       	rjmp	.-8      	; 0x4fcc <_Z10initMemoryv+0x18>
	eeprom_update_float(&EEP_DBTCF_B, 0.000);
    4fd4:	40 e0       	ldi	r20, 0x00	; 0
    4fd6:	50 e0       	ldi	r21, 0x00	; 0
    4fd8:	ba 01       	movw	r22, r20
    4fda:	80 e5       	ldi	r24, 0x50	; 80
    4fdc:	90 e0       	ldi	r25, 0x00	; 0
    4fde:	0e 94 80 3e 	call	0x7d00	; 0x7d00 <eeprom_update_dword>
	
	//xWA,B
	eeprom_busy_wait();
    4fe2:	80 91 02 10 	lds	r24, 0x1002	; 0x801002 <__TEXT_REGION_LENGTH__+0x7f1002>
    4fe6:	81 fd       	sbrc	r24, 1
    4fe8:	fc cf       	rjmp	.-8      	; 0x4fe2 <_Z10initMemoryv+0x2e>
	eeprom_update_float(&EEP_HMDCF_A, 1.000);
    4fea:	40 e0       	ldi	r20, 0x00	; 0
    4fec:	50 e0       	ldi	r21, 0x00	; 0
    4fee:	60 e8       	ldi	r22, 0x80	; 128
    4ff0:	7f e3       	ldi	r23, 0x3F	; 63
    4ff2:	8c e4       	ldi	r24, 0x4C	; 76
    4ff4:	90 e0       	ldi	r25, 0x00	; 0
    4ff6:	0e 94 80 3e 	call	0x7d00	; 0x7d00 <eeprom_update_dword>
	eeprom_busy_wait();
    4ffa:	80 91 02 10 	lds	r24, 0x1002	; 0x801002 <__TEXT_REGION_LENGTH__+0x7f1002>
    4ffe:	81 fd       	sbrc	r24, 1
    5000:	fc cf       	rjmp	.-8      	; 0x4ffa <_Z10initMemoryv+0x46>
	eeprom_update_float(&EEP_HMDCF_B, 0.000);
    5002:	40 e0       	ldi	r20, 0x00	; 0
    5004:	50 e0       	ldi	r21, 0x00	; 0
    5006:	ba 01       	movw	r22, r20
    5008:	88 e4       	ldi	r24, 0x48	; 72
    500a:	90 e0       	ldi	r25, 0x00	; 0
    500c:	0e 94 80 3e 	call	0x7d00	; 0x7d00 <eeprom_update_dword>
	
	//O[uxWA,B
	eeprom_busy_wait();
    5010:	80 91 02 10 	lds	r24, 0x1002	; 0x801002 <__TEXT_REGION_LENGTH__+0x7f1002>
    5014:	81 fd       	sbrc	r24, 1
    5016:	fc cf       	rjmp	.-8      	; 0x5010 <_Z10initMemoryv+0x5c>
	eeprom_update_float(&EEP_GLBCF_A, 1.000);
    5018:	40 e0       	ldi	r20, 0x00	; 0
    501a:	50 e0       	ldi	r21, 0x00	; 0
    501c:	60 e8       	ldi	r22, 0x80	; 128
    501e:	7f e3       	ldi	r23, 0x3F	; 63
    5020:	84 e4       	ldi	r24, 0x44	; 68
    5022:	90 e0       	ldi	r25, 0x00	; 0
    5024:	0e 94 80 3e 	call	0x7d00	; 0x7d00 <eeprom_update_dword>
	eeprom_busy_wait();
    5028:	80 91 02 10 	lds	r24, 0x1002	; 0x801002 <__TEXT_REGION_LENGTH__+0x7f1002>
    502c:	81 fd       	sbrc	r24, 1
    502e:	fc cf       	rjmp	.-8      	; 0x5028 <_Z10initMemoryv+0x74>
	eeprom_update_float(&EEP_GLBCF_B, 0.000);
    5030:	40 e0       	ldi	r20, 0x00	; 0
    5032:	50 e0       	ldi	r21, 0x00	; 0
    5034:	ba 01       	movw	r22, r20
    5036:	80 e4       	ldi	r24, 0x40	; 64
    5038:	90 e0       	ldi	r25, 0x00	; 0
    503a:	0e 94 80 3e 	call	0x7d00	; 0x7d00 <eeprom_update_dword>
	
	//xWA,B
	eeprom_busy_wait();
    503e:	80 91 02 10 	lds	r24, 0x1002	; 0x801002 <__TEXT_REGION_LENGTH__+0x7f1002>
    5042:	81 fd       	sbrc	r24, 1
    5044:	fc cf       	rjmp	.-8      	; 0x503e <_Z10initMemoryv+0x8a>
	eeprom_update_float(&EEP_LUXCF_A, 1.000);
    5046:	40 e0       	ldi	r20, 0x00	; 0
    5048:	50 e0       	ldi	r21, 0x00	; 0
    504a:	60 e8       	ldi	r22, 0x80	; 128
    504c:	7f e3       	ldi	r23, 0x3F	; 63
    504e:	8c e3       	ldi	r24, 0x3C	; 60
    5050:	90 e0       	ldi	r25, 0x00	; 0
    5052:	0e 94 80 3e 	call	0x7d00	; 0x7d00 <eeprom_update_dword>
	eeprom_busy_wait();
    5056:	80 91 02 10 	lds	r24, 0x1002	; 0x801002 <__TEXT_REGION_LENGTH__+0x7f1002>
    505a:	81 fd       	sbrc	r24, 1
    505c:	fc cf       	rjmp	.-8      	; 0x5056 <_Z10initMemoryv+0xa2>
	eeprom_update_float(&EEP_LUXCF_B, 0.000);
    505e:	40 e0       	ldi	r20, 0x00	; 0
    5060:	50 e0       	ldi	r21, 0x00	; 0
    5062:	ba 01       	movw	r22, r20
    5064:	88 e3       	ldi	r24, 0x38	; 56
    5066:	90 e0       	ldi	r25, 0x00	; 0
    5068:	0e 94 80 3e 	call	0x7d00	; 0x7d00 <eeprom_update_dword>
	
	//WA,B,d
	eeprom_busy_wait();
    506c:	80 91 02 10 	lds	r24, 0x1002	; 0x801002 <__TEXT_REGION_LENGTH__+0x7f1002>
    5070:	81 fd       	sbrc	r24, 1
    5072:	fc cf       	rjmp	.-8      	; 0x506c <_Z10initMemoryv+0xb8>
	eeprom_update_float(&EEP_VELCF_A, 1.000);
    5074:	40 e0       	ldi	r20, 0x00	; 0
    5076:	50 e0       	ldi	r21, 0x00	; 0
    5078:	60 e8       	ldi	r22, 0x80	; 128
    507a:	7f e3       	ldi	r23, 0x3F	; 63
    507c:	84 e3       	ldi	r24, 0x34	; 52
    507e:	90 e0       	ldi	r25, 0x00	; 0
    5080:	0e 94 80 3e 	call	0x7d00	; 0x7d00 <eeprom_update_dword>
	eeprom_busy_wait();
    5084:	80 91 02 10 	lds	r24, 0x1002	; 0x801002 <__TEXT_REGION_LENGTH__+0x7f1002>
    5088:	81 fd       	sbrc	r24, 1
    508a:	fc cf       	rjmp	.-8      	; 0x5084 <_Z10initMemoryv+0xd0>
	eeprom_update_float(&EEP_VELCF_B, 0.000);
    508c:	40 e0       	ldi	r20, 0x00	; 0
    508e:	50 e0       	ldi	r21, 0x00	; 0
    5090:	ba 01       	movw	r22, r20
    5092:	80 e3       	ldi	r24, 0x30	; 48
    5094:	90 e0       	ldi	r25, 0x00	; 0
    5096:	0e 94 80 3e 	call	0x7d00	; 0x7d00 <eeprom_update_dword>
	eeprom_busy_wait();
    509a:	80 91 02 10 	lds	r24, 0x1002	; 0x801002 <__TEXT_REGION_LENGTH__+0x7f1002>
    509e:	81 fd       	sbrc	r24, 1
    50a0:	fc cf       	rjmp	.-8      	; 0x509a <_Z10initMemoryv+0xe6>
	eeprom_update_float(&EEP_VEL0, 1.450);
    50a2:	4a e9       	ldi	r20, 0x9A	; 154
    50a4:	59 e9       	ldi	r21, 0x99	; 153
    50a6:	69 eb       	ldi	r22, 0xB9	; 185
    50a8:	7f e3       	ldi	r23, 0x3F	; 63
    50aa:	8c e2       	ldi	r24, 0x2C	; 44
    50ac:	90 e0       	ldi	r25, 0x00	; 0
    50ae:	0e 94 80 3e 	call	0x7d00	; 0x7d00 <eeprom_update_dword>
	
	//v^U
	eeprom_busy_wait();
    50b2:	80 91 02 10 	lds	r24, 0x1002	; 0x801002 <__TEXT_REGION_LENGTH__+0x7f1002>
    50b6:	81 fd       	sbrc	r24, 1
    50b8:	fc cf       	rjmp	.-8      	; 0x50b2 <_Z10initMemoryv+0xfe>
	eeprom_update_byte(&EEP_MES_TH,'T');
    50ba:	64 e5       	ldi	r22, 0x54	; 84
    50bc:	8b e2       	ldi	r24, 0x2B	; 43
    50be:	90 e0       	ldi	r25, 0x00	; 0
    50c0:	0e 94 75 3e 	call	0x7cea	; 0x7cea <eeprom_update_byte>
	eeprom_busy_wait();
    50c4:	80 91 02 10 	lds	r24, 0x1002	; 0x801002 <__TEXT_REGION_LENGTH__+0x7f1002>
    50c8:	81 fd       	sbrc	r24, 1
    50ca:	fc cf       	rjmp	.-8      	; 0x50c4 <_Z10initMemoryv+0x110>
	eeprom_update_byte(&EEP_MES_GLB,'T');
    50cc:	64 e5       	ldi	r22, 0x54	; 84
    50ce:	8a e2       	ldi	r24, 0x2A	; 42
    50d0:	90 e0       	ldi	r25, 0x00	; 0
    50d2:	0e 94 75 3e 	call	0x7cea	; 0x7cea <eeprom_update_byte>
	eeprom_busy_wait();
    50d6:	80 91 02 10 	lds	r24, 0x1002	; 0x801002 <__TEXT_REGION_LENGTH__+0x7f1002>
    50da:	81 fd       	sbrc	r24, 1
    50dc:	fc cf       	rjmp	.-8      	; 0x50d6 <_Z10initMemoryv+0x122>
	eeprom_update_byte(&EEP_MES_VEL,'T');
    50de:	64 e5       	ldi	r22, 0x54	; 84
    50e0:	89 e2       	ldi	r24, 0x29	; 41
    50e2:	90 e0       	ldi	r25, 0x00	; 0
    50e4:	0e 94 75 3e 	call	0x7cea	; 0x7cea <eeprom_update_byte>
	eeprom_busy_wait();
    50e8:	80 91 02 10 	lds	r24, 0x1002	; 0x801002 <__TEXT_REGION_LENGTH__+0x7f1002>
    50ec:	81 fd       	sbrc	r24, 1
    50ee:	fc cf       	rjmp	.-8      	; 0x50e8 <_Z10initMemoryv+0x134>
	eeprom_update_byte(&EEP_MES_ILL,'T');
    50f0:	64 e5       	ldi	r22, 0x54	; 84
    50f2:	88 e2       	ldi	r24, 0x28	; 40
    50f4:	90 e0       	ldi	r25, 0x00	; 0
    50f6:	0e 94 75 3e 	call	0x7cea	; 0x7cea <eeprom_update_byte>
	eeprom_busy_wait();
    50fa:	80 91 02 10 	lds	r24, 0x1002	; 0x801002 <__TEXT_REGION_LENGTH__+0x7f1002>
    50fe:	81 fd       	sbrc	r24, 1
    5100:	fc cf       	rjmp	.-8      	; 0x50fa <_Z10initMemoryv+0x146>
	eeprom_update_byte(&EEP_MES_AD1,'F');
    5102:	66 e4       	ldi	r22, 0x46	; 70
    5104:	87 e2       	ldi	r24, 0x27	; 39
    5106:	90 e0       	ldi	r25, 0x00	; 0
    5108:	0e 94 75 3e 	call	0x7cea	; 0x7cea <eeprom_update_byte>
	eeprom_busy_wait();
    510c:	80 91 02 10 	lds	r24, 0x1002	; 0x801002 <__TEXT_REGION_LENGTH__+0x7f1002>
    5110:	81 fd       	sbrc	r24, 1
    5112:	fc cf       	rjmp	.-8      	; 0x510c <_Z10initMemoryv+0x158>
	eeprom_update_byte(&EEP_MES_AD2,'F');
    5114:	66 e4       	ldi	r22, 0x46	; 70
    5116:	86 e2       	ldi	r24, 0x26	; 38
    5118:	90 e0       	ldi	r25, 0x00	; 0
    511a:	0e 94 75 3e 	call	0x7cea	; 0x7cea <eeprom_update_byte>
	eeprom_busy_wait();
    511e:	80 91 02 10 	lds	r24, 0x1002	; 0x801002 <__TEXT_REGION_LENGTH__+0x7f1002>
    5122:	81 fd       	sbrc	r24, 1
    5124:	fc cf       	rjmp	.-8      	; 0x511e <_Z10initMemoryv+0x16a>
	eeprom_update_byte(&EEP_MES_AD3,'F');
    5126:	66 e4       	ldi	r22, 0x46	; 70
    5128:	85 e2       	ldi	r24, 0x25	; 37
    512a:	90 e0       	ldi	r25, 0x00	; 0
    512c:	0e 94 75 3e 	call	0x7cea	; 0x7cea <eeprom_update_byte>
	eeprom_busy_wait();
    5130:	80 91 02 10 	lds	r24, 0x1002	; 0x801002 <__TEXT_REGION_LENGTH__+0x7f1002>
    5134:	81 fd       	sbrc	r24, 1
    5136:	fc cf       	rjmp	.-8      	; 0x5130 <_Z10initMemoryv+0x17c>
	eeprom_update_byte(&EEP_MES_PRX,'F');
    5138:	66 e4       	ldi	r22, 0x46	; 70
    513a:	84 e2       	ldi	r24, 0x24	; 36
    513c:	90 e0       	ldi	r25, 0x00	; 0
    513e:	0e 94 75 3e 	call	0x7cea	; 0x7cea <eeprom_update_byte>
	
	//vu
	eeprom_busy_wait();
    5142:	80 91 02 10 	lds	r24, 0x1002	; 0x801002 <__TEXT_REGION_LENGTH__+0x7f1002>
    5146:	81 fd       	sbrc	r24, 1
    5148:	fc cf       	rjmp	.-8      	; 0x5142 <_Z10initMemoryv+0x18e>
	eeprom_update_word(&EEP_STP_TH, 60);
    514a:	6c e3       	ldi	r22, 0x3C	; 60
    514c:	70 e0       	ldi	r23, 0x00	; 0
    514e:	82 e2       	ldi	r24, 0x22	; 34
    5150:	90 e0       	ldi	r25, 0x00	; 0
    5152:	0e 94 8c 3e 	call	0x7d18	; 0x7d18 <eeprom_update_word>
	eeprom_busy_wait();
    5156:	80 91 02 10 	lds	r24, 0x1002	; 0x801002 <__TEXT_REGION_LENGTH__+0x7f1002>
    515a:	81 fd       	sbrc	r24, 1
    515c:	fc cf       	rjmp	.-8      	; 0x5156 <_Z10initMemoryv+0x1a2>
	eeprom_update_word(&EEP_STP_GLB, 60);
    515e:	6c e3       	ldi	r22, 0x3C	; 60
    5160:	70 e0       	ldi	r23, 0x00	; 0
    5162:	80 e2       	ldi	r24, 0x20	; 32
    5164:	90 e0       	ldi	r25, 0x00	; 0
    5166:	0e 94 8c 3e 	call	0x7d18	; 0x7d18 <eeprom_update_word>
	eeprom_busy_wait();
    516a:	80 91 02 10 	lds	r24, 0x1002	; 0x801002 <__TEXT_REGION_LENGTH__+0x7f1002>
    516e:	81 fd       	sbrc	r24, 1
    5170:	fc cf       	rjmp	.-8      	; 0x516a <_Z10initMemoryv+0x1b6>
	eeprom_update_word(&EEP_STP_VEL, 60);
    5172:	6c e3       	ldi	r22, 0x3C	; 60
    5174:	70 e0       	ldi	r23, 0x00	; 0
    5176:	8e e1       	ldi	r24, 0x1E	; 30
    5178:	90 e0       	ldi	r25, 0x00	; 0
    517a:	0e 94 8c 3e 	call	0x7d18	; 0x7d18 <eeprom_update_word>
	eeprom_busy_wait();
    517e:	80 91 02 10 	lds	r24, 0x1002	; 0x801002 <__TEXT_REGION_LENGTH__+0x7f1002>
    5182:	81 fd       	sbrc	r24, 1
    5184:	fc cf       	rjmp	.-8      	; 0x517e <_Z10initMemoryv+0x1ca>
	eeprom_update_word(&EEP_STP_ILL, 60);
    5186:	6c e3       	ldi	r22, 0x3C	; 60
    5188:	70 e0       	ldi	r23, 0x00	; 0
    518a:	8c e1       	ldi	r24, 0x1C	; 28
    518c:	90 e0       	ldi	r25, 0x00	; 0
    518e:	0e 94 8c 3e 	call	0x7d18	; 0x7d18 <eeprom_update_word>
	eeprom_busy_wait();
    5192:	80 91 02 10 	lds	r24, 0x1002	; 0x801002 <__TEXT_REGION_LENGTH__+0x7f1002>
    5196:	81 fd       	sbrc	r24, 1
    5198:	fc cf       	rjmp	.-8      	; 0x5192 <_Z10initMemoryv+0x1de>
	eeprom_update_word(&EEP_STP_AD1, 60);
    519a:	6c e3       	ldi	r22, 0x3C	; 60
    519c:	70 e0       	ldi	r23, 0x00	; 0
    519e:	8a e1       	ldi	r24, 0x1A	; 26
    51a0:	90 e0       	ldi	r25, 0x00	; 0
    51a2:	0e 94 8c 3e 	call	0x7d18	; 0x7d18 <eeprom_update_word>
	eeprom_busy_wait();
    51a6:	80 91 02 10 	lds	r24, 0x1002	; 0x801002 <__TEXT_REGION_LENGTH__+0x7f1002>
    51aa:	81 fd       	sbrc	r24, 1
    51ac:	fc cf       	rjmp	.-8      	; 0x51a6 <_Z10initMemoryv+0x1f2>
	eeprom_update_word(&EEP_STP_AD2, 60);
    51ae:	6c e3       	ldi	r22, 0x3C	; 60
    51b0:	70 e0       	ldi	r23, 0x00	; 0
    51b2:	88 e1       	ldi	r24, 0x18	; 24
    51b4:	90 e0       	ldi	r25, 0x00	; 0
    51b6:	0e 94 8c 3e 	call	0x7d18	; 0x7d18 <eeprom_update_word>
	eeprom_busy_wait();
    51ba:	80 91 02 10 	lds	r24, 0x1002	; 0x801002 <__TEXT_REGION_LENGTH__+0x7f1002>
    51be:	81 fd       	sbrc	r24, 1
    51c0:	fc cf       	rjmp	.-8      	; 0x51ba <_Z10initMemoryv+0x206>
	eeprom_update_word(&EEP_STP_AD3, 60);
    51c2:	6c e3       	ldi	r22, 0x3C	; 60
    51c4:	70 e0       	ldi	r23, 0x00	; 0
    51c6:	86 e1       	ldi	r24, 0x16	; 22
    51c8:	90 e0       	ldi	r25, 0x00	; 0
    51ca:	0e 94 8c 3e 	call	0x7d18	; 0x7d18 <eeprom_update_word>
	
	//MJn
	eeprom_busy_wait();
    51ce:	80 91 02 10 	lds	r24, 0x1002	; 0x801002 <__TEXT_REGION_LENGTH__+0x7f1002>
    51d2:	81 fd       	sbrc	r24, 1
    51d4:	fc cf       	rjmp	.-8      	; 0x51ce <_Z10initMemoryv+0x21a>
	eeprom_write_byte(&EEP_START_AUTO,'F');
    51d6:	66 e4       	ldi	r22, 0x46	; 70
    51d8:	85 e1       	ldi	r24, 0x15	; 21
    51da:	90 e0       	ldi	r25, 0x00	; 0
    51dc:	0e 94 92 3e 	call	0x7d24	; 0x7d24 <eeprom_write_byte>
	
	//O
	eeprom_busy_wait();
    51e0:	80 91 02 10 	lds	r24, 0x1002	; 0x801002 <__TEXT_REGION_LENGTH__+0x7f1002>
    51e4:	81 fd       	sbrc	r24, 1
    51e6:	fc cf       	rjmp	.-8      	; 0x51e0 <_Z10initMemoryv+0x22c>
	eeprom_update_block("ML00000", EEP_NAME, 20);
    51e8:	44 e1       	ldi	r20, 0x14	; 20
    51ea:	50 e0       	ldi	r21, 0x00	; 0
    51ec:	60 e0       	ldi	r22, 0x00	; 0
    51ee:	70 e0       	ldi	r23, 0x00	; 0
    51f0:	8f e5       	ldi	r24, 0x5F	; 95
    51f2:	91 e6       	ldi	r25, 0x61	; 97
    51f4:	0e 94 65 3e 	call	0x7cca	; 0x7cca <eeprom_update_block>
	
	//tO
	eeprom_busy_wait();
    51f8:	80 91 02 10 	lds	r24, 0x1002	; 0x801002 <__TEXT_REGION_LENGTH__+0x7f1002>
    51fc:	81 fd       	sbrc	r24, 1
    51fe:	fc cf       	rjmp	.-8      	; 0x51f8 <_Z10initMemoryv+0x244>
	eeprom_write_byte(&EEP_INITFLAG,'T');
    5200:	64 e5       	ldi	r22, 0x54	; 84
    5202:	88 e5       	ldi	r24, 0x58	; 88
    5204:	90 e0       	ldi	r25, 0x00	; 0
    5206:	0e 94 92 3e 	call	0x7d24	; 0x7d24 <eeprom_write_byte>
    520a:	08 95       	ret

0000520c <_ZN9my_eeprom19SetCorrectionFactorEPKc>:
}

//W
void my_eeprom::SetCorrectionFactor(const char data[])
{
    520c:	cf 92       	push	r12
    520e:	df 92       	push	r13
    5210:	ef 92       	push	r14
    5212:	ff 92       	push	r15
    5214:	0f 93       	push	r16
    5216:	1f 93       	push	r17
    5218:	cf 93       	push	r28
    521a:	df 93       	push	r29
    521c:	cd b7       	in	r28, 0x3d	; 61
    521e:	de b7       	in	r29, 0x3e	; 62
    5220:	25 97       	sbiw	r28, 0x05	; 5
    5222:	cd bf       	out	0x3d, r28	; 61
    5224:	de bf       	out	0x3e, r29	; 62
    5226:	8c 01       	movw	r16, r24
	float buff;
	char num[5];
	num[4] = '\0';
    5228:	1d 82       	std	Y+5, r1	; 0x05
	
	//xWA
	strncpy(num, data + 3, 4);
    522a:	bc 01       	movw	r22, r24
    522c:	6d 5f       	subi	r22, 0xFD	; 253
    522e:	7f 4f       	sbci	r23, 0xFF	; 255
    5230:	44 e0       	ldi	r20, 0x04	; 4
    5232:	50 e0       	ldi	r21, 0x00	; 0
    5234:	ce 01       	movw	r24, r28
    5236:	01 96       	adiw	r24, 0x01	; 1
    5238:	0e 94 0c 39 	call	0x7218	; 0x7218 <strncpy>
	buff = 0.001 * atol(num);
    523c:	ce 01       	movw	r24, r28
    523e:	01 96       	adiw	r24, 0x01	; 1
    5240:	0e 94 d7 38 	call	0x71ae	; 0x71ae <atol>
    5244:	0e 94 19 35 	call	0x6a32	; 0x6a32 <__floatsisf>
    5248:	2f e6       	ldi	r18, 0x6F	; 111
    524a:	32 e1       	ldi	r19, 0x12	; 18
    524c:	43 e8       	ldi	r20, 0x83	; 131
    524e:	5a e3       	ldi	r21, 0x3A	; 58
    5250:	0e 94 bb 36 	call	0x6d76	; 0x6d76 <__mulsf3>
    5254:	6b 01       	movw	r12, r22
    5256:	7c 01       	movw	r14, r24
	if(0.8 <= buff && buff <= 1.2)
    5258:	2d ec       	ldi	r18, 0xCD	; 205
    525a:	3c ec       	ldi	r19, 0xCC	; 204
    525c:	4c e4       	ldi	r20, 0x4C	; 76
    525e:	5f e3       	ldi	r21, 0x3F	; 63
    5260:	0e 94 f0 35 	call	0x6be0	; 0x6be0 <__gesf2>
    5264:	88 23       	and	r24, r24
    5266:	e4 f0       	brlt	.+56     	; 0x52a0 <_ZN9my_eeprom19SetCorrectionFactorEPKc+0x94>
    5268:	2a e9       	ldi	r18, 0x9A	; 154
    526a:	39 e9       	ldi	r19, 0x99	; 153
    526c:	49 e9       	ldi	r20, 0x99	; 153
    526e:	5f e3       	ldi	r21, 0x3F	; 63
    5270:	c7 01       	movw	r24, r14
    5272:	b6 01       	movw	r22, r12
    5274:	0e 94 66 34 	call	0x68cc	; 0x68cc <__cmpsf2>
    5278:	18 16       	cp	r1, r24
    527a:	94 f0       	brlt	.+36     	; 0x52a0 <_ZN9my_eeprom19SetCorrectionFactorEPKc+0x94>
	{
		my_eeprom::Cf_dbtA = buff;
    527c:	c0 92 33 60 	sts	0x6033, r12	; 0x806033 <_ZN9my_eeprom7Cf_dbtAE>
    5280:	d0 92 34 60 	sts	0x6034, r13	; 0x806034 <_ZN9my_eeprom7Cf_dbtAE+0x1>
    5284:	e0 92 35 60 	sts	0x6035, r14	; 0x806035 <_ZN9my_eeprom7Cf_dbtAE+0x2>
    5288:	f0 92 36 60 	sts	0x6036, r15	; 0x806036 <_ZN9my_eeprom7Cf_dbtAE+0x3>
		eeprom_busy_wait();
    528c:	80 91 02 10 	lds	r24, 0x1002	; 0x801002 <__TEXT_REGION_LENGTH__+0x7f1002>
    5290:	81 fd       	sbrc	r24, 1
    5292:	fc cf       	rjmp	.-8      	; 0x528c <_ZN9my_eeprom19SetCorrectionFactorEPKc+0x80>
		eeprom_update_float (&EEP_DBTCF_A, buff);
    5294:	b7 01       	movw	r22, r14
    5296:	a6 01       	movw	r20, r12
    5298:	84 e5       	ldi	r24, 0x54	; 84
    529a:	90 e0       	ldi	r25, 0x00	; 0
    529c:	0e 94 80 3e 	call	0x7d00	; 0x7d00 <eeprom_update_dword>
	}
	//xWB
	strncpy(num, data + 7, 4);
    52a0:	44 e0       	ldi	r20, 0x04	; 4
    52a2:	50 e0       	ldi	r21, 0x00	; 0
    52a4:	b8 01       	movw	r22, r16
    52a6:	69 5f       	subi	r22, 0xF9	; 249
    52a8:	7f 4f       	sbci	r23, 0xFF	; 255
    52aa:	ce 01       	movw	r24, r28
    52ac:	01 96       	adiw	r24, 0x01	; 1
    52ae:	0e 94 0c 39 	call	0x7218	; 0x7218 <strncpy>
	buff = 0.01 * atol(num);
    52b2:	ce 01       	movw	r24, r28
    52b4:	01 96       	adiw	r24, 0x01	; 1
    52b6:	0e 94 d7 38 	call	0x71ae	; 0x71ae <atol>
    52ba:	0e 94 19 35 	call	0x6a32	; 0x6a32 <__floatsisf>
    52be:	2a e0       	ldi	r18, 0x0A	; 10
    52c0:	37 ed       	ldi	r19, 0xD7	; 215
    52c2:	43 e2       	ldi	r20, 0x23	; 35
    52c4:	5c e3       	ldi	r21, 0x3C	; 60
    52c6:	0e 94 bb 36 	call	0x6d76	; 0x6d76 <__mulsf3>
    52ca:	6b 01       	movw	r12, r22
    52cc:	7c 01       	movw	r14, r24
	if(-3.0 <= buff && buff <= 3.0)
    52ce:	20 e0       	ldi	r18, 0x00	; 0
    52d0:	30 e0       	ldi	r19, 0x00	; 0
    52d2:	40 e4       	ldi	r20, 0x40	; 64
    52d4:	50 ec       	ldi	r21, 0xC0	; 192
    52d6:	0e 94 f0 35 	call	0x6be0	; 0x6be0 <__gesf2>
    52da:	88 23       	and	r24, r24
    52dc:	e4 f0       	brlt	.+56     	; 0x5316 <_ZN9my_eeprom19SetCorrectionFactorEPKc+0x10a>
    52de:	20 e0       	ldi	r18, 0x00	; 0
    52e0:	30 e0       	ldi	r19, 0x00	; 0
    52e2:	40 e4       	ldi	r20, 0x40	; 64
    52e4:	50 e4       	ldi	r21, 0x40	; 64
    52e6:	c7 01       	movw	r24, r14
    52e8:	b6 01       	movw	r22, r12
    52ea:	0e 94 66 34 	call	0x68cc	; 0x68cc <__cmpsf2>
    52ee:	18 16       	cp	r1, r24
    52f0:	94 f0       	brlt	.+36     	; 0x5316 <_ZN9my_eeprom19SetCorrectionFactorEPKc+0x10a>
	{
		my_eeprom::Cf_dbtB = buff;
    52f2:	c0 92 a5 63 	sts	0x63A5, r12	; 0x8063a5 <_ZN9my_eeprom7Cf_dbtBE>
    52f6:	d0 92 a6 63 	sts	0x63A6, r13	; 0x8063a6 <_ZN9my_eeprom7Cf_dbtBE+0x1>
    52fa:	e0 92 a7 63 	sts	0x63A7, r14	; 0x8063a7 <_ZN9my_eeprom7Cf_dbtBE+0x2>
    52fe:	f0 92 a8 63 	sts	0x63A8, r15	; 0x8063a8 <_ZN9my_eeprom7Cf_dbtBE+0x3>
		eeprom_busy_wait();
    5302:	80 91 02 10 	lds	r24, 0x1002	; 0x801002 <__TEXT_REGION_LENGTH__+0x7f1002>
    5306:	81 fd       	sbrc	r24, 1
    5308:	fc cf       	rjmp	.-8      	; 0x5302 <_ZN9my_eeprom19SetCorrectionFactorEPKc+0xf6>
		eeprom_update_float (&EEP_DBTCF_B, buff);
    530a:	b7 01       	movw	r22, r14
    530c:	a6 01       	movw	r20, r12
    530e:	80 e5       	ldi	r24, 0x50	; 80
    5310:	90 e0       	ldi	r25, 0x00	; 0
    5312:	0e 94 80 3e 	call	0x7d00	; 0x7d00 <eeprom_update_dword>
	}
	
	//xWA
	strncpy(num, data + 11, 4);
    5316:	44 e0       	ldi	r20, 0x04	; 4
    5318:	50 e0       	ldi	r21, 0x00	; 0
    531a:	b8 01       	movw	r22, r16
    531c:	65 5f       	subi	r22, 0xF5	; 245
    531e:	7f 4f       	sbci	r23, 0xFF	; 255
    5320:	ce 01       	movw	r24, r28
    5322:	01 96       	adiw	r24, 0x01	; 1
    5324:	0e 94 0c 39 	call	0x7218	; 0x7218 <strncpy>
	buff = 0.001 * atol(num);
    5328:	ce 01       	movw	r24, r28
    532a:	01 96       	adiw	r24, 0x01	; 1
    532c:	0e 94 d7 38 	call	0x71ae	; 0x71ae <atol>
    5330:	0e 94 19 35 	call	0x6a32	; 0x6a32 <__floatsisf>
    5334:	2f e6       	ldi	r18, 0x6F	; 111
    5336:	32 e1       	ldi	r19, 0x12	; 18
    5338:	43 e8       	ldi	r20, 0x83	; 131
    533a:	5a e3       	ldi	r21, 0x3A	; 58
    533c:	0e 94 bb 36 	call	0x6d76	; 0x6d76 <__mulsf3>
    5340:	6b 01       	movw	r12, r22
    5342:	7c 01       	movw	r14, r24
	if(0.8 <= buff && buff <= 1.2)
    5344:	2d ec       	ldi	r18, 0xCD	; 205
    5346:	3c ec       	ldi	r19, 0xCC	; 204
    5348:	4c e4       	ldi	r20, 0x4C	; 76
    534a:	5f e3       	ldi	r21, 0x3F	; 63
    534c:	0e 94 f0 35 	call	0x6be0	; 0x6be0 <__gesf2>
    5350:	88 23       	and	r24, r24
    5352:	e4 f0       	brlt	.+56     	; 0x538c <_ZN9my_eeprom19SetCorrectionFactorEPKc+0x180>
    5354:	2a e9       	ldi	r18, 0x9A	; 154
    5356:	39 e9       	ldi	r19, 0x99	; 153
    5358:	49 e9       	ldi	r20, 0x99	; 153
    535a:	5f e3       	ldi	r21, 0x3F	; 63
    535c:	c7 01       	movw	r24, r14
    535e:	b6 01       	movw	r22, r12
    5360:	0e 94 66 34 	call	0x68cc	; 0x68cc <__cmpsf2>
    5364:	18 16       	cp	r1, r24
    5366:	94 f0       	brlt	.+36     	; 0x538c <_ZN9my_eeprom19SetCorrectionFactorEPKc+0x180>
	{
		my_eeprom::Cf_hmdA = buff;
    5368:	c0 92 2f 60 	sts	0x602F, r12	; 0x80602f <_ZN9my_eeprom7Cf_hmdAE>
    536c:	d0 92 30 60 	sts	0x6030, r13	; 0x806030 <_ZN9my_eeprom7Cf_hmdAE+0x1>
    5370:	e0 92 31 60 	sts	0x6031, r14	; 0x806031 <_ZN9my_eeprom7Cf_hmdAE+0x2>
    5374:	f0 92 32 60 	sts	0x6032, r15	; 0x806032 <_ZN9my_eeprom7Cf_hmdAE+0x3>
		eeprom_busy_wait();
    5378:	80 91 02 10 	lds	r24, 0x1002	; 0x801002 <__TEXT_REGION_LENGTH__+0x7f1002>
    537c:	81 fd       	sbrc	r24, 1
    537e:	fc cf       	rjmp	.-8      	; 0x5378 <_ZN9my_eeprom19SetCorrectionFactorEPKc+0x16c>
		eeprom_update_float (&EEP_HMDCF_A, buff);
    5380:	b7 01       	movw	r22, r14
    5382:	a6 01       	movw	r20, r12
    5384:	8c e4       	ldi	r24, 0x4C	; 76
    5386:	90 e0       	ldi	r25, 0x00	; 0
    5388:	0e 94 80 3e 	call	0x7d00	; 0x7d00 <eeprom_update_dword>
	}
	//xWB
	strncpy(num, data + 15, 4);
    538c:	44 e0       	ldi	r20, 0x04	; 4
    538e:	50 e0       	ldi	r21, 0x00	; 0
    5390:	b8 01       	movw	r22, r16
    5392:	61 5f       	subi	r22, 0xF1	; 241
    5394:	7f 4f       	sbci	r23, 0xFF	; 255
    5396:	ce 01       	movw	r24, r28
    5398:	01 96       	adiw	r24, 0x01	; 1
    539a:	0e 94 0c 39 	call	0x7218	; 0x7218 <strncpy>
	buff = 0.01 * atol(num);
    539e:	ce 01       	movw	r24, r28
    53a0:	01 96       	adiw	r24, 0x01	; 1
    53a2:	0e 94 d7 38 	call	0x71ae	; 0x71ae <atol>
    53a6:	0e 94 19 35 	call	0x6a32	; 0x6a32 <__floatsisf>
    53aa:	2a e0       	ldi	r18, 0x0A	; 10
    53ac:	37 ed       	ldi	r19, 0xD7	; 215
    53ae:	43 e2       	ldi	r20, 0x23	; 35
    53b0:	5c e3       	ldi	r21, 0x3C	; 60
    53b2:	0e 94 bb 36 	call	0x6d76	; 0x6d76 <__mulsf3>
    53b6:	6b 01       	movw	r12, r22
    53b8:	7c 01       	movw	r14, r24
	if(-9.99 <= buff && buff <= 9.99)
    53ba:	2a e0       	ldi	r18, 0x0A	; 10
    53bc:	37 ed       	ldi	r19, 0xD7	; 215
    53be:	4f e1       	ldi	r20, 0x1F	; 31
    53c0:	51 ec       	ldi	r21, 0xC1	; 193
    53c2:	0e 94 f0 35 	call	0x6be0	; 0x6be0 <__gesf2>
    53c6:	88 23       	and	r24, r24
    53c8:	e4 f0       	brlt	.+56     	; 0x5402 <_ZN9my_eeprom19SetCorrectionFactorEPKc+0x1f6>
    53ca:	2a e0       	ldi	r18, 0x0A	; 10
    53cc:	37 ed       	ldi	r19, 0xD7	; 215
    53ce:	4f e1       	ldi	r20, 0x1F	; 31
    53d0:	51 e4       	ldi	r21, 0x41	; 65
    53d2:	c7 01       	movw	r24, r14
    53d4:	b6 01       	movw	r22, r12
    53d6:	0e 94 66 34 	call	0x68cc	; 0x68cc <__cmpsf2>
    53da:	18 16       	cp	r1, r24
    53dc:	94 f0       	brlt	.+36     	; 0x5402 <_ZN9my_eeprom19SetCorrectionFactorEPKc+0x1f6>
	{
		my_eeprom::Cf_hmdB = buff;
    53de:	c0 92 a1 63 	sts	0x63A1, r12	; 0x8063a1 <_ZN9my_eeprom7Cf_hmdBE>
    53e2:	d0 92 a2 63 	sts	0x63A2, r13	; 0x8063a2 <_ZN9my_eeprom7Cf_hmdBE+0x1>
    53e6:	e0 92 a3 63 	sts	0x63A3, r14	; 0x8063a3 <_ZN9my_eeprom7Cf_hmdBE+0x2>
    53ea:	f0 92 a4 63 	sts	0x63A4, r15	; 0x8063a4 <_ZN9my_eeprom7Cf_hmdBE+0x3>
		eeprom_busy_wait();
    53ee:	80 91 02 10 	lds	r24, 0x1002	; 0x801002 <__TEXT_REGION_LENGTH__+0x7f1002>
    53f2:	81 fd       	sbrc	r24, 1
    53f4:	fc cf       	rjmp	.-8      	; 0x53ee <_ZN9my_eeprom19SetCorrectionFactorEPKc+0x1e2>
		eeprom_update_float (&EEP_HMDCF_B, buff);
    53f6:	b7 01       	movw	r22, r14
    53f8:	a6 01       	movw	r20, r12
    53fa:	88 e4       	ldi	r24, 0x48	; 72
    53fc:	90 e0       	ldi	r25, 0x00	; 0
    53fe:	0e 94 80 3e 	call	0x7d00	; 0x7d00 <eeprom_update_dword>
	}
	
	//O[uxWA
	strncpy(num, data + 19, 4);
    5402:	44 e0       	ldi	r20, 0x04	; 4
    5404:	50 e0       	ldi	r21, 0x00	; 0
    5406:	b8 01       	movw	r22, r16
    5408:	6d 5e       	subi	r22, 0xED	; 237
    540a:	7f 4f       	sbci	r23, 0xFF	; 255
    540c:	ce 01       	movw	r24, r28
    540e:	01 96       	adiw	r24, 0x01	; 1
    5410:	0e 94 0c 39 	call	0x7218	; 0x7218 <strncpy>
	buff = 0.001 * atol(num);
    5414:	ce 01       	movw	r24, r28
    5416:	01 96       	adiw	r24, 0x01	; 1
    5418:	0e 94 d7 38 	call	0x71ae	; 0x71ae <atol>
    541c:	0e 94 19 35 	call	0x6a32	; 0x6a32 <__floatsisf>
    5420:	2f e6       	ldi	r18, 0x6F	; 111
    5422:	32 e1       	ldi	r19, 0x12	; 18
    5424:	43 e8       	ldi	r20, 0x83	; 131
    5426:	5a e3       	ldi	r21, 0x3A	; 58
    5428:	0e 94 bb 36 	call	0x6d76	; 0x6d76 <__mulsf3>
    542c:	6b 01       	movw	r12, r22
    542e:	7c 01       	movw	r14, r24
	if(0.8 <= buff && buff <= 1.2)
    5430:	2d ec       	ldi	r18, 0xCD	; 205
    5432:	3c ec       	ldi	r19, 0xCC	; 204
    5434:	4c e4       	ldi	r20, 0x4C	; 76
    5436:	5f e3       	ldi	r21, 0x3F	; 63
    5438:	0e 94 f0 35 	call	0x6be0	; 0x6be0 <__gesf2>
    543c:	88 23       	and	r24, r24
    543e:	e4 f0       	brlt	.+56     	; 0x5478 <_ZN9my_eeprom19SetCorrectionFactorEPKc+0x26c>
    5440:	2a e9       	ldi	r18, 0x9A	; 154
    5442:	39 e9       	ldi	r19, 0x99	; 153
    5444:	49 e9       	ldi	r20, 0x99	; 153
    5446:	5f e3       	ldi	r21, 0x3F	; 63
    5448:	c7 01       	movw	r24, r14
    544a:	b6 01       	movw	r22, r12
    544c:	0e 94 66 34 	call	0x68cc	; 0x68cc <__cmpsf2>
    5450:	18 16       	cp	r1, r24
    5452:	94 f0       	brlt	.+36     	; 0x5478 <_ZN9my_eeprom19SetCorrectionFactorEPKc+0x26c>
	{
		my_eeprom::Cf_glbA = buff;
    5454:	c0 92 2b 60 	sts	0x602B, r12	; 0x80602b <_ZN9my_eeprom7Cf_glbAE>
    5458:	d0 92 2c 60 	sts	0x602C, r13	; 0x80602c <_ZN9my_eeprom7Cf_glbAE+0x1>
    545c:	e0 92 2d 60 	sts	0x602D, r14	; 0x80602d <_ZN9my_eeprom7Cf_glbAE+0x2>
    5460:	f0 92 2e 60 	sts	0x602E, r15	; 0x80602e <_ZN9my_eeprom7Cf_glbAE+0x3>
		eeprom_busy_wait();
    5464:	80 91 02 10 	lds	r24, 0x1002	; 0x801002 <__TEXT_REGION_LENGTH__+0x7f1002>
    5468:	81 fd       	sbrc	r24, 1
    546a:	fc cf       	rjmp	.-8      	; 0x5464 <_ZN9my_eeprom19SetCorrectionFactorEPKc+0x258>
		eeprom_update_float (&EEP_GLBCF_A, buff);
    546c:	b7 01       	movw	r22, r14
    546e:	a6 01       	movw	r20, r12
    5470:	84 e4       	ldi	r24, 0x44	; 68
    5472:	90 e0       	ldi	r25, 0x00	; 0
    5474:	0e 94 80 3e 	call	0x7d00	; 0x7d00 <eeprom_update_dword>
	}
	//O[uxWB
	strncpy(num, data + 23, 4);
    5478:	44 e0       	ldi	r20, 0x04	; 4
    547a:	50 e0       	ldi	r21, 0x00	; 0
    547c:	b8 01       	movw	r22, r16
    547e:	69 5e       	subi	r22, 0xE9	; 233
    5480:	7f 4f       	sbci	r23, 0xFF	; 255
    5482:	ce 01       	movw	r24, r28
    5484:	01 96       	adiw	r24, 0x01	; 1
    5486:	0e 94 0c 39 	call	0x7218	; 0x7218 <strncpy>
	buff = 0.01 * atol(num);
    548a:	ce 01       	movw	r24, r28
    548c:	01 96       	adiw	r24, 0x01	; 1
    548e:	0e 94 d7 38 	call	0x71ae	; 0x71ae <atol>
    5492:	0e 94 19 35 	call	0x6a32	; 0x6a32 <__floatsisf>
    5496:	2a e0       	ldi	r18, 0x0A	; 10
    5498:	37 ed       	ldi	r19, 0xD7	; 215
    549a:	43 e2       	ldi	r20, 0x23	; 35
    549c:	5c e3       	ldi	r21, 0x3C	; 60
    549e:	0e 94 bb 36 	call	0x6d76	; 0x6d76 <__mulsf3>
    54a2:	6b 01       	movw	r12, r22
    54a4:	7c 01       	movw	r14, r24
	if(-3.0 <= buff && buff <= 3.0)
    54a6:	20 e0       	ldi	r18, 0x00	; 0
    54a8:	30 e0       	ldi	r19, 0x00	; 0
    54aa:	40 e4       	ldi	r20, 0x40	; 64
    54ac:	50 ec       	ldi	r21, 0xC0	; 192
    54ae:	0e 94 f0 35 	call	0x6be0	; 0x6be0 <__gesf2>
    54b2:	88 23       	and	r24, r24
    54b4:	e4 f0       	brlt	.+56     	; 0x54ee <_ZN9my_eeprom19SetCorrectionFactorEPKc+0x2e2>
    54b6:	20 e0       	ldi	r18, 0x00	; 0
    54b8:	30 e0       	ldi	r19, 0x00	; 0
    54ba:	40 e4       	ldi	r20, 0x40	; 64
    54bc:	50 e4       	ldi	r21, 0x40	; 64
    54be:	c7 01       	movw	r24, r14
    54c0:	b6 01       	movw	r22, r12
    54c2:	0e 94 66 34 	call	0x68cc	; 0x68cc <__cmpsf2>
    54c6:	18 16       	cp	r1, r24
    54c8:	94 f0       	brlt	.+36     	; 0x54ee <_ZN9my_eeprom19SetCorrectionFactorEPKc+0x2e2>
	{
		my_eeprom::Cf_glbB = buff;
    54ca:	c0 92 9d 63 	sts	0x639D, r12	; 0x80639d <_ZN9my_eeprom7Cf_glbBE>
    54ce:	d0 92 9e 63 	sts	0x639E, r13	; 0x80639e <_ZN9my_eeprom7Cf_glbBE+0x1>
    54d2:	e0 92 9f 63 	sts	0x639F, r14	; 0x80639f <_ZN9my_eeprom7Cf_glbBE+0x2>
    54d6:	f0 92 a0 63 	sts	0x63A0, r15	; 0x8063a0 <_ZN9my_eeprom7Cf_glbBE+0x3>
		eeprom_busy_wait();
    54da:	80 91 02 10 	lds	r24, 0x1002	; 0x801002 <__TEXT_REGION_LENGTH__+0x7f1002>
    54de:	81 fd       	sbrc	r24, 1
    54e0:	fc cf       	rjmp	.-8      	; 0x54da <_ZN9my_eeprom19SetCorrectionFactorEPKc+0x2ce>
		eeprom_update_float (&EEP_GLBCF_B, buff);
    54e2:	b7 01       	movw	r22, r14
    54e4:	a6 01       	movw	r20, r12
    54e6:	80 e4       	ldi	r24, 0x40	; 64
    54e8:	90 e0       	ldi	r25, 0x00	; 0
    54ea:	0e 94 80 3e 	call	0x7d00	; 0x7d00 <eeprom_update_dword>
	}
	
	//xWA
	strncpy(num, data + 27, 4);
    54ee:	44 e0       	ldi	r20, 0x04	; 4
    54f0:	50 e0       	ldi	r21, 0x00	; 0
    54f2:	b8 01       	movw	r22, r16
    54f4:	65 5e       	subi	r22, 0xE5	; 229
    54f6:	7f 4f       	sbci	r23, 0xFF	; 255
    54f8:	ce 01       	movw	r24, r28
    54fa:	01 96       	adiw	r24, 0x01	; 1
    54fc:	0e 94 0c 39 	call	0x7218	; 0x7218 <strncpy>
	buff = 0.001 * atol(num);
    5500:	ce 01       	movw	r24, r28
    5502:	01 96       	adiw	r24, 0x01	; 1
    5504:	0e 94 d7 38 	call	0x71ae	; 0x71ae <atol>
    5508:	0e 94 19 35 	call	0x6a32	; 0x6a32 <__floatsisf>
    550c:	2f e6       	ldi	r18, 0x6F	; 111
    550e:	32 e1       	ldi	r19, 0x12	; 18
    5510:	43 e8       	ldi	r20, 0x83	; 131
    5512:	5a e3       	ldi	r21, 0x3A	; 58
    5514:	0e 94 bb 36 	call	0x6d76	; 0x6d76 <__mulsf3>
    5518:	6b 01       	movw	r12, r22
    551a:	7c 01       	movw	r14, r24
	if(0.8 <= buff && buff <= 1.2)
    551c:	2d ec       	ldi	r18, 0xCD	; 205
    551e:	3c ec       	ldi	r19, 0xCC	; 204
    5520:	4c e4       	ldi	r20, 0x4C	; 76
    5522:	5f e3       	ldi	r21, 0x3F	; 63
    5524:	0e 94 f0 35 	call	0x6be0	; 0x6be0 <__gesf2>
    5528:	88 23       	and	r24, r24
    552a:	e4 f0       	brlt	.+56     	; 0x5564 <_ZN9my_eeprom19SetCorrectionFactorEPKc+0x358>
    552c:	2a e9       	ldi	r18, 0x9A	; 154
    552e:	39 e9       	ldi	r19, 0x99	; 153
    5530:	49 e9       	ldi	r20, 0x99	; 153
    5532:	5f e3       	ldi	r21, 0x3F	; 63
    5534:	c7 01       	movw	r24, r14
    5536:	b6 01       	movw	r22, r12
    5538:	0e 94 66 34 	call	0x68cc	; 0x68cc <__cmpsf2>
    553c:	18 16       	cp	r1, r24
    553e:	94 f0       	brlt	.+36     	; 0x5564 <_ZN9my_eeprom19SetCorrectionFactorEPKc+0x358>
	{
		my_eeprom::Cf_luxA = buff;
    5540:	c0 92 27 60 	sts	0x6027, r12	; 0x806027 <_ZN9my_eeprom7Cf_luxAE>
    5544:	d0 92 28 60 	sts	0x6028, r13	; 0x806028 <_ZN9my_eeprom7Cf_luxAE+0x1>
    5548:	e0 92 29 60 	sts	0x6029, r14	; 0x806029 <_ZN9my_eeprom7Cf_luxAE+0x2>
    554c:	f0 92 2a 60 	sts	0x602A, r15	; 0x80602a <_ZN9my_eeprom7Cf_luxAE+0x3>
		eeprom_busy_wait();
    5550:	80 91 02 10 	lds	r24, 0x1002	; 0x801002 <__TEXT_REGION_LENGTH__+0x7f1002>
    5554:	81 fd       	sbrc	r24, 1
    5556:	fc cf       	rjmp	.-8      	; 0x5550 <_ZN9my_eeprom19SetCorrectionFactorEPKc+0x344>
		eeprom_update_float (&EEP_LUXCF_A, buff);
    5558:	b7 01       	movw	r22, r14
    555a:	a6 01       	movw	r20, r12
    555c:	8c e3       	ldi	r24, 0x3C	; 60
    555e:	90 e0       	ldi	r25, 0x00	; 0
    5560:	0e 94 80 3e 	call	0x7d00	; 0x7d00 <eeprom_update_dword>
	}
	//xWB
	strncpy(num, data + 31, 4);
    5564:	44 e0       	ldi	r20, 0x04	; 4
    5566:	50 e0       	ldi	r21, 0x00	; 0
    5568:	b8 01       	movw	r22, r16
    556a:	61 5e       	subi	r22, 0xE1	; 225
    556c:	7f 4f       	sbci	r23, 0xFF	; 255
    556e:	ce 01       	movw	r24, r28
    5570:	01 96       	adiw	r24, 0x01	; 1
    5572:	0e 94 0c 39 	call	0x7218	; 0x7218 <strncpy>
	buff = atol(num);
    5576:	ce 01       	movw	r24, r28
    5578:	01 96       	adiw	r24, 0x01	; 1
    557a:	0e 94 d7 38 	call	0x71ae	; 0x71ae <atol>
    557e:	0e 94 19 35 	call	0x6a32	; 0x6a32 <__floatsisf>
    5582:	6b 01       	movw	r12, r22
    5584:	7c 01       	movw	r14, r24
	if(-999 <= buff && buff <= 999)
    5586:	20 e0       	ldi	r18, 0x00	; 0
    5588:	30 ec       	ldi	r19, 0xC0	; 192
    558a:	49 e7       	ldi	r20, 0x79	; 121
    558c:	54 ec       	ldi	r21, 0xC4	; 196
    558e:	0e 94 f0 35 	call	0x6be0	; 0x6be0 <__gesf2>
    5592:	88 23       	and	r24, r24
    5594:	e4 f0       	brlt	.+56     	; 0x55ce <_ZN9my_eeprom19SetCorrectionFactorEPKc+0x3c2>
    5596:	20 e0       	ldi	r18, 0x00	; 0
    5598:	30 ec       	ldi	r19, 0xC0	; 192
    559a:	49 e7       	ldi	r20, 0x79	; 121
    559c:	54 e4       	ldi	r21, 0x44	; 68
    559e:	c7 01       	movw	r24, r14
    55a0:	b6 01       	movw	r22, r12
    55a2:	0e 94 66 34 	call	0x68cc	; 0x68cc <__cmpsf2>
    55a6:	18 16       	cp	r1, r24
    55a8:	94 f0       	brlt	.+36     	; 0x55ce <_ZN9my_eeprom19SetCorrectionFactorEPKc+0x3c2>
	{
		my_eeprom::Cf_luxB = buff;
    55aa:	c0 92 99 63 	sts	0x6399, r12	; 0x806399 <_ZN9my_eeprom7Cf_luxBE>
    55ae:	d0 92 9a 63 	sts	0x639A, r13	; 0x80639a <_ZN9my_eeprom7Cf_luxBE+0x1>
    55b2:	e0 92 9b 63 	sts	0x639B, r14	; 0x80639b <_ZN9my_eeprom7Cf_luxBE+0x2>
    55b6:	f0 92 9c 63 	sts	0x639C, r15	; 0x80639c <_ZN9my_eeprom7Cf_luxBE+0x3>
		eeprom_busy_wait();
    55ba:	80 91 02 10 	lds	r24, 0x1002	; 0x801002 <__TEXT_REGION_LENGTH__+0x7f1002>
    55be:	81 fd       	sbrc	r24, 1
    55c0:	fc cf       	rjmp	.-8      	; 0x55ba <_ZN9my_eeprom19SetCorrectionFactorEPKc+0x3ae>
		eeprom_update_float (&EEP_LUXCF_B, buff);
    55c2:	b7 01       	movw	r22, r14
    55c4:	a6 01       	movw	r20, r12
    55c6:	88 e3       	ldi	r24, 0x38	; 56
    55c8:	90 e0       	ldi	r25, 0x00	; 0
    55ca:	0e 94 80 3e 	call	0x7d00	; 0x7d00 <eeprom_update_dword>
	}
	
	//WA
	strncpy(num, data + 35, 4);
    55ce:	44 e0       	ldi	r20, 0x04	; 4
    55d0:	50 e0       	ldi	r21, 0x00	; 0
    55d2:	b8 01       	movw	r22, r16
    55d4:	6d 5d       	subi	r22, 0xDD	; 221
    55d6:	7f 4f       	sbci	r23, 0xFF	; 255
    55d8:	ce 01       	movw	r24, r28
    55da:	01 96       	adiw	r24, 0x01	; 1
    55dc:	0e 94 0c 39 	call	0x7218	; 0x7218 <strncpy>
	buff = 0.001 * atol(num);
    55e0:	ce 01       	movw	r24, r28
    55e2:	01 96       	adiw	r24, 0x01	; 1
    55e4:	0e 94 d7 38 	call	0x71ae	; 0x71ae <atol>
    55e8:	0e 94 19 35 	call	0x6a32	; 0x6a32 <__floatsisf>
    55ec:	2f e6       	ldi	r18, 0x6F	; 111
    55ee:	32 e1       	ldi	r19, 0x12	; 18
    55f0:	43 e8       	ldi	r20, 0x83	; 131
    55f2:	5a e3       	ldi	r21, 0x3A	; 58
    55f4:	0e 94 bb 36 	call	0x6d76	; 0x6d76 <__mulsf3>
    55f8:	6b 01       	movw	r12, r22
    55fa:	7c 01       	movw	r14, r24
	if(0.8 <= buff && buff <= 1.2)
    55fc:	2d ec       	ldi	r18, 0xCD	; 205
    55fe:	3c ec       	ldi	r19, 0xCC	; 204
    5600:	4c e4       	ldi	r20, 0x4C	; 76
    5602:	5f e3       	ldi	r21, 0x3F	; 63
    5604:	0e 94 f0 35 	call	0x6be0	; 0x6be0 <__gesf2>
    5608:	88 23       	and	r24, r24
    560a:	e4 f0       	brlt	.+56     	; 0x5644 <_ZN9my_eeprom19SetCorrectionFactorEPKc+0x438>
    560c:	2a e9       	ldi	r18, 0x9A	; 154
    560e:	39 e9       	ldi	r19, 0x99	; 153
    5610:	49 e9       	ldi	r20, 0x99	; 153
    5612:	5f e3       	ldi	r21, 0x3F	; 63
    5614:	c7 01       	movw	r24, r14
    5616:	b6 01       	movw	r22, r12
    5618:	0e 94 66 34 	call	0x68cc	; 0x68cc <__cmpsf2>
    561c:	18 16       	cp	r1, r24
    561e:	94 f0       	brlt	.+36     	; 0x5644 <_ZN9my_eeprom19SetCorrectionFactorEPKc+0x438>
	{
		my_eeprom::Cf_velA = buff;
    5620:	c0 92 23 60 	sts	0x6023, r12	; 0x806023 <_ZN9my_eeprom7Cf_velAE>
    5624:	d0 92 24 60 	sts	0x6024, r13	; 0x806024 <_ZN9my_eeprom7Cf_velAE+0x1>
    5628:	e0 92 25 60 	sts	0x6025, r14	; 0x806025 <_ZN9my_eeprom7Cf_velAE+0x2>
    562c:	f0 92 26 60 	sts	0x6026, r15	; 0x806026 <_ZN9my_eeprom7Cf_velAE+0x3>
		eeprom_busy_wait();
    5630:	80 91 02 10 	lds	r24, 0x1002	; 0x801002 <__TEXT_REGION_LENGTH__+0x7f1002>
    5634:	81 fd       	sbrc	r24, 1
    5636:	fc cf       	rjmp	.-8      	; 0x5630 <_ZN9my_eeprom19SetCorrectionFactorEPKc+0x424>
		eeprom_update_float (&EEP_VELCF_A, buff);
    5638:	b7 01       	movw	r22, r14
    563a:	a6 01       	movw	r20, r12
    563c:	84 e3       	ldi	r24, 0x34	; 52
    563e:	90 e0       	ldi	r25, 0x00	; 0
    5640:	0e 94 80 3e 	call	0x7d00	; 0x7d00 <eeprom_update_dword>
	}
	//WB
	strncpy(num, data + 39, 4);
    5644:	44 e0       	ldi	r20, 0x04	; 4
    5646:	50 e0       	ldi	r21, 0x00	; 0
    5648:	b8 01       	movw	r22, r16
    564a:	69 5d       	subi	r22, 0xD9	; 217
    564c:	7f 4f       	sbci	r23, 0xFF	; 255
    564e:	ce 01       	movw	r24, r28
    5650:	01 96       	adiw	r24, 0x01	; 1
    5652:	0e 94 0c 39 	call	0x7218	; 0x7218 <strncpy>
	buff = 0.001 * atol(num);
    5656:	ce 01       	movw	r24, r28
    5658:	01 96       	adiw	r24, 0x01	; 1
    565a:	0e 94 d7 38 	call	0x71ae	; 0x71ae <atol>
    565e:	0e 94 19 35 	call	0x6a32	; 0x6a32 <__floatsisf>
    5662:	2f e6       	ldi	r18, 0x6F	; 111
    5664:	32 e1       	ldi	r19, 0x12	; 18
    5666:	43 e8       	ldi	r20, 0x83	; 131
    5668:	5a e3       	ldi	r21, 0x3A	; 58
    566a:	0e 94 bb 36 	call	0x6d76	; 0x6d76 <__mulsf3>
    566e:	6b 01       	movw	r12, r22
    5670:	7c 01       	movw	r14, r24
	if(-0.5 <= buff && buff <= 0.5)
    5672:	20 e0       	ldi	r18, 0x00	; 0
    5674:	30 e0       	ldi	r19, 0x00	; 0
    5676:	40 e0       	ldi	r20, 0x00	; 0
    5678:	5f eb       	ldi	r21, 0xBF	; 191
    567a:	0e 94 f0 35 	call	0x6be0	; 0x6be0 <__gesf2>
    567e:	88 23       	and	r24, r24
    5680:	e4 f0       	brlt	.+56     	; 0x56ba <_ZN9my_eeprom19SetCorrectionFactorEPKc+0x4ae>
    5682:	20 e0       	ldi	r18, 0x00	; 0
    5684:	30 e0       	ldi	r19, 0x00	; 0
    5686:	40 e0       	ldi	r20, 0x00	; 0
    5688:	5f e3       	ldi	r21, 0x3F	; 63
    568a:	c7 01       	movw	r24, r14
    568c:	b6 01       	movw	r22, r12
    568e:	0e 94 66 34 	call	0x68cc	; 0x68cc <__cmpsf2>
    5692:	18 16       	cp	r1, r24
    5694:	94 f0       	brlt	.+36     	; 0x56ba <_ZN9my_eeprom19SetCorrectionFactorEPKc+0x4ae>
	{
		my_eeprom::Cf_velB = buff;
    5696:	c0 92 95 63 	sts	0x6395, r12	; 0x806395 <_ZN9my_eeprom7Cf_velBE>
    569a:	d0 92 96 63 	sts	0x6396, r13	; 0x806396 <_ZN9my_eeprom7Cf_velBE+0x1>
    569e:	e0 92 97 63 	sts	0x6397, r14	; 0x806397 <_ZN9my_eeprom7Cf_velBE+0x2>
    56a2:	f0 92 98 63 	sts	0x6398, r15	; 0x806398 <_ZN9my_eeprom7Cf_velBE+0x3>
		eeprom_busy_wait();
    56a6:	80 91 02 10 	lds	r24, 0x1002	; 0x801002 <__TEXT_REGION_LENGTH__+0x7f1002>
    56aa:	81 fd       	sbrc	r24, 1
    56ac:	fc cf       	rjmp	.-8      	; 0x56a6 <_ZN9my_eeprom19SetCorrectionFactorEPKc+0x49a>
		eeprom_update_float (&EEP_VELCF_B, buff);
    56ae:	b7 01       	movw	r22, r14
    56b0:	a6 01       	movw	r20, r12
    56b2:	80 e3       	ldi	r24, 0x30	; 48
    56b4:	90 e0       	ldi	r25, 0x00	; 0
    56b6:	0e 94 80 3e 	call	0x7d00	; 0x7d00 <eeprom_update_dword>
	}
	//d
	strncpy(num, data + 43, 4);
    56ba:	b8 01       	movw	r22, r16
    56bc:	65 5d       	subi	r22, 0xD5	; 213
    56be:	7f 4f       	sbci	r23, 0xFF	; 255
    56c0:	44 e0       	ldi	r20, 0x04	; 4
    56c2:	50 e0       	ldi	r21, 0x00	; 0
    56c4:	ce 01       	movw	r24, r28
    56c6:	01 96       	adiw	r24, 0x01	; 1
    56c8:	0e 94 0c 39 	call	0x7218	; 0x7218 <strncpy>
	buff = 0.001 * atol(num);
    56cc:	ce 01       	movw	r24, r28
    56ce:	01 96       	adiw	r24, 0x01	; 1
    56d0:	0e 94 d7 38 	call	0x71ae	; 0x71ae <atol>
    56d4:	0e 94 19 35 	call	0x6a32	; 0x6a32 <__floatsisf>
    56d8:	2f e6       	ldi	r18, 0x6F	; 111
    56da:	32 e1       	ldi	r19, 0x12	; 18
    56dc:	43 e8       	ldi	r20, 0x83	; 131
    56de:	5a e3       	ldi	r21, 0x3A	; 58
    56e0:	0e 94 bb 36 	call	0x6d76	; 0x6d76 <__mulsf3>
    56e4:	6b 01       	movw	r12, r22
    56e6:	7c 01       	movw	r14, r24
	if(1.40 <= buff && buff <= 1.50)
    56e8:	23 e3       	ldi	r18, 0x33	; 51
    56ea:	33 e3       	ldi	r19, 0x33	; 51
    56ec:	43 eb       	ldi	r20, 0xB3	; 179
    56ee:	5f e3       	ldi	r21, 0x3F	; 63
    56f0:	0e 94 f0 35 	call	0x6be0	; 0x6be0 <__gesf2>
    56f4:	88 23       	and	r24, r24
    56f6:	e4 f0       	brlt	.+56     	; 0x5730 <_ZN9my_eeprom19SetCorrectionFactorEPKc+0x524>
    56f8:	20 e0       	ldi	r18, 0x00	; 0
    56fa:	30 e0       	ldi	r19, 0x00	; 0
    56fc:	40 ec       	ldi	r20, 0xC0	; 192
    56fe:	5f e3       	ldi	r21, 0x3F	; 63
    5700:	c7 01       	movw	r24, r14
    5702:	b6 01       	movw	r22, r12
    5704:	0e 94 66 34 	call	0x68cc	; 0x68cc <__cmpsf2>
    5708:	18 16       	cp	r1, r24
    570a:	94 f0       	brlt	.+36     	; 0x5730 <_ZN9my_eeprom19SetCorrectionFactorEPKc+0x524>
	{
		my_eeprom::Cf_vel0 = buff;
    570c:	c0 92 1f 60 	sts	0x601F, r12	; 0x80601f <_ZN9my_eeprom7Cf_vel0E>
    5710:	d0 92 20 60 	sts	0x6020, r13	; 0x806020 <_ZN9my_eeprom7Cf_vel0E+0x1>
    5714:	e0 92 21 60 	sts	0x6021, r14	; 0x806021 <_ZN9my_eeprom7Cf_vel0E+0x2>
    5718:	f0 92 22 60 	sts	0x6022, r15	; 0x806022 <_ZN9my_eeprom7Cf_vel0E+0x3>
		eeprom_busy_wait();
    571c:	80 91 02 10 	lds	r24, 0x1002	; 0x801002 <__TEXT_REGION_LENGTH__+0x7f1002>
    5720:	81 fd       	sbrc	r24, 1
    5722:	fc cf       	rjmp	.-8      	; 0x571c <_ZN9my_eeprom19SetCorrectionFactorEPKc+0x510>
		eeprom_update_float (&EEP_VEL0, buff);
    5724:	b7 01       	movw	r22, r14
    5726:	a6 01       	movw	r20, r12
    5728:	8c e2       	ldi	r24, 0x2C	; 44
    572a:	90 e0       	ldi	r25, 0x00	; 0
    572c:	0e 94 80 3e 	call	0x7d00	; 0x7d00 <eeprom_update_dword>
	}
}
    5730:	25 96       	adiw	r28, 0x05	; 5
    5732:	cd bf       	out	0x3d, r28	; 61
    5734:	de bf       	out	0x3e, r29	; 62
    5736:	df 91       	pop	r29
    5738:	cf 91       	pop	r28
    573a:	1f 91       	pop	r17
    573c:	0f 91       	pop	r16
    573e:	ff 90       	pop	r15
    5740:	ef 90       	pop	r14
    5742:	df 90       	pop	r13
    5744:	cf 90       	pop	r12
    5746:	08 95       	ret

00005748 <_ZN9my_eeprom26MakeCorrectionFactorStringEPcPKc>:

//W\
void my_eeprom::MakeCorrectionFactorString(char * txbuff, const char * command)
{
    5748:	2f 92       	push	r2
    574a:	3f 92       	push	r3
    574c:	4f 92       	push	r4
    574e:	5f 92       	push	r5
    5750:	6f 92       	push	r6
    5752:	7f 92       	push	r7
    5754:	8f 92       	push	r8
    5756:	9f 92       	push	r9
    5758:	af 92       	push	r10
    575a:	bf 92       	push	r11
    575c:	cf 92       	push	r12
    575e:	df 92       	push	r13
    5760:	ef 92       	push	r14
    5762:	ff 92       	push	r15
    5764:	0f 93       	push	r16
    5766:	1f 93       	push	r17
    5768:	cf 93       	push	r28
    576a:	df 93       	push	r29
    576c:	cd b7       	in	r28, 0x3d	; 61
    576e:	de b7       	in	r29, 0x3e	; 62
    5770:	cc 54       	subi	r28, 0x4C	; 76
    5772:	d1 09       	sbc	r29, r1
    5774:	cd bf       	out	0x3d, r28	; 61
    5776:	de bf       	out	0x3e, r29	; 62
    5778:	2a 96       	adiw	r28, 0x0a	; 10
    577a:	8f af       	std	Y+63, r24	; 0x3f
    577c:	2a 97       	sbiw	r28, 0x0a	; 10
    577e:	2b 96       	adiw	r28, 0x0b	; 11
    5780:	9f af       	std	Y+63, r25	; 0x3f
    5782:	2b 97       	sbiw	r28, 0x0b	; 11
    5784:	2c 96       	adiw	r28, 0x0c	; 12
    5786:	6f af       	std	Y+63, r22	; 0x3f
    5788:	2c 97       	sbiw	r28, 0x0c	; 12
    578a:	2d 96       	adiw	r28, 0x0d	; 13
    578c:	7f af       	std	Y+63, r23	; 0x3f
    578e:	2d 97       	sbiw	r28, 0x0d	; 13
	char dbtA[6],dbtB[6],hmdA[6],hmdB[6],glbA[6],glbB[6],luxA[6],luxB[5],velA[6],velB[7],vel0[6];
	
	dtostrf(my_eeprom::Cf_dbtA,5,3,dbtA);
    5790:	60 91 33 60 	lds	r22, 0x6033	; 0x806033 <_ZN9my_eeprom7Cf_dbtAE>
    5794:	70 91 34 60 	lds	r23, 0x6034	; 0x806034 <_ZN9my_eeprom7Cf_dbtAE+0x1>
    5798:	80 91 35 60 	lds	r24, 0x6035	; 0x806035 <_ZN9my_eeprom7Cf_dbtAE+0x2>
    579c:	90 91 36 60 	lds	r25, 0x6036	; 0x806036 <_ZN9my_eeprom7Cf_dbtAE+0x3>
    57a0:	8e 01       	movw	r16, r28
    57a2:	0f 5f       	subi	r16, 0xFF	; 255
    57a4:	1f 4f       	sbci	r17, 0xFF	; 255
    57a6:	23 e0       	ldi	r18, 0x03	; 3
    57a8:	45 e0       	ldi	r20, 0x05	; 5
    57aa:	0e 94 78 37 	call	0x6ef0	; 0x6ef0 <dtostrf>
	dtostrf(my_eeprom::Cf_dbtB,5,2,dbtB);
    57ae:	60 91 a5 63 	lds	r22, 0x63A5	; 0x8063a5 <_ZN9my_eeprom7Cf_dbtBE>
    57b2:	70 91 a6 63 	lds	r23, 0x63A6	; 0x8063a6 <_ZN9my_eeprom7Cf_dbtBE+0x1>
    57b6:	80 91 a7 63 	lds	r24, 0x63A7	; 0x8063a7 <_ZN9my_eeprom7Cf_dbtBE+0x2>
    57ba:	90 91 a8 63 	lds	r25, 0x63A8	; 0x8063a8 <_ZN9my_eeprom7Cf_dbtBE+0x3>
    57be:	1e 01       	movw	r2, r28
    57c0:	27 e0       	ldi	r18, 0x07	; 7
    57c2:	22 0e       	add	r2, r18
    57c4:	31 1c       	adc	r3, r1
    57c6:	81 01       	movw	r16, r2
    57c8:	22 e0       	ldi	r18, 0x02	; 2
    57ca:	45 e0       	ldi	r20, 0x05	; 5
    57cc:	0e 94 78 37 	call	0x6ef0	; 0x6ef0 <dtostrf>
	
	dtostrf(my_eeprom::Cf_hmdA,5,3,hmdA);
    57d0:	60 91 2f 60 	lds	r22, 0x602F	; 0x80602f <_ZN9my_eeprom7Cf_hmdAE>
    57d4:	70 91 30 60 	lds	r23, 0x6030	; 0x806030 <_ZN9my_eeprom7Cf_hmdAE+0x1>
    57d8:	80 91 31 60 	lds	r24, 0x6031	; 0x806031 <_ZN9my_eeprom7Cf_hmdAE+0x2>
    57dc:	90 91 32 60 	lds	r25, 0x6032	; 0x806032 <_ZN9my_eeprom7Cf_hmdAE+0x3>
    57e0:	2e 01       	movw	r4, r28
    57e2:	3d e0       	ldi	r19, 0x0D	; 13
    57e4:	43 0e       	add	r4, r19
    57e6:	51 1c       	adc	r5, r1
    57e8:	82 01       	movw	r16, r4
    57ea:	23 e0       	ldi	r18, 0x03	; 3
    57ec:	45 e0       	ldi	r20, 0x05	; 5
    57ee:	0e 94 78 37 	call	0x6ef0	; 0x6ef0 <dtostrf>
	dtostrf(my_eeprom::Cf_hmdB,5,2,hmdB);
    57f2:	60 91 a1 63 	lds	r22, 0x63A1	; 0x8063a1 <_ZN9my_eeprom7Cf_hmdBE>
    57f6:	70 91 a2 63 	lds	r23, 0x63A2	; 0x8063a2 <_ZN9my_eeprom7Cf_hmdBE+0x1>
    57fa:	80 91 a3 63 	lds	r24, 0x63A3	; 0x8063a3 <_ZN9my_eeprom7Cf_hmdBE+0x2>
    57fe:	90 91 a4 63 	lds	r25, 0x63A4	; 0x8063a4 <_ZN9my_eeprom7Cf_hmdBE+0x3>
    5802:	9e 01       	movw	r18, r28
    5804:	2d 5e       	subi	r18, 0xED	; 237
    5806:	3f 4f       	sbci	r19, 0xFF	; 255
    5808:	25 96       	adiw	r28, 0x05	; 5
    580a:	2e af       	std	Y+62, r18	; 0x3e
    580c:	3f af       	std	Y+63, r19	; 0x3f
    580e:	25 97       	sbiw	r28, 0x05	; 5
    5810:	89 01       	movw	r16, r18
    5812:	22 e0       	ldi	r18, 0x02	; 2
    5814:	45 e0       	ldi	r20, 0x05	; 5
    5816:	0e 94 78 37 	call	0x6ef0	; 0x6ef0 <dtostrf>
	
	dtostrf(my_eeprom::Cf_glbA,5,3,glbA);
    581a:	60 91 2b 60 	lds	r22, 0x602B	; 0x80602b <_ZN9my_eeprom7Cf_glbAE>
    581e:	70 91 2c 60 	lds	r23, 0x602C	; 0x80602c <_ZN9my_eeprom7Cf_glbAE+0x1>
    5822:	80 91 2d 60 	lds	r24, 0x602D	; 0x80602d <_ZN9my_eeprom7Cf_glbAE+0x2>
    5826:	90 91 2e 60 	lds	r25, 0x602E	; 0x80602e <_ZN9my_eeprom7Cf_glbAE+0x3>
    582a:	9e 01       	movw	r18, r28
    582c:	27 5e       	subi	r18, 0xE7	; 231
    582e:	3f 4f       	sbci	r19, 0xFF	; 255
    5830:	27 96       	adiw	r28, 0x07	; 7
    5832:	2e af       	std	Y+62, r18	; 0x3e
    5834:	3f af       	std	Y+63, r19	; 0x3f
    5836:	27 97       	sbiw	r28, 0x07	; 7
    5838:	89 01       	movw	r16, r18
    583a:	23 e0       	ldi	r18, 0x03	; 3
    583c:	45 e0       	ldi	r20, 0x05	; 5
    583e:	0e 94 78 37 	call	0x6ef0	; 0x6ef0 <dtostrf>
	dtostrf(my_eeprom::Cf_glbB,5,2,glbB);
    5842:	60 91 9d 63 	lds	r22, 0x639D	; 0x80639d <_ZN9my_eeprom7Cf_glbBE>
    5846:	70 91 9e 63 	lds	r23, 0x639E	; 0x80639e <_ZN9my_eeprom7Cf_glbBE+0x1>
    584a:	80 91 9f 63 	lds	r24, 0x639F	; 0x80639f <_ZN9my_eeprom7Cf_glbBE+0x2>
    584e:	90 91 a0 63 	lds	r25, 0x63A0	; 0x8063a0 <_ZN9my_eeprom7Cf_glbBE+0x3>
    5852:	9e 01       	movw	r18, r28
    5854:	21 5e       	subi	r18, 0xE1	; 225
    5856:	3f 4f       	sbci	r19, 0xFF	; 255
    5858:	29 96       	adiw	r28, 0x09	; 9
    585a:	2e af       	std	Y+62, r18	; 0x3e
    585c:	3f af       	std	Y+63, r19	; 0x3f
    585e:	29 97       	sbiw	r28, 0x09	; 9
    5860:	89 01       	movw	r16, r18
    5862:	22 e0       	ldi	r18, 0x02	; 2
    5864:	45 e0       	ldi	r20, 0x05	; 5
    5866:	0e 94 78 37 	call	0x6ef0	; 0x6ef0 <dtostrf>
	
	dtostrf(my_eeprom::Cf_luxA,5,3,luxA);
    586a:	60 91 27 60 	lds	r22, 0x6027	; 0x806027 <_ZN9my_eeprom7Cf_luxAE>
    586e:	70 91 28 60 	lds	r23, 0x6028	; 0x806028 <_ZN9my_eeprom7Cf_luxAE+0x1>
    5872:	80 91 29 60 	lds	r24, 0x6029	; 0x806029 <_ZN9my_eeprom7Cf_luxAE+0x2>
    5876:	90 91 2a 60 	lds	r25, 0x602A	; 0x80602a <_ZN9my_eeprom7Cf_luxAE+0x3>
    587a:	7e 01       	movw	r14, r28
    587c:	35 e2       	ldi	r19, 0x25	; 37
    587e:	e3 0e       	add	r14, r19
    5880:	f1 1c       	adc	r15, r1
    5882:	87 01       	movw	r16, r14
    5884:	23 e0       	ldi	r18, 0x03	; 3
    5886:	45 e0       	ldi	r20, 0x05	; 5
    5888:	0e 94 78 37 	call	0x6ef0	; 0x6ef0 <dtostrf>
	dtostrf(my_eeprom::Cf_luxB,4,0,luxB);
    588c:	60 91 99 63 	lds	r22, 0x6399	; 0x806399 <_ZN9my_eeprom7Cf_luxBE>
    5890:	70 91 9a 63 	lds	r23, 0x639A	; 0x80639a <_ZN9my_eeprom7Cf_luxBE+0x1>
    5894:	80 91 9b 63 	lds	r24, 0x639B	; 0x80639b <_ZN9my_eeprom7Cf_luxBE+0x2>
    5898:	90 91 9c 63 	lds	r25, 0x639C	; 0x80639c <_ZN9my_eeprom7Cf_luxBE+0x3>
    589c:	6e 01       	movw	r12, r28
    589e:	2b e2       	ldi	r18, 0x2B	; 43
    58a0:	c2 0e       	add	r12, r18
    58a2:	d1 1c       	adc	r13, r1
    58a4:	86 01       	movw	r16, r12
    58a6:	20 e0       	ldi	r18, 0x00	; 0
    58a8:	44 e0       	ldi	r20, 0x04	; 4
    58aa:	0e 94 78 37 	call	0x6ef0	; 0x6ef0 <dtostrf>
	
	dtostrf(my_eeprom::Cf_velA,5,3,velA);
    58ae:	60 91 23 60 	lds	r22, 0x6023	; 0x806023 <_ZN9my_eeprom7Cf_velAE>
    58b2:	70 91 24 60 	lds	r23, 0x6024	; 0x806024 <_ZN9my_eeprom7Cf_velAE+0x1>
    58b6:	80 91 25 60 	lds	r24, 0x6025	; 0x806025 <_ZN9my_eeprom7Cf_velAE+0x2>
    58ba:	90 91 26 60 	lds	r25, 0x6026	; 0x806026 <_ZN9my_eeprom7Cf_velAE+0x3>
    58be:	5e 01       	movw	r10, r28
    58c0:	30 e3       	ldi	r19, 0x30	; 48
    58c2:	a3 0e       	add	r10, r19
    58c4:	b1 1c       	adc	r11, r1
    58c6:	85 01       	movw	r16, r10
    58c8:	23 e0       	ldi	r18, 0x03	; 3
    58ca:	45 e0       	ldi	r20, 0x05	; 5
    58cc:	0e 94 78 37 	call	0x6ef0	; 0x6ef0 <dtostrf>
	dtostrf(my_eeprom::Cf_velB,6,3,velB);
    58d0:	60 91 95 63 	lds	r22, 0x6395	; 0x806395 <_ZN9my_eeprom7Cf_velBE>
    58d4:	70 91 96 63 	lds	r23, 0x6396	; 0x806396 <_ZN9my_eeprom7Cf_velBE+0x1>
    58d8:	80 91 97 63 	lds	r24, 0x6397	; 0x806397 <_ZN9my_eeprom7Cf_velBE+0x2>
    58dc:	90 91 98 63 	lds	r25, 0x6398	; 0x806398 <_ZN9my_eeprom7Cf_velBE+0x3>
    58e0:	4e 01       	movw	r8, r28
    58e2:	26 e3       	ldi	r18, 0x36	; 54
    58e4:	82 0e       	add	r8, r18
    58e6:	91 1c       	adc	r9, r1
    58e8:	84 01       	movw	r16, r8
    58ea:	23 e0       	ldi	r18, 0x03	; 3
    58ec:	46 e0       	ldi	r20, 0x06	; 6
    58ee:	0e 94 78 37 	call	0x6ef0	; 0x6ef0 <dtostrf>
	dtostrf(my_eeprom::Cf_vel0,5,3,vel0);
    58f2:	60 91 1f 60 	lds	r22, 0x601F	; 0x80601f <_ZN9my_eeprom7Cf_vel0E>
    58f6:	70 91 20 60 	lds	r23, 0x6020	; 0x806020 <_ZN9my_eeprom7Cf_vel0E+0x1>
    58fa:	80 91 21 60 	lds	r24, 0x6021	; 0x806021 <_ZN9my_eeprom7Cf_vel0E+0x2>
    58fe:	90 91 22 60 	lds	r25, 0x6022	; 0x806022 <_ZN9my_eeprom7Cf_vel0E+0x3>
    5902:	3e 01       	movw	r6, r28
    5904:	3d e3       	ldi	r19, 0x3D	; 61
    5906:	63 0e       	add	r6, r19
    5908:	71 1c       	adc	r7, r1
    590a:	83 01       	movw	r16, r6
    590c:	23 e0       	ldi	r18, 0x03	; 3
    590e:	45 e0       	ldi	r20, 0x05	; 5
    5910:	0e 94 78 37 	call	0x6ef0	; 0x6ef0 <dtostrf>
	
	sprintf(txbuff, "%s:%s,%s,%s,%s,%s,%s,%s,%s,%s,%s,%s\r",
		command, dbtA, dbtB, hmdA, hmdB, glbA, glbB, luxA, luxB, velA, velB, vel0);
    5914:	7f 92       	push	r7
    5916:	6f 92       	push	r6
    5918:	9f 92       	push	r9
    591a:	8f 92       	push	r8
    591c:	bf 92       	push	r11
    591e:	af 92       	push	r10
    5920:	df 92       	push	r13
    5922:	cf 92       	push	r12
    5924:	ff 92       	push	r15
    5926:	ef 92       	push	r14
    5928:	29 96       	adiw	r28, 0x09	; 9
    592a:	8f ad       	ldd	r24, Y+63	; 0x3f
    592c:	29 97       	sbiw	r28, 0x09	; 9
    592e:	8f 93       	push	r24
    5930:	28 96       	adiw	r28, 0x08	; 8
    5932:	9f ad       	ldd	r25, Y+63	; 0x3f
    5934:	28 97       	sbiw	r28, 0x08	; 8
    5936:	9f 93       	push	r25
    5938:	27 96       	adiw	r28, 0x07	; 7
    593a:	2f ad       	ldd	r18, Y+63	; 0x3f
    593c:	27 97       	sbiw	r28, 0x07	; 7
    593e:	2f 93       	push	r18
    5940:	26 96       	adiw	r28, 0x06	; 6
    5942:	3f ad       	ldd	r19, Y+63	; 0x3f
    5944:	26 97       	sbiw	r28, 0x06	; 6
    5946:	3f 93       	push	r19
    5948:	25 96       	adiw	r28, 0x05	; 5
    594a:	8f ad       	ldd	r24, Y+63	; 0x3f
    594c:	25 97       	sbiw	r28, 0x05	; 5
    594e:	8f 93       	push	r24
    5950:	24 96       	adiw	r28, 0x04	; 4
    5952:	9f ad       	ldd	r25, Y+63	; 0x3f
    5954:	24 97       	sbiw	r28, 0x04	; 4
    5956:	9f 93       	push	r25
    5958:	5f 92       	push	r5
    595a:	4f 92       	push	r4
    595c:	3f 92       	push	r3
    595e:	2f 92       	push	r2
    5960:	21 e0       	ldi	r18, 0x01	; 1
    5962:	30 e0       	ldi	r19, 0x00	; 0
    5964:	2c 0f       	add	r18, r28
    5966:	3d 1f       	adc	r19, r29
    5968:	3f 93       	push	r19
    596a:	2f 93       	push	r18
    596c:	2d 96       	adiw	r28, 0x0d	; 13
    596e:	3f ad       	ldd	r19, Y+63	; 0x3f
    5970:	2d 97       	sbiw	r28, 0x0d	; 13
    5972:	3f 93       	push	r19
    5974:	2c 96       	adiw	r28, 0x0c	; 12
    5976:	8f ad       	ldd	r24, Y+63	; 0x3f
    5978:	2c 97       	sbiw	r28, 0x0c	; 12
    597a:	8f 93       	push	r24
    597c:	87 e6       	ldi	r24, 0x67	; 103
    597e:	91 e6       	ldi	r25, 0x61	; 97
    5980:	9f 93       	push	r25
    5982:	8f 93       	push	r24
    5984:	2b 96       	adiw	r28, 0x0b	; 11
    5986:	9f ad       	ldd	r25, Y+63	; 0x3f
    5988:	2b 97       	sbiw	r28, 0x0b	; 11
    598a:	9f 93       	push	r25
    598c:	2a 96       	adiw	r28, 0x0a	; 10
    598e:	2f ad       	ldd	r18, Y+63	; 0x3f
    5990:	2a 97       	sbiw	r28, 0x0a	; 10
    5992:	2f 93       	push	r18
    5994:	0e 94 68 39 	call	0x72d0	; 0x72d0 <sprintf>
}
    5998:	cd bf       	out	0x3d, r28	; 61
    599a:	de bf       	out	0x3e, r29	; 62
    599c:	c4 5b       	subi	r28, 0xB4	; 180
    599e:	df 4f       	sbci	r29, 0xFF	; 255
    59a0:	cd bf       	out	0x3d, r28	; 61
    59a2:	de bf       	out	0x3e, r29	; 62
    59a4:	df 91       	pop	r29
    59a6:	cf 91       	pop	r28
    59a8:	1f 91       	pop	r17
    59aa:	0f 91       	pop	r16
    59ac:	ff 90       	pop	r15
    59ae:	ef 90       	pop	r14
    59b0:	df 90       	pop	r13
    59b2:	cf 90       	pop	r12
    59b4:	bf 90       	pop	r11
    59b6:	af 90       	pop	r10
    59b8:	9f 90       	pop	r9
    59ba:	8f 90       	pop	r8
    59bc:	7f 90       	pop	r7
    59be:	6f 90       	pop	r6
    59c0:	5f 90       	pop	r5
    59c2:	4f 90       	pop	r4
    59c4:	3f 90       	pop	r3
    59c6:	2f 90       	pop	r2
    59c8:	08 95       	ret

000059ca <_ZN9my_eeprom21SetMeasurementSettingEv>:

//v
void my_eeprom::SetMeasurementSetting()
{
	eeprom_busy_wait();
    59ca:	80 91 02 10 	lds	r24, 0x1002	; 0x801002 <__TEXT_REGION_LENGTH__+0x7f1002>
    59ce:	81 fd       	sbrc	r24, 1
    59d0:	fc cf       	rjmp	.-8      	; 0x59ca <_ZN9my_eeprom21SetMeasurementSettingEv>
	eeprom_update_byte(&EEP_START_AUTO,my_eeprom::startAuto ? 'T' : 'F');
    59d2:	80 91 90 63 	lds	r24, 0x6390	; 0x806390 <_ZN9my_eeprom9startAutoE>
    59d6:	88 23       	and	r24, r24
    59d8:	11 f0       	breq	.+4      	; 0x59de <_ZN9my_eeprom21SetMeasurementSettingEv+0x14>
    59da:	64 e5       	ldi	r22, 0x54	; 84
    59dc:	01 c0       	rjmp	.+2      	; 0x59e0 <_ZN9my_eeprom21SetMeasurementSettingEv+0x16>
    59de:	66 e4       	ldi	r22, 0x46	; 70
    59e0:	85 e1       	ldi	r24, 0x15	; 21
    59e2:	90 e0       	ldi	r25, 0x00	; 0
    59e4:	0e 94 75 3e 	call	0x7cea	; 0x7cea <eeprom_update_byte>
	
	eeprom_busy_wait();
    59e8:	80 91 02 10 	lds	r24, 0x1002	; 0x801002 <__TEXT_REGION_LENGTH__+0x7f1002>
    59ec:	81 fd       	sbrc	r24, 1
    59ee:	fc cf       	rjmp	.-8      	; 0x59e8 <_ZN9my_eeprom21SetMeasurementSettingEv+0x1e>
	eeprom_update_byte(&EEP_MES_TH,my_eeprom::measure_th ? 'T' : 'F');
    59f0:	80 91 1e 60 	lds	r24, 0x601E	; 0x80601e <_ZN9my_eeprom10measure_thE>
    59f4:	88 23       	and	r24, r24
    59f6:	11 f0       	breq	.+4      	; 0x59fc <_ZN9my_eeprom21SetMeasurementSettingEv+0x32>
    59f8:	64 e5       	ldi	r22, 0x54	; 84
    59fa:	01 c0       	rjmp	.+2      	; 0x59fe <_ZN9my_eeprom21SetMeasurementSettingEv+0x34>
    59fc:	66 e4       	ldi	r22, 0x46	; 70
    59fe:	8b e2       	ldi	r24, 0x2B	; 43
    5a00:	90 e0       	ldi	r25, 0x00	; 0
    5a02:	0e 94 75 3e 	call	0x7cea	; 0x7cea <eeprom_update_byte>
	eeprom_busy_wait();
    5a06:	80 91 02 10 	lds	r24, 0x1002	; 0x801002 <__TEXT_REGION_LENGTH__+0x7f1002>
    5a0a:	81 fd       	sbrc	r24, 1
    5a0c:	fc cf       	rjmp	.-8      	; 0x5a06 <_ZN9my_eeprom21SetMeasurementSettingEv+0x3c>
	eeprom_update_word(&EEP_STP_TH,my_eeprom::interval_th);
    5a0e:	60 91 19 60 	lds	r22, 0x6019	; 0x806019 <_ZN9my_eeprom11interval_thE>
    5a12:	70 91 1a 60 	lds	r23, 0x601A	; 0x80601a <_ZN9my_eeprom11interval_thE+0x1>
    5a16:	82 e2       	ldi	r24, 0x22	; 34
    5a18:	90 e0       	ldi	r25, 0x00	; 0
    5a1a:	0e 94 8c 3e 	call	0x7d18	; 0x7d18 <eeprom_update_word>
	
	eeprom_busy_wait();
    5a1e:	80 91 02 10 	lds	r24, 0x1002	; 0x801002 <__TEXT_REGION_LENGTH__+0x7f1002>
    5a22:	81 fd       	sbrc	r24, 1
    5a24:	fc cf       	rjmp	.-8      	; 0x5a1e <_ZN9my_eeprom21SetMeasurementSettingEv+0x54>
	eeprom_update_byte(&EEP_MES_GLB,my_eeprom::measure_glb ? 'T' : 'F');
    5a26:	80 91 1d 60 	lds	r24, 0x601D	; 0x80601d <_ZN9my_eeprom11measure_glbE>
    5a2a:	88 23       	and	r24, r24
    5a2c:	11 f0       	breq	.+4      	; 0x5a32 <_ZN9my_eeprom21SetMeasurementSettingEv+0x68>
    5a2e:	64 e5       	ldi	r22, 0x54	; 84
    5a30:	01 c0       	rjmp	.+2      	; 0x5a34 <_ZN9my_eeprom21SetMeasurementSettingEv+0x6a>
    5a32:	66 e4       	ldi	r22, 0x46	; 70
    5a34:	8a e2       	ldi	r24, 0x2A	; 42
    5a36:	90 e0       	ldi	r25, 0x00	; 0
    5a38:	0e 94 75 3e 	call	0x7cea	; 0x7cea <eeprom_update_byte>
	eeprom_busy_wait();
    5a3c:	80 91 02 10 	lds	r24, 0x1002	; 0x801002 <__TEXT_REGION_LENGTH__+0x7f1002>
    5a40:	81 fd       	sbrc	r24, 1
    5a42:	fc cf       	rjmp	.-8      	; 0x5a3c <_ZN9my_eeprom21SetMeasurementSettingEv+0x72>
	eeprom_update_word(&EEP_STP_GLB,my_eeprom::interval_glb);
    5a44:	60 91 17 60 	lds	r22, 0x6017	; 0x806017 <_ZN9my_eeprom12interval_glbE>
    5a48:	70 91 18 60 	lds	r23, 0x6018	; 0x806018 <_ZN9my_eeprom12interval_glbE+0x1>
    5a4c:	80 e2       	ldi	r24, 0x20	; 32
    5a4e:	90 e0       	ldi	r25, 0x00	; 0
    5a50:	0e 94 8c 3e 	call	0x7d18	; 0x7d18 <eeprom_update_word>
	
	eeprom_busy_wait();
    5a54:	80 91 02 10 	lds	r24, 0x1002	; 0x801002 <__TEXT_REGION_LENGTH__+0x7f1002>
    5a58:	81 fd       	sbrc	r24, 1
    5a5a:	fc cf       	rjmp	.-8      	; 0x5a54 <_ZN9my_eeprom21SetMeasurementSettingEv+0x8a>
	eeprom_update_byte(&EEP_MES_VEL,my_eeprom::measure_vel ? 'T' : 'F');
    5a5c:	80 91 1c 60 	lds	r24, 0x601C	; 0x80601c <_ZN9my_eeprom11measure_velE>
    5a60:	88 23       	and	r24, r24
    5a62:	11 f0       	breq	.+4      	; 0x5a68 <_ZN9my_eeprom21SetMeasurementSettingEv+0x9e>
    5a64:	64 e5       	ldi	r22, 0x54	; 84
    5a66:	01 c0       	rjmp	.+2      	; 0x5a6a <_ZN9my_eeprom21SetMeasurementSettingEv+0xa0>
    5a68:	66 e4       	ldi	r22, 0x46	; 70
    5a6a:	89 e2       	ldi	r24, 0x29	; 41
    5a6c:	90 e0       	ldi	r25, 0x00	; 0
    5a6e:	0e 94 75 3e 	call	0x7cea	; 0x7cea <eeprom_update_byte>
	eeprom_busy_wait();
    5a72:	80 91 02 10 	lds	r24, 0x1002	; 0x801002 <__TEXT_REGION_LENGTH__+0x7f1002>
    5a76:	81 fd       	sbrc	r24, 1
    5a78:	fc cf       	rjmp	.-8      	; 0x5a72 <_ZN9my_eeprom21SetMeasurementSettingEv+0xa8>
	eeprom_update_word(&EEP_STP_VEL,my_eeprom::interval_vel);
    5a7a:	60 91 15 60 	lds	r22, 0x6015	; 0x806015 <_ZN9my_eeprom12interval_velE>
    5a7e:	70 91 16 60 	lds	r23, 0x6016	; 0x806016 <_ZN9my_eeprom12interval_velE+0x1>
    5a82:	8e e1       	ldi	r24, 0x1E	; 30
    5a84:	90 e0       	ldi	r25, 0x00	; 0
    5a86:	0e 94 8c 3e 	call	0x7d18	; 0x7d18 <eeprom_update_word>
	
	eeprom_busy_wait();
    5a8a:	80 91 02 10 	lds	r24, 0x1002	; 0x801002 <__TEXT_REGION_LENGTH__+0x7f1002>
    5a8e:	81 fd       	sbrc	r24, 1
    5a90:	fc cf       	rjmp	.-8      	; 0x5a8a <_ZN9my_eeprom21SetMeasurementSettingEv+0xc0>
	eeprom_update_byte(&EEP_MES_ILL,my_eeprom::measure_ill ? 'T' : 'F');
    5a92:	80 91 1b 60 	lds	r24, 0x601B	; 0x80601b <_ZN9my_eeprom11measure_illE>
    5a96:	88 23       	and	r24, r24
    5a98:	11 f0       	breq	.+4      	; 0x5a9e <_ZN9my_eeprom21SetMeasurementSettingEv+0xd4>
    5a9a:	64 e5       	ldi	r22, 0x54	; 84
    5a9c:	01 c0       	rjmp	.+2      	; 0x5aa0 <_ZN9my_eeprom21SetMeasurementSettingEv+0xd6>
    5a9e:	66 e4       	ldi	r22, 0x46	; 70
    5aa0:	88 e2       	ldi	r24, 0x28	; 40
    5aa2:	90 e0       	ldi	r25, 0x00	; 0
    5aa4:	0e 94 75 3e 	call	0x7cea	; 0x7cea <eeprom_update_byte>
	eeprom_busy_wait();
    5aa8:	80 91 02 10 	lds	r24, 0x1002	; 0x801002 <__TEXT_REGION_LENGTH__+0x7f1002>
    5aac:	81 fd       	sbrc	r24, 1
    5aae:	fc cf       	rjmp	.-8      	; 0x5aa8 <_ZN9my_eeprom21SetMeasurementSettingEv+0xde>
	eeprom_update_word(&EEP_STP_ILL,my_eeprom::interval_ill);
    5ab0:	60 91 13 60 	lds	r22, 0x6013	; 0x806013 <_ZN9my_eeprom12interval_illE>
    5ab4:	70 91 14 60 	lds	r23, 0x6014	; 0x806014 <_ZN9my_eeprom12interval_illE+0x1>
    5ab8:	8c e1       	ldi	r24, 0x1C	; 28
    5aba:	90 e0       	ldi	r25, 0x00	; 0
    5abc:	0e 94 8c 3e 	call	0x7d18	; 0x7d18 <eeprom_update_word>
	
	eeprom_busy_wait();
    5ac0:	80 91 02 10 	lds	r24, 0x1002	; 0x801002 <__TEXT_REGION_LENGTH__+0x7f1002>
    5ac4:	81 fd       	sbrc	r24, 1
    5ac6:	fc cf       	rjmp	.-8      	; 0x5ac0 <_ZN9my_eeprom21SetMeasurementSettingEv+0xf6>
	eeprom_update_byte(&EEP_MES_AD1,my_eeprom::measure_AD1 ? 'T' : 'F');
    5ac8:	80 91 94 63 	lds	r24, 0x6394	; 0x806394 <_ZN9my_eeprom11measure_AD1E>
    5acc:	88 23       	and	r24, r24
    5ace:	11 f0       	breq	.+4      	; 0x5ad4 <_ZN9my_eeprom21SetMeasurementSettingEv+0x10a>
    5ad0:	64 e5       	ldi	r22, 0x54	; 84
    5ad2:	01 c0       	rjmp	.+2      	; 0x5ad6 <_ZN9my_eeprom21SetMeasurementSettingEv+0x10c>
    5ad4:	66 e4       	ldi	r22, 0x46	; 70
    5ad6:	87 e2       	ldi	r24, 0x27	; 39
    5ad8:	90 e0       	ldi	r25, 0x00	; 0
    5ada:	0e 94 75 3e 	call	0x7cea	; 0x7cea <eeprom_update_byte>
	eeprom_busy_wait();
    5ade:	80 91 02 10 	lds	r24, 0x1002	; 0x801002 <__TEXT_REGION_LENGTH__+0x7f1002>
    5ae2:	81 fd       	sbrc	r24, 1
    5ae4:	fc cf       	rjmp	.-8      	; 0x5ade <_ZN9my_eeprom21SetMeasurementSettingEv+0x114>
	eeprom_update_word(&EEP_STP_AD1,my_eeprom::interval_AD1);
    5ae6:	60 91 11 60 	lds	r22, 0x6011	; 0x806011 <_ZN9my_eeprom12interval_AD1E>
    5aea:	70 91 12 60 	lds	r23, 0x6012	; 0x806012 <_ZN9my_eeprom12interval_AD1E+0x1>
    5aee:	8a e1       	ldi	r24, 0x1A	; 26
    5af0:	90 e0       	ldi	r25, 0x00	; 0
    5af2:	0e 94 8c 3e 	call	0x7d18	; 0x7d18 <eeprom_update_word>
	
	eeprom_busy_wait();
    5af6:	80 91 02 10 	lds	r24, 0x1002	; 0x801002 <__TEXT_REGION_LENGTH__+0x7f1002>
    5afa:	81 fd       	sbrc	r24, 1
    5afc:	fc cf       	rjmp	.-8      	; 0x5af6 <_ZN9my_eeprom21SetMeasurementSettingEv+0x12c>
	eeprom_update_byte(&EEP_MES_AD2,my_eeprom::measure_AD2 ? 'T' : 'F');
    5afe:	80 91 93 63 	lds	r24, 0x6393	; 0x806393 <_ZN9my_eeprom11measure_AD2E>
    5b02:	88 23       	and	r24, r24
    5b04:	11 f0       	breq	.+4      	; 0x5b0a <_ZN9my_eeprom21SetMeasurementSettingEv+0x140>
    5b06:	64 e5       	ldi	r22, 0x54	; 84
    5b08:	01 c0       	rjmp	.+2      	; 0x5b0c <_ZN9my_eeprom21SetMeasurementSettingEv+0x142>
    5b0a:	66 e4       	ldi	r22, 0x46	; 70
    5b0c:	86 e2       	ldi	r24, 0x26	; 38
    5b0e:	90 e0       	ldi	r25, 0x00	; 0
    5b10:	0e 94 75 3e 	call	0x7cea	; 0x7cea <eeprom_update_byte>
	eeprom_busy_wait();
    5b14:	80 91 02 10 	lds	r24, 0x1002	; 0x801002 <__TEXT_REGION_LENGTH__+0x7f1002>
    5b18:	81 fd       	sbrc	r24, 1
    5b1a:	fc cf       	rjmp	.-8      	; 0x5b14 <_ZN9my_eeprom21SetMeasurementSettingEv+0x14a>
	eeprom_update_word(&EEP_STP_AD2,my_eeprom::interval_AD2);
    5b1c:	60 91 0f 60 	lds	r22, 0x600F	; 0x80600f <_ZN9my_eeprom12interval_AD2E>
    5b20:	70 91 10 60 	lds	r23, 0x6010	; 0x806010 <_ZN9my_eeprom12interval_AD2E+0x1>
    5b24:	88 e1       	ldi	r24, 0x18	; 24
    5b26:	90 e0       	ldi	r25, 0x00	; 0
    5b28:	0e 94 8c 3e 	call	0x7d18	; 0x7d18 <eeprom_update_word>
	
	eeprom_busy_wait();
    5b2c:	80 91 02 10 	lds	r24, 0x1002	; 0x801002 <__TEXT_REGION_LENGTH__+0x7f1002>
    5b30:	81 fd       	sbrc	r24, 1
    5b32:	fc cf       	rjmp	.-8      	; 0x5b2c <_ZN9my_eeprom21SetMeasurementSettingEv+0x162>
	eeprom_update_byte(&EEP_MES_AD3,my_eeprom::measure_AD3 ? 'T' : 'F');
    5b34:	80 91 92 63 	lds	r24, 0x6392	; 0x806392 <_ZN9my_eeprom11measure_AD3E>
    5b38:	88 23       	and	r24, r24
    5b3a:	11 f0       	breq	.+4      	; 0x5b40 <_ZN9my_eeprom21SetMeasurementSettingEv+0x176>
    5b3c:	64 e5       	ldi	r22, 0x54	; 84
    5b3e:	01 c0       	rjmp	.+2      	; 0x5b42 <_ZN9my_eeprom21SetMeasurementSettingEv+0x178>
    5b40:	66 e4       	ldi	r22, 0x46	; 70
    5b42:	85 e2       	ldi	r24, 0x25	; 37
    5b44:	90 e0       	ldi	r25, 0x00	; 0
    5b46:	0e 94 75 3e 	call	0x7cea	; 0x7cea <eeprom_update_byte>
	eeprom_busy_wait();
    5b4a:	80 91 02 10 	lds	r24, 0x1002	; 0x801002 <__TEXT_REGION_LENGTH__+0x7f1002>
    5b4e:	81 fd       	sbrc	r24, 1
    5b50:	fc cf       	rjmp	.-8      	; 0x5b4a <_ZN9my_eeprom21SetMeasurementSettingEv+0x180>
	eeprom_update_word(&EEP_STP_AD3,my_eeprom::interval_AD3);
    5b52:	60 91 0d 60 	lds	r22, 0x600D	; 0x80600d <_ZN9my_eeprom12interval_AD3E>
    5b56:	70 91 0e 60 	lds	r23, 0x600E	; 0x80600e <_ZN9my_eeprom12interval_AD3E+0x1>
    5b5a:	86 e1       	ldi	r24, 0x16	; 22
    5b5c:	90 e0       	ldi	r25, 0x00	; 0
    5b5e:	0e 94 8c 3e 	call	0x7d18	; 0x7d18 <eeprom_update_word>
	
	eeprom_busy_wait();
    5b62:	80 91 02 10 	lds	r24, 0x1002	; 0x801002 <__TEXT_REGION_LENGTH__+0x7f1002>
    5b66:	81 fd       	sbrc	r24, 1
    5b68:	fc cf       	rjmp	.-8      	; 0x5b62 <_ZN9my_eeprom21SetMeasurementSettingEv+0x198>
	eeprom_update_byte(&EEP_MES_PRX,my_eeprom::measure_Prox ? 'T' : 'F');
    5b6a:	80 91 91 63 	lds	r24, 0x6391	; 0x806391 <_ZN9my_eeprom12measure_ProxE>
    5b6e:	88 23       	and	r24, r24
    5b70:	11 f0       	breq	.+4      	; 0x5b76 <_ZN9my_eeprom21SetMeasurementSettingEv+0x1ac>
    5b72:	64 e5       	ldi	r22, 0x54	; 84
    5b74:	01 c0       	rjmp	.+2      	; 0x5b78 <_ZN9my_eeprom21SetMeasurementSettingEv+0x1ae>
    5b76:	66 e4       	ldi	r22, 0x46	; 70
    5b78:	84 e2       	ldi	r24, 0x24	; 36
    5b7a:	90 e0       	ldi	r25, 0x00	; 0
    5b7c:	0e 94 75 3e 	call	0x7cea	; 0x7cea <eeprom_update_byte>
    5b80:	08 95       	ret

00005b82 <_ZN9my_eeprom8SaveNameEv>:
}

//
void my_eeprom::SaveName()
{
	eeprom_busy_wait();
    5b82:	80 91 02 10 	lds	r24, 0x1002	; 0x801002 <__TEXT_REGION_LENGTH__+0x7f1002>
    5b86:	81 fd       	sbrc	r24, 1
    5b88:	fc cf       	rjmp	.-8      	; 0x5b82 <_ZN9my_eeprom8SaveNameEv>
	eeprom_update_block(mlName, EEP_NAME, sizeof(mlName));
    5b8a:	45 e1       	ldi	r20, 0x15	; 21
    5b8c:	50 e0       	ldi	r21, 0x00	; 0
    5b8e:	60 e0       	ldi	r22, 0x00	; 0
    5b90:	70 e0       	ldi	r23, 0x00	; 0
    5b92:	8b e7       	ldi	r24, 0x7B	; 123
    5b94:	93 e6       	ldi	r25, 0x63	; 99
    5b96:	0e 94 65 3e 	call	0x7cca	; 0x7cca <eeprom_update_block>
    5b9a:	08 95       	ret

00005b9c <_Z20LoadCorrectionFactorv>:

//W
void LoadCorrectionFactor()
{
	//W
	eeprom_busy_wait();
    5b9c:	80 91 02 10 	lds	r24, 0x1002	; 0x801002 <__TEXT_REGION_LENGTH__+0x7f1002>
    5ba0:	81 fd       	sbrc	r24, 1
    5ba2:	fc cf       	rjmp	.-8      	; 0x5b9c <_Z20LoadCorrectionFactorv>
	my_eeprom::Cf_dbtA = eeprom_read_float (&EEP_DBTCF_A);
    5ba4:	84 e5       	ldi	r24, 0x54	; 84
    5ba6:	90 e0       	ldi	r25, 0x00	; 0
    5ba8:	0e 94 59 3e 	call	0x7cb2	; 0x7cb2 <eeprom_read_dword>
    5bac:	60 93 33 60 	sts	0x6033, r22	; 0x806033 <_ZN9my_eeprom7Cf_dbtAE>
    5bb0:	70 93 34 60 	sts	0x6034, r23	; 0x806034 <_ZN9my_eeprom7Cf_dbtAE+0x1>
    5bb4:	80 93 35 60 	sts	0x6035, r24	; 0x806035 <_ZN9my_eeprom7Cf_dbtAE+0x2>
    5bb8:	90 93 36 60 	sts	0x6036, r25	; 0x806036 <_ZN9my_eeprom7Cf_dbtAE+0x3>
	eeprom_busy_wait();
    5bbc:	80 91 02 10 	lds	r24, 0x1002	; 0x801002 <__TEXT_REGION_LENGTH__+0x7f1002>
    5bc0:	81 fd       	sbrc	r24, 1
    5bc2:	fc cf       	rjmp	.-8      	; 0x5bbc <_Z20LoadCorrectionFactorv+0x20>
	my_eeprom::Cf_dbtB = eeprom_read_float (&EEP_DBTCF_B);
    5bc4:	80 e5       	ldi	r24, 0x50	; 80
    5bc6:	90 e0       	ldi	r25, 0x00	; 0
    5bc8:	0e 94 59 3e 	call	0x7cb2	; 0x7cb2 <eeprom_read_dword>
    5bcc:	60 93 a5 63 	sts	0x63A5, r22	; 0x8063a5 <_ZN9my_eeprom7Cf_dbtBE>
    5bd0:	70 93 a6 63 	sts	0x63A6, r23	; 0x8063a6 <_ZN9my_eeprom7Cf_dbtBE+0x1>
    5bd4:	80 93 a7 63 	sts	0x63A7, r24	; 0x8063a7 <_ZN9my_eeprom7Cf_dbtBE+0x2>
    5bd8:	90 93 a8 63 	sts	0x63A8, r25	; 0x8063a8 <_ZN9my_eeprom7Cf_dbtBE+0x3>
	eeprom_busy_wait();
    5bdc:	80 91 02 10 	lds	r24, 0x1002	; 0x801002 <__TEXT_REGION_LENGTH__+0x7f1002>
    5be0:	81 fd       	sbrc	r24, 1
    5be2:	fc cf       	rjmp	.-8      	; 0x5bdc <_Z20LoadCorrectionFactorv+0x40>
	my_eeprom::Cf_hmdA = eeprom_read_float (&EEP_HMDCF_A);
    5be4:	8c e4       	ldi	r24, 0x4C	; 76
    5be6:	90 e0       	ldi	r25, 0x00	; 0
    5be8:	0e 94 59 3e 	call	0x7cb2	; 0x7cb2 <eeprom_read_dword>
    5bec:	60 93 2f 60 	sts	0x602F, r22	; 0x80602f <_ZN9my_eeprom7Cf_hmdAE>
    5bf0:	70 93 30 60 	sts	0x6030, r23	; 0x806030 <_ZN9my_eeprom7Cf_hmdAE+0x1>
    5bf4:	80 93 31 60 	sts	0x6031, r24	; 0x806031 <_ZN9my_eeprom7Cf_hmdAE+0x2>
    5bf8:	90 93 32 60 	sts	0x6032, r25	; 0x806032 <_ZN9my_eeprom7Cf_hmdAE+0x3>
	eeprom_busy_wait();
    5bfc:	80 91 02 10 	lds	r24, 0x1002	; 0x801002 <__TEXT_REGION_LENGTH__+0x7f1002>
    5c00:	81 fd       	sbrc	r24, 1
    5c02:	fc cf       	rjmp	.-8      	; 0x5bfc <_Z20LoadCorrectionFactorv+0x60>
	my_eeprom::Cf_hmdB = eeprom_read_float (&EEP_HMDCF_B);
    5c04:	88 e4       	ldi	r24, 0x48	; 72
    5c06:	90 e0       	ldi	r25, 0x00	; 0
    5c08:	0e 94 59 3e 	call	0x7cb2	; 0x7cb2 <eeprom_read_dword>
    5c0c:	60 93 a1 63 	sts	0x63A1, r22	; 0x8063a1 <_ZN9my_eeprom7Cf_hmdBE>
    5c10:	70 93 a2 63 	sts	0x63A2, r23	; 0x8063a2 <_ZN9my_eeprom7Cf_hmdBE+0x1>
    5c14:	80 93 a3 63 	sts	0x63A3, r24	; 0x8063a3 <_ZN9my_eeprom7Cf_hmdBE+0x2>
    5c18:	90 93 a4 63 	sts	0x63A4, r25	; 0x8063a4 <_ZN9my_eeprom7Cf_hmdBE+0x3>
	eeprom_busy_wait();
    5c1c:	80 91 02 10 	lds	r24, 0x1002	; 0x801002 <__TEXT_REGION_LENGTH__+0x7f1002>
    5c20:	81 fd       	sbrc	r24, 1
    5c22:	fc cf       	rjmp	.-8      	; 0x5c1c <_Z20LoadCorrectionFactorv+0x80>
	my_eeprom::Cf_glbA = eeprom_read_float (&EEP_GLBCF_A);
    5c24:	84 e4       	ldi	r24, 0x44	; 68
    5c26:	90 e0       	ldi	r25, 0x00	; 0
    5c28:	0e 94 59 3e 	call	0x7cb2	; 0x7cb2 <eeprom_read_dword>
    5c2c:	60 93 2b 60 	sts	0x602B, r22	; 0x80602b <_ZN9my_eeprom7Cf_glbAE>
    5c30:	70 93 2c 60 	sts	0x602C, r23	; 0x80602c <_ZN9my_eeprom7Cf_glbAE+0x1>
    5c34:	80 93 2d 60 	sts	0x602D, r24	; 0x80602d <_ZN9my_eeprom7Cf_glbAE+0x2>
    5c38:	90 93 2e 60 	sts	0x602E, r25	; 0x80602e <_ZN9my_eeprom7Cf_glbAE+0x3>
	eeprom_busy_wait();
    5c3c:	80 91 02 10 	lds	r24, 0x1002	; 0x801002 <__TEXT_REGION_LENGTH__+0x7f1002>
    5c40:	81 fd       	sbrc	r24, 1
    5c42:	fc cf       	rjmp	.-8      	; 0x5c3c <_Z20LoadCorrectionFactorv+0xa0>
	my_eeprom::Cf_glbB = eeprom_read_float (&EEP_GLBCF_B);
    5c44:	80 e4       	ldi	r24, 0x40	; 64
    5c46:	90 e0       	ldi	r25, 0x00	; 0
    5c48:	0e 94 59 3e 	call	0x7cb2	; 0x7cb2 <eeprom_read_dword>
    5c4c:	60 93 9d 63 	sts	0x639D, r22	; 0x80639d <_ZN9my_eeprom7Cf_glbBE>
    5c50:	70 93 9e 63 	sts	0x639E, r23	; 0x80639e <_ZN9my_eeprom7Cf_glbBE+0x1>
    5c54:	80 93 9f 63 	sts	0x639F, r24	; 0x80639f <_ZN9my_eeprom7Cf_glbBE+0x2>
    5c58:	90 93 a0 63 	sts	0x63A0, r25	; 0x8063a0 <_ZN9my_eeprom7Cf_glbBE+0x3>
	eeprom_busy_wait();
    5c5c:	80 91 02 10 	lds	r24, 0x1002	; 0x801002 <__TEXT_REGION_LENGTH__+0x7f1002>
    5c60:	81 fd       	sbrc	r24, 1
    5c62:	fc cf       	rjmp	.-8      	; 0x5c5c <_Z20LoadCorrectionFactorv+0xc0>
	my_eeprom::Cf_luxA = eeprom_read_float (&EEP_LUXCF_A);
    5c64:	8c e3       	ldi	r24, 0x3C	; 60
    5c66:	90 e0       	ldi	r25, 0x00	; 0
    5c68:	0e 94 59 3e 	call	0x7cb2	; 0x7cb2 <eeprom_read_dword>
    5c6c:	60 93 27 60 	sts	0x6027, r22	; 0x806027 <_ZN9my_eeprom7Cf_luxAE>
    5c70:	70 93 28 60 	sts	0x6028, r23	; 0x806028 <_ZN9my_eeprom7Cf_luxAE+0x1>
    5c74:	80 93 29 60 	sts	0x6029, r24	; 0x806029 <_ZN9my_eeprom7Cf_luxAE+0x2>
    5c78:	90 93 2a 60 	sts	0x602A, r25	; 0x80602a <_ZN9my_eeprom7Cf_luxAE+0x3>
	eeprom_busy_wait();
    5c7c:	80 91 02 10 	lds	r24, 0x1002	; 0x801002 <__TEXT_REGION_LENGTH__+0x7f1002>
    5c80:	81 fd       	sbrc	r24, 1
    5c82:	fc cf       	rjmp	.-8      	; 0x5c7c <_Z20LoadCorrectionFactorv+0xe0>
	my_eeprom::Cf_luxB = eeprom_read_float (&EEP_LUXCF_B);
    5c84:	88 e3       	ldi	r24, 0x38	; 56
    5c86:	90 e0       	ldi	r25, 0x00	; 0
    5c88:	0e 94 59 3e 	call	0x7cb2	; 0x7cb2 <eeprom_read_dword>
    5c8c:	60 93 99 63 	sts	0x6399, r22	; 0x806399 <_ZN9my_eeprom7Cf_luxBE>
    5c90:	70 93 9a 63 	sts	0x639A, r23	; 0x80639a <_ZN9my_eeprom7Cf_luxBE+0x1>
    5c94:	80 93 9b 63 	sts	0x639B, r24	; 0x80639b <_ZN9my_eeprom7Cf_luxBE+0x2>
    5c98:	90 93 9c 63 	sts	0x639C, r25	; 0x80639c <_ZN9my_eeprom7Cf_luxBE+0x3>
	eeprom_busy_wait();
    5c9c:	80 91 02 10 	lds	r24, 0x1002	; 0x801002 <__TEXT_REGION_LENGTH__+0x7f1002>
    5ca0:	81 fd       	sbrc	r24, 1
    5ca2:	fc cf       	rjmp	.-8      	; 0x5c9c <_Z20LoadCorrectionFactorv+0x100>
	my_eeprom::Cf_velA = eeprom_read_float (&EEP_VELCF_A);
    5ca4:	84 e3       	ldi	r24, 0x34	; 52
    5ca6:	90 e0       	ldi	r25, 0x00	; 0
    5ca8:	0e 94 59 3e 	call	0x7cb2	; 0x7cb2 <eeprom_read_dword>
    5cac:	60 93 23 60 	sts	0x6023, r22	; 0x806023 <_ZN9my_eeprom7Cf_velAE>
    5cb0:	70 93 24 60 	sts	0x6024, r23	; 0x806024 <_ZN9my_eeprom7Cf_velAE+0x1>
    5cb4:	80 93 25 60 	sts	0x6025, r24	; 0x806025 <_ZN9my_eeprom7Cf_velAE+0x2>
    5cb8:	90 93 26 60 	sts	0x6026, r25	; 0x806026 <_ZN9my_eeprom7Cf_velAE+0x3>
	eeprom_busy_wait();
    5cbc:	80 91 02 10 	lds	r24, 0x1002	; 0x801002 <__TEXT_REGION_LENGTH__+0x7f1002>
    5cc0:	81 fd       	sbrc	r24, 1
    5cc2:	fc cf       	rjmp	.-8      	; 0x5cbc <_Z20LoadCorrectionFactorv+0x120>
	my_eeprom::Cf_velB = eeprom_read_float (&EEP_VELCF_B);
    5cc4:	80 e3       	ldi	r24, 0x30	; 48
    5cc6:	90 e0       	ldi	r25, 0x00	; 0
    5cc8:	0e 94 59 3e 	call	0x7cb2	; 0x7cb2 <eeprom_read_dword>
    5ccc:	60 93 95 63 	sts	0x6395, r22	; 0x806395 <_ZN9my_eeprom7Cf_velBE>
    5cd0:	70 93 96 63 	sts	0x6396, r23	; 0x806396 <_ZN9my_eeprom7Cf_velBE+0x1>
    5cd4:	80 93 97 63 	sts	0x6397, r24	; 0x806397 <_ZN9my_eeprom7Cf_velBE+0x2>
    5cd8:	90 93 98 63 	sts	0x6398, r25	; 0x806398 <_ZN9my_eeprom7Cf_velBE+0x3>
	eeprom_busy_wait();
    5cdc:	80 91 02 10 	lds	r24, 0x1002	; 0x801002 <__TEXT_REGION_LENGTH__+0x7f1002>
    5ce0:	81 fd       	sbrc	r24, 1
    5ce2:	fc cf       	rjmp	.-8      	; 0x5cdc <_Z20LoadCorrectionFactorv+0x140>
	my_eeprom::Cf_vel0 = eeprom_read_float (&EEP_VEL0);
    5ce4:	8c e2       	ldi	r24, 0x2C	; 44
    5ce6:	90 e0       	ldi	r25, 0x00	; 0
    5ce8:	0e 94 59 3e 	call	0x7cb2	; 0x7cb2 <eeprom_read_dword>
    5cec:	60 93 1f 60 	sts	0x601F, r22	; 0x80601f <_ZN9my_eeprom7Cf_vel0E>
    5cf0:	70 93 20 60 	sts	0x6020, r23	; 0x806020 <_ZN9my_eeprom7Cf_vel0E+0x1>
    5cf4:	80 93 21 60 	sts	0x6021, r24	; 0x806021 <_ZN9my_eeprom7Cf_vel0E+0x2>
    5cf8:	90 93 22 60 	sts	0x6022, r25	; 0x806022 <_ZN9my_eeprom7Cf_vel0E+0x3>
    5cfc:	08 95       	ret

00005cfe <_Z22LoadMeasurementSettingv>:
}

//v
void LoadMeasurementSetting()
{
	eeprom_busy_wait();
    5cfe:	80 91 02 10 	lds	r24, 0x1002	; 0x801002 <__TEXT_REGION_LENGTH__+0x7f1002>
    5d02:	81 fd       	sbrc	r24, 1
    5d04:	fc cf       	rjmp	.-8      	; 0x5cfe <_Z22LoadMeasurementSettingv>
	my_eeprom::startAuto = (eeprom_read_byte(&EEP_START_AUTO) == 'T');
    5d06:	85 e1       	ldi	r24, 0x15	; 21
    5d08:	90 e0       	ldi	r25, 0x00	; 0
    5d0a:	0e 94 51 3e 	call	0x7ca2	; 0x7ca2 <eeprom_read_byte>
    5d0e:	91 e0       	ldi	r25, 0x01	; 1
    5d10:	84 35       	cpi	r24, 0x54	; 84
    5d12:	09 f0       	breq	.+2      	; 0x5d16 <_Z22LoadMeasurementSettingv+0x18>
    5d14:	90 e0       	ldi	r25, 0x00	; 0
    5d16:	90 93 90 63 	sts	0x6390, r25	; 0x806390 <_ZN9my_eeprom9startAutoE>
	
	eeprom_busy_wait();
    5d1a:	80 91 02 10 	lds	r24, 0x1002	; 0x801002 <__TEXT_REGION_LENGTH__+0x7f1002>
    5d1e:	81 fd       	sbrc	r24, 1
    5d20:	fc cf       	rjmp	.-8      	; 0x5d1a <_Z22LoadMeasurementSettingv+0x1c>
	my_eeprom::measure_th = (eeprom_read_byte(&EEP_MES_TH) == 'T');
    5d22:	8b e2       	ldi	r24, 0x2B	; 43
    5d24:	90 e0       	ldi	r25, 0x00	; 0
    5d26:	0e 94 51 3e 	call	0x7ca2	; 0x7ca2 <eeprom_read_byte>
    5d2a:	91 e0       	ldi	r25, 0x01	; 1
    5d2c:	84 35       	cpi	r24, 0x54	; 84
    5d2e:	09 f0       	breq	.+2      	; 0x5d32 <_Z22LoadMeasurementSettingv+0x34>
    5d30:	90 e0       	ldi	r25, 0x00	; 0
    5d32:	90 93 1e 60 	sts	0x601E, r25	; 0x80601e <_ZN9my_eeprom10measure_thE>
	eeprom_busy_wait();
    5d36:	80 91 02 10 	lds	r24, 0x1002	; 0x801002 <__TEXT_REGION_LENGTH__+0x7f1002>
    5d3a:	81 fd       	sbrc	r24, 1
    5d3c:	fc cf       	rjmp	.-8      	; 0x5d36 <_Z22LoadMeasurementSettingv+0x38>
	my_eeprom::interval_th = eeprom_read_word(&EEP_STP_TH);
    5d3e:	82 e2       	ldi	r24, 0x22	; 34
    5d40:	90 e0       	ldi	r25, 0x00	; 0
    5d42:	0e 94 60 3e 	call	0x7cc0	; 0x7cc0 <eeprom_read_word>
    5d46:	80 93 19 60 	sts	0x6019, r24	; 0x806019 <_ZN9my_eeprom11interval_thE>
    5d4a:	90 93 1a 60 	sts	0x601A, r25	; 0x80601a <_ZN9my_eeprom11interval_thE+0x1>
	
	eeprom_busy_wait();
    5d4e:	80 91 02 10 	lds	r24, 0x1002	; 0x801002 <__TEXT_REGION_LENGTH__+0x7f1002>
    5d52:	81 fd       	sbrc	r24, 1
    5d54:	fc cf       	rjmp	.-8      	; 0x5d4e <_Z22LoadMeasurementSettingv+0x50>
	my_eeprom::measure_glb = (eeprom_read_byte(&EEP_MES_GLB) == 'T');
    5d56:	8a e2       	ldi	r24, 0x2A	; 42
    5d58:	90 e0       	ldi	r25, 0x00	; 0
    5d5a:	0e 94 51 3e 	call	0x7ca2	; 0x7ca2 <eeprom_read_byte>
    5d5e:	91 e0       	ldi	r25, 0x01	; 1
    5d60:	84 35       	cpi	r24, 0x54	; 84
    5d62:	09 f0       	breq	.+2      	; 0x5d66 <_Z22LoadMeasurementSettingv+0x68>
    5d64:	90 e0       	ldi	r25, 0x00	; 0
    5d66:	90 93 1d 60 	sts	0x601D, r25	; 0x80601d <_ZN9my_eeprom11measure_glbE>
	eeprom_busy_wait();
    5d6a:	80 91 02 10 	lds	r24, 0x1002	; 0x801002 <__TEXT_REGION_LENGTH__+0x7f1002>
    5d6e:	81 fd       	sbrc	r24, 1
    5d70:	fc cf       	rjmp	.-8      	; 0x5d6a <_Z22LoadMeasurementSettingv+0x6c>
	my_eeprom::interval_glb = eeprom_read_word(&EEP_STP_GLB);
    5d72:	80 e2       	ldi	r24, 0x20	; 32
    5d74:	90 e0       	ldi	r25, 0x00	; 0
    5d76:	0e 94 60 3e 	call	0x7cc0	; 0x7cc0 <eeprom_read_word>
    5d7a:	80 93 17 60 	sts	0x6017, r24	; 0x806017 <_ZN9my_eeprom12interval_glbE>
    5d7e:	90 93 18 60 	sts	0x6018, r25	; 0x806018 <_ZN9my_eeprom12interval_glbE+0x1>
	
	eeprom_busy_wait();
    5d82:	80 91 02 10 	lds	r24, 0x1002	; 0x801002 <__TEXT_REGION_LENGTH__+0x7f1002>
    5d86:	81 fd       	sbrc	r24, 1
    5d88:	fc cf       	rjmp	.-8      	; 0x5d82 <_Z22LoadMeasurementSettingv+0x84>
	my_eeprom::measure_vel = (eeprom_read_byte(&EEP_MES_VEL) == 'T');
    5d8a:	89 e2       	ldi	r24, 0x29	; 41
    5d8c:	90 e0       	ldi	r25, 0x00	; 0
    5d8e:	0e 94 51 3e 	call	0x7ca2	; 0x7ca2 <eeprom_read_byte>
    5d92:	91 e0       	ldi	r25, 0x01	; 1
    5d94:	84 35       	cpi	r24, 0x54	; 84
    5d96:	09 f0       	breq	.+2      	; 0x5d9a <_Z22LoadMeasurementSettingv+0x9c>
    5d98:	90 e0       	ldi	r25, 0x00	; 0
    5d9a:	90 93 1c 60 	sts	0x601C, r25	; 0x80601c <_ZN9my_eeprom11measure_velE>
	eeprom_busy_wait();
    5d9e:	80 91 02 10 	lds	r24, 0x1002	; 0x801002 <__TEXT_REGION_LENGTH__+0x7f1002>
    5da2:	81 fd       	sbrc	r24, 1
    5da4:	fc cf       	rjmp	.-8      	; 0x5d9e <_Z22LoadMeasurementSettingv+0xa0>
	my_eeprom::interval_vel = eeprom_read_word(&EEP_STP_VEL);
    5da6:	8e e1       	ldi	r24, 0x1E	; 30
    5da8:	90 e0       	ldi	r25, 0x00	; 0
    5daa:	0e 94 60 3e 	call	0x7cc0	; 0x7cc0 <eeprom_read_word>
    5dae:	80 93 15 60 	sts	0x6015, r24	; 0x806015 <_ZN9my_eeprom12interval_velE>
    5db2:	90 93 16 60 	sts	0x6016, r25	; 0x806016 <_ZN9my_eeprom12interval_velE+0x1>
	
	eeprom_busy_wait();
    5db6:	80 91 02 10 	lds	r24, 0x1002	; 0x801002 <__TEXT_REGION_LENGTH__+0x7f1002>
    5dba:	81 fd       	sbrc	r24, 1
    5dbc:	fc cf       	rjmp	.-8      	; 0x5db6 <_Z22LoadMeasurementSettingv+0xb8>
	my_eeprom::measure_ill = (eeprom_read_byte(&EEP_MES_ILL) == 'T');
    5dbe:	88 e2       	ldi	r24, 0x28	; 40
    5dc0:	90 e0       	ldi	r25, 0x00	; 0
    5dc2:	0e 94 51 3e 	call	0x7ca2	; 0x7ca2 <eeprom_read_byte>
    5dc6:	91 e0       	ldi	r25, 0x01	; 1
    5dc8:	84 35       	cpi	r24, 0x54	; 84
    5dca:	09 f0       	breq	.+2      	; 0x5dce <_Z22LoadMeasurementSettingv+0xd0>
    5dcc:	90 e0       	ldi	r25, 0x00	; 0
    5dce:	90 93 1b 60 	sts	0x601B, r25	; 0x80601b <_ZN9my_eeprom11measure_illE>
	eeprom_busy_wait();
    5dd2:	80 91 02 10 	lds	r24, 0x1002	; 0x801002 <__TEXT_REGION_LENGTH__+0x7f1002>
    5dd6:	81 fd       	sbrc	r24, 1
    5dd8:	fc cf       	rjmp	.-8      	; 0x5dd2 <_Z22LoadMeasurementSettingv+0xd4>
	my_eeprom::interval_ill = eeprom_read_word(&EEP_STP_ILL);
    5dda:	8c e1       	ldi	r24, 0x1C	; 28
    5ddc:	90 e0       	ldi	r25, 0x00	; 0
    5dde:	0e 94 60 3e 	call	0x7cc0	; 0x7cc0 <eeprom_read_word>
    5de2:	80 93 13 60 	sts	0x6013, r24	; 0x806013 <_ZN9my_eeprom12interval_illE>
    5de6:	90 93 14 60 	sts	0x6014, r25	; 0x806014 <_ZN9my_eeprom12interval_illE+0x1>
	
	eeprom_busy_wait();
    5dea:	80 91 02 10 	lds	r24, 0x1002	; 0x801002 <__TEXT_REGION_LENGTH__+0x7f1002>
    5dee:	81 fd       	sbrc	r24, 1
    5df0:	fc cf       	rjmp	.-8      	; 0x5dea <_Z22LoadMeasurementSettingv+0xec>
	my_eeprom::measure_AD1 = (eeprom_read_byte(&EEP_MES_AD1) == 'T');
    5df2:	87 e2       	ldi	r24, 0x27	; 39
    5df4:	90 e0       	ldi	r25, 0x00	; 0
    5df6:	0e 94 51 3e 	call	0x7ca2	; 0x7ca2 <eeprom_read_byte>
    5dfa:	91 e0       	ldi	r25, 0x01	; 1
    5dfc:	84 35       	cpi	r24, 0x54	; 84
    5dfe:	09 f0       	breq	.+2      	; 0x5e02 <_Z22LoadMeasurementSettingv+0x104>
    5e00:	90 e0       	ldi	r25, 0x00	; 0
    5e02:	90 93 94 63 	sts	0x6394, r25	; 0x806394 <_ZN9my_eeprom11measure_AD1E>
	eeprom_busy_wait();
    5e06:	80 91 02 10 	lds	r24, 0x1002	; 0x801002 <__TEXT_REGION_LENGTH__+0x7f1002>
    5e0a:	81 fd       	sbrc	r24, 1
    5e0c:	fc cf       	rjmp	.-8      	; 0x5e06 <_Z22LoadMeasurementSettingv+0x108>
	my_eeprom::interval_AD1 = eeprom_read_word(&EEP_STP_AD1);
    5e0e:	8a e1       	ldi	r24, 0x1A	; 26
    5e10:	90 e0       	ldi	r25, 0x00	; 0
    5e12:	0e 94 60 3e 	call	0x7cc0	; 0x7cc0 <eeprom_read_word>
    5e16:	80 93 11 60 	sts	0x6011, r24	; 0x806011 <_ZN9my_eeprom12interval_AD1E>
    5e1a:	90 93 12 60 	sts	0x6012, r25	; 0x806012 <_ZN9my_eeprom12interval_AD1E+0x1>
	
	eeprom_busy_wait();
    5e1e:	80 91 02 10 	lds	r24, 0x1002	; 0x801002 <__TEXT_REGION_LENGTH__+0x7f1002>
    5e22:	81 fd       	sbrc	r24, 1
    5e24:	fc cf       	rjmp	.-8      	; 0x5e1e <_Z22LoadMeasurementSettingv+0x120>
	my_eeprom::measure_AD2 = (eeprom_read_byte(&EEP_MES_AD2) == 'T');
    5e26:	86 e2       	ldi	r24, 0x26	; 38
    5e28:	90 e0       	ldi	r25, 0x00	; 0
    5e2a:	0e 94 51 3e 	call	0x7ca2	; 0x7ca2 <eeprom_read_byte>
    5e2e:	91 e0       	ldi	r25, 0x01	; 1
    5e30:	84 35       	cpi	r24, 0x54	; 84
    5e32:	09 f0       	breq	.+2      	; 0x5e36 <_Z22LoadMeasurementSettingv+0x138>
    5e34:	90 e0       	ldi	r25, 0x00	; 0
    5e36:	90 93 93 63 	sts	0x6393, r25	; 0x806393 <_ZN9my_eeprom11measure_AD2E>
	eeprom_busy_wait();
    5e3a:	80 91 02 10 	lds	r24, 0x1002	; 0x801002 <__TEXT_REGION_LENGTH__+0x7f1002>
    5e3e:	81 fd       	sbrc	r24, 1
    5e40:	fc cf       	rjmp	.-8      	; 0x5e3a <_Z22LoadMeasurementSettingv+0x13c>
	my_eeprom::interval_AD2 = eeprom_read_word(&EEP_STP_AD2);
    5e42:	88 e1       	ldi	r24, 0x18	; 24
    5e44:	90 e0       	ldi	r25, 0x00	; 0
    5e46:	0e 94 60 3e 	call	0x7cc0	; 0x7cc0 <eeprom_read_word>
    5e4a:	80 93 0f 60 	sts	0x600F, r24	; 0x80600f <_ZN9my_eeprom12interval_AD2E>
    5e4e:	90 93 10 60 	sts	0x6010, r25	; 0x806010 <_ZN9my_eeprom12interval_AD2E+0x1>
	
	eeprom_busy_wait();
    5e52:	80 91 02 10 	lds	r24, 0x1002	; 0x801002 <__TEXT_REGION_LENGTH__+0x7f1002>
    5e56:	81 fd       	sbrc	r24, 1
    5e58:	fc cf       	rjmp	.-8      	; 0x5e52 <_Z22LoadMeasurementSettingv+0x154>
	my_eeprom::measure_AD3 = (eeprom_read_byte(&EEP_MES_AD3) == 'T');
    5e5a:	85 e2       	ldi	r24, 0x25	; 37
    5e5c:	90 e0       	ldi	r25, 0x00	; 0
    5e5e:	0e 94 51 3e 	call	0x7ca2	; 0x7ca2 <eeprom_read_byte>
    5e62:	91 e0       	ldi	r25, 0x01	; 1
    5e64:	84 35       	cpi	r24, 0x54	; 84
    5e66:	09 f0       	breq	.+2      	; 0x5e6a <_Z22LoadMeasurementSettingv+0x16c>
    5e68:	90 e0       	ldi	r25, 0x00	; 0
    5e6a:	90 93 92 63 	sts	0x6392, r25	; 0x806392 <_ZN9my_eeprom11measure_AD3E>
	eeprom_busy_wait();
    5e6e:	80 91 02 10 	lds	r24, 0x1002	; 0x801002 <__TEXT_REGION_LENGTH__+0x7f1002>
    5e72:	81 fd       	sbrc	r24, 1
    5e74:	fc cf       	rjmp	.-8      	; 0x5e6e <_Z22LoadMeasurementSettingv+0x170>
	my_eeprom::interval_AD3 = eeprom_read_word(&EEP_STP_AD3);
    5e76:	86 e1       	ldi	r24, 0x16	; 22
    5e78:	90 e0       	ldi	r25, 0x00	; 0
    5e7a:	0e 94 60 3e 	call	0x7cc0	; 0x7cc0 <eeprom_read_word>
    5e7e:	80 93 0d 60 	sts	0x600D, r24	; 0x80600d <_ZN9my_eeprom12interval_AD3E>
    5e82:	90 93 0e 60 	sts	0x600E, r25	; 0x80600e <_ZN9my_eeprom12interval_AD3E+0x1>
	
	eeprom_busy_wait();
    5e86:	80 91 02 10 	lds	r24, 0x1002	; 0x801002 <__TEXT_REGION_LENGTH__+0x7f1002>
    5e8a:	81 fd       	sbrc	r24, 1
    5e8c:	fc cf       	rjmp	.-8      	; 0x5e86 <_Z22LoadMeasurementSettingv+0x188>
	my_eeprom::measure_Prox = (eeprom_read_byte(&EEP_MES_PRX) == 'T');
    5e8e:	84 e2       	ldi	r24, 0x24	; 36
    5e90:	90 e0       	ldi	r25, 0x00	; 0
    5e92:	0e 94 51 3e 	call	0x7ca2	; 0x7ca2 <eeprom_read_byte>
    5e96:	91 e0       	ldi	r25, 0x01	; 1
    5e98:	84 35       	cpi	r24, 0x54	; 84
    5e9a:	09 f0       	breq	.+2      	; 0x5e9e <_Z22LoadMeasurementSettingv+0x1a0>
    5e9c:	90 e0       	ldi	r25, 0x00	; 0
    5e9e:	90 93 91 63 	sts	0x6391, r25	; 0x806391 <_ZN9my_eeprom12measure_ProxE>
    5ea2:	08 95       	ret

00005ea4 <_Z8LoadNamev>:
}

//
void LoadName()
{
	eeprom_busy_wait();
    5ea4:	80 91 02 10 	lds	r24, 0x1002	; 0x801002 <__TEXT_REGION_LENGTH__+0x7f1002>
    5ea8:	81 fd       	sbrc	r24, 1
    5eaa:	fc cf       	rjmp	.-8      	; 0x5ea4 <_Z8LoadNamev>
	eeprom_read_block(my_eeprom::mlName, EEP_NAME, sizeof(my_eeprom::mlName));
    5eac:	45 e1       	ldi	r20, 0x15	; 21
    5eae:	50 e0       	ldi	r21, 0x00	; 0
    5eb0:	60 e0       	ldi	r22, 0x00	; 0
    5eb2:	70 e0       	ldi	r23, 0x00	; 0
    5eb4:	8b e7       	ldi	r24, 0x7B	; 123
    5eb6:	93 e6       	ldi	r25, 0x63	; 99
    5eb8:	0e 94 4d 3e 	call	0x7c9a	; 0x7c9a <eeprom_read_block>
    5ebc:	08 95       	ret

00005ebe <_ZN9my_eeprom10LoadEEPROMEv>:
	//eeprom_update_byte(&EEP_INITFLAG, 'F');
	
	//W
	//https://scienceprog.com/tip-on-storing-initial-values-in-eeprom-of-avr-microcontroller/
	//@AEEPROMuEEP_INITFLAGvuTvj]EEE
	eeprom_busy_wait(); //EEPROM\@
    5ebe:	80 91 02 10 	lds	r24, 0x1002	; 0x801002 <__TEXT_REGION_LENGTH__+0x7f1002>
    5ec2:	81 fd       	sbrc	r24, 1
    5ec4:	fc cf       	rjmp	.-8      	; 0x5ebe <_ZN9my_eeprom10LoadEEPROMEv>
	if (eeprom_read_byte(&EEP_INITFLAG) != 'T') initMemory();
    5ec6:	88 e5       	ldi	r24, 0x58	; 88
    5ec8:	90 e0       	ldi	r25, 0x00	; 0
    5eca:	0e 94 51 3e 	call	0x7ca2	; 0x7ca2 <eeprom_read_byte>
    5ece:	84 35       	cpi	r24, 0x54	; 84
    5ed0:	11 f0       	breq	.+4      	; 0x5ed6 <_ZN9my_eeprom10LoadEEPROMEv+0x18>
    5ed2:	0e 94 da 27 	call	0x4fb4	; 0x4fb4 <_Z10initMemoryv>
	
	LoadCorrectionFactor();
    5ed6:	0e 94 ce 2d 	call	0x5b9c	; 0x5b9c <_Z20LoadCorrectionFactorv>
	LoadMeasurementSetting();
    5eda:	0e 94 7f 2e 	call	0x5cfe	; 0x5cfe <_Z22LoadMeasurementSettingv>
	LoadName();
    5ede:	0e 94 52 2f 	call	0x5ea4	; 0x5ea4 <_Z8LoadNamev>
    5ee2:	08 95       	ret

00005ee4 <_ZL10_i2c_WaitWv>:
	int val = ((0b00001111 & buffer[0]) << 8) + buffer[1]; //12bitl\
	float lux = 0.01 * pow(2, expnt) * val;
	
	if(83865.60 < lux) return 0; //G[0
	else return lux;
}
    5ee4:	80 e0       	ldi	r24, 0x00	; 0
    5ee6:	90 91 25 09 	lds	r25, 0x0925	; 0x800925 <__TEXT_REGION_LENGTH__+0x7f0925>
    5eea:	90 7c       	andi	r25, 0xC0	; 192
    5eec:	31 f0       	breq	.+12     	; 0x5efa <_ZL10_i2c_WaitWv+0x16>
    5eee:	80 91 25 09 	lds	r24, 0x0925	; 0x800925 <__TEXT_REGION_LENGTH__+0x7f0925>
    5ef2:	84 fd       	sbrc	r24, 4
    5ef4:	07 c0       	rjmp	.+14     	; 0x5f04 <_ZL10_i2c_WaitWv+0x20>
    5ef6:	81 e0       	ldi	r24, 0x01	; 1
    5ef8:	08 c0       	rjmp	.+16     	; 0x5f0a <_ZL10_i2c_WaitWv+0x26>
    5efa:	90 91 25 09 	lds	r25, 0x0925	; 0x800925 <__TEXT_REGION_LENGTH__+0x7f0925>
    5efe:	9c 70       	andi	r25, 0x0C	; 12
    5f00:	19 f4       	brne	.+6      	; 0x5f08 <_ZL10_i2c_WaitWv+0x24>
    5f02:	03 c0       	rjmp	.+6      	; 0x5f0a <_ZL10_i2c_WaitWv+0x26>
    5f04:	82 e0       	ldi	r24, 0x02	; 2
    5f06:	01 c0       	rjmp	.+2      	; 0x5f0a <_ZL10_i2c_WaitWv+0x26>
    5f08:	84 e0       	ldi	r24, 0x04	; 4
    5f0a:	88 23       	and	r24, r24
    5f0c:	61 f3       	breq	.-40     	; 0x5ee6 <_ZL10_i2c_WaitWv+0x2>
    5f0e:	08 95       	ret

00005f10 <_ZL10_i2c_WaitRv>:
    5f10:	80 e0       	ldi	r24, 0x00	; 0
    5f12:	90 91 25 09 	lds	r25, 0x0925	; 0x800925 <__TEXT_REGION_LENGTH__+0x7f0925>
    5f16:	90 7c       	andi	r25, 0xC0	; 192
    5f18:	29 f4       	brne	.+10     	; 0x5f24 <_ZL10_i2c_WaitRv+0x14>
    5f1a:	90 91 25 09 	lds	r25, 0x0925	; 0x800925 <__TEXT_REGION_LENGTH__+0x7f0925>
    5f1e:	9c 70       	andi	r25, 0x0C	; 12
    5f20:	19 f4       	brne	.+6      	; 0x5f28 <_ZL10_i2c_WaitRv+0x18>
    5f22:	03 c0       	rjmp	.+6      	; 0x5f2a <_ZL10_i2c_WaitRv+0x1a>
    5f24:	83 e0       	ldi	r24, 0x03	; 3
    5f26:	01 c0       	rjmp	.+2      	; 0x5f2a <_ZL10_i2c_WaitRv+0x1a>
    5f28:	84 e0       	ldi	r24, 0x04	; 4
    5f2a:	88 23       	and	r24, r24
    5f2c:	91 f3       	breq	.-28     	; 0x5f12 <_ZL10_i2c_WaitRv+0x2>
    5f2e:	08 95       	ret

00005f30 <_ZL14_start_writingh>:
    5f30:	8e 7f       	andi	r24, 0xFE	; 254
    5f32:	80 93 27 09 	sts	0x0927, r24	; 0x800927 <__TEXT_REGION_LENGTH__+0x7f0927>
    5f36:	0e 94 72 2f 	call	0x5ee4	; 0x5ee4 <_ZL10_i2c_WaitWv>
    5f3a:	08 95       	ret

00005f3c <_ZL14_start_readingh>:
    5f3c:	81 60       	ori	r24, 0x01	; 1
    5f3e:	80 93 27 09 	sts	0x0927, r24	; 0x800927 <__TEXT_REGION_LENGTH__+0x7f0927>
    5f42:	0e 94 72 2f 	call	0x5ee4	; 0x5ee4 <_ZL10_i2c_WaitWv>
    5f46:	08 95       	ret

00005f48 <_ZL9_bus_stopv>:
    5f48:	87 e0       	ldi	r24, 0x07	; 7
    5f4a:	80 93 24 09 	sts	0x0924, r24	; 0x800924 <__TEXT_REGION_LENGTH__+0x7f0924>
    5f4e:	08 95       	ret

00005f50 <_ZL10_bus_writeh>:
    5f50:	80 93 28 09 	sts	0x0928, r24	; 0x800928 <__TEXT_REGION_LENGTH__+0x7f0928>
    5f54:	0e 94 72 2f 	call	0x5ee4	; 0x5ee4 <_ZL10_i2c_WaitWv>
    5f58:	08 95       	ret

00005f5a <_ZL9_bus_readbbPh>:
    5f5a:	0f 93       	push	r16
    5f5c:	1f 93       	push	r17
    5f5e:	cf 93       	push	r28
    5f60:	df 93       	push	r29
    5f62:	d8 2f       	mov	r29, r24
    5f64:	c6 2f       	mov	r28, r22
    5f66:	8a 01       	movw	r16, r20
    5f68:	0e 94 88 2f 	call	0x5f10	; 0x5f10 <_ZL10_i2c_WaitRv>
    5f6c:	83 30       	cpi	r24, 0x03	; 3
    5f6e:	01 f5       	brne	.+64     	; 0x5fb0 <_ZL9_bus_readbbPh+0x56>
    5f70:	80 91 28 09 	lds	r24, 0x0928	; 0x800928 <__TEXT_REGION_LENGTH__+0x7f0928>
    5f74:	f8 01       	movw	r30, r16
    5f76:	80 83       	st	Z, r24
    5f78:	dd 23       	and	r29, r29
    5f7a:	31 f0       	breq	.+12     	; 0x5f88 <_ZL9_bus_readbbPh+0x2e>
    5f7c:	e0 e2       	ldi	r30, 0x20	; 32
    5f7e:	f9 e0       	ldi	r31, 0x09	; 9
    5f80:	84 81       	ldd	r24, Z+4	; 0x04
    5f82:	8b 7f       	andi	r24, 0xFB	; 251
    5f84:	84 83       	std	Z+4, r24	; 0x04
    5f86:	05 c0       	rjmp	.+10     	; 0x5f92 <_ZL9_bus_readbbPh+0x38>
    5f88:	e0 e2       	ldi	r30, 0x20	; 32
    5f8a:	f9 e0       	ldi	r31, 0x09	; 9
    5f8c:	84 81       	ldd	r24, Z+4	; 0x04
    5f8e:	84 60       	ori	r24, 0x04	; 4
    5f90:	84 83       	std	Z+4, r24	; 0x04
    5f92:	cc 23       	and	r28, r28
    5f94:	39 f0       	breq	.+14     	; 0x5fa4 <_ZL9_bus_readbbPh+0x4a>
    5f96:	e0 e2       	ldi	r30, 0x20	; 32
    5f98:	f9 e0       	ldi	r31, 0x09	; 9
    5f9a:	84 81       	ldd	r24, Z+4	; 0x04
    5f9c:	83 60       	ori	r24, 0x03	; 3
    5f9e:	84 83       	std	Z+4, r24	; 0x04
    5fa0:	85 e0       	ldi	r24, 0x05	; 5
    5fa2:	06 c0       	rjmp	.+12     	; 0x5fb0 <_ZL9_bus_readbbPh+0x56>
    5fa4:	e0 e2       	ldi	r30, 0x20	; 32
    5fa6:	f9 e0       	ldi	r31, 0x09	; 9
    5fa8:	84 81       	ldd	r24, Z+4	; 0x04
    5faa:	82 60       	ori	r24, 0x02	; 2
    5fac:	84 83       	std	Z+4, r24	; 0x04
    5fae:	85 e0       	ldi	r24, 0x05	; 5
    5fb0:	df 91       	pop	r29
    5fb2:	cf 91       	pop	r28
    5fb4:	1f 91       	pop	r17
    5fb6:	0f 91       	pop	r16
    5fb8:	08 95       	ret

00005fba <_ZL4crc8Phh>:
    5fba:	fc 01       	movw	r30, r24
    5fbc:	20 e0       	ldi	r18, 0x00	; 0
    5fbe:	30 e0       	ldi	r19, 0x00	; 0
    5fc0:	8f ef       	ldi	r24, 0xFF	; 255
    5fc2:	46 2f       	mov	r20, r22
    5fc4:	50 e0       	ldi	r21, 0x00	; 0
    5fc6:	24 17       	cp	r18, r20
    5fc8:	35 07       	cpc	r19, r21
    5fca:	ac f4       	brge	.+42     	; 0x5ff6 <_ZL4crc8Phh+0x3c>
    5fcc:	af 01       	movw	r20, r30
    5fce:	4f 5f       	subi	r20, 0xFF	; 255
    5fd0:	5f 4f       	sbci	r21, 0xFF	; 255
    5fd2:	90 81       	ld	r25, Z
    5fd4:	89 27       	eor	r24, r25
    5fd6:	98 e0       	ldi	r25, 0x08	; 8
    5fd8:	99 23       	and	r25, r25
    5fda:	49 f0       	breq	.+18     	; 0x5fee <_ZL4crc8Phh+0x34>
    5fdc:	88 23       	and	r24, r24
    5fde:	24 f4       	brge	.+8      	; 0x5fe8 <_ZL4crc8Phh+0x2e>
    5fe0:	88 0f       	add	r24, r24
    5fe2:	71 e3       	ldi	r23, 0x31	; 49
    5fe4:	87 27       	eor	r24, r23
    5fe6:	01 c0       	rjmp	.+2      	; 0x5fea <_ZL4crc8Phh+0x30>
    5fe8:	88 0f       	add	r24, r24
    5fea:	91 50       	subi	r25, 0x01	; 1
    5fec:	f5 cf       	rjmp	.-22     	; 0x5fd8 <_ZL4crc8Phh+0x1e>
    5fee:	2f 5f       	subi	r18, 0xFF	; 255
    5ff0:	3f 4f       	sbci	r19, 0xFF	; 255
    5ff2:	fa 01       	movw	r30, r20
    5ff4:	e6 cf       	rjmp	.-52     	; 0x5fc2 <_ZL4crc8Phh+0x8>
    5ff6:	08 95       	ret

00005ff8 <_ZN6my_i2c13InitializeI2CEv>:
    5ff8:	10 92 e5 05 	sts	0x05E5, r1	; 0x8005e5 <__TEXT_REGION_LENGTH__+0x7f05e5>
    5ffc:	e0 e2       	ldi	r30, 0x20	; 32
    5ffe:	f9 e0       	ldi	r31, 0x09	; 9
    6000:	80 81       	ld	r24, Z
    6002:	8d 7f       	andi	r24, 0xFD	; 253
    6004:	80 83       	st	Z, r24
    6006:	80 81       	ld	r24, Z
    6008:	84 60       	ori	r24, 0x04	; 4
    600a:	80 83       	st	Z, r24
    600c:	8e e0       	ldi	r24, 0x0E	; 14
    600e:	86 83       	std	Z+6, r24	; 0x06
    6010:	17 82       	std	Z+7, r1	; 0x07
    6012:	10 86       	std	Z+8, r1	; 0x08
    6014:	83 81       	ldd	r24, Z+3	; 0x03
    6016:	8d 60       	ori	r24, 0x0D	; 13
    6018:	83 83       	std	Z+3, r24	; 0x03
    601a:	81 e0       	ldi	r24, 0x01	; 1
    601c:	85 83       	std	Z+5, r24	; 0x05
    601e:	85 81       	ldd	r24, Z+5	; 0x05
    6020:	80 66       	ori	r24, 0x60	; 96
    6022:	85 83       	std	Z+5, r24	; 0x05
    6024:	84 81       	ldd	r24, Z+4	; 0x04
    6026:	88 60       	ori	r24, 0x08	; 8
    6028:	84 83       	std	Z+4, r24	; 0x04
    602a:	80 ec       	ldi	r24, 0xC0	; 192
    602c:	0e 94 98 2f 	call	0x5f30	; 0x5f30 <_ZL14_start_writingh>
    6030:	81 30       	cpi	r24, 0x01	; 1
    6032:	19 f0       	breq	.+6      	; 0x603a <_ZN6my_i2c13InitializeI2CEv+0x42>
    6034:	0e 94 a4 2f 	call	0x5f48	; 0x5f48 <_ZL9_bus_stopv>
    6038:	08 95       	ret
    603a:	80 e0       	ldi	r24, 0x00	; 0
    603c:	0e 94 a8 2f 	call	0x5f50	; 0x5f50 <_ZL10_bus_writeh>
    6040:	81 30       	cpi	r24, 0x01	; 1
    6042:	19 f0       	breq	.+6      	; 0x604a <_ZN6my_i2c13InitializeI2CEv+0x52>
    6044:	0e 94 a4 2f 	call	0x5f48	; 0x5f48 <_ZL9_bus_stopv>
    6048:	08 95       	ret
    604a:	80 e1       	ldi	r24, 0x10	; 16
    604c:	0e 94 a8 2f 	call	0x5f50	; 0x5f50 <_ZL10_bus_writeh>
    6050:	81 30       	cpi	r24, 0x01	; 1
    6052:	19 f0       	breq	.+6      	; 0x605a <_ZN6my_i2c13InitializeI2CEv+0x62>
    6054:	0e 94 a4 2f 	call	0x5f48	; 0x5f48 <_ZL9_bus_stopv>
    6058:	08 95       	ret
    605a:	83 e0       	ldi	r24, 0x03	; 3
    605c:	0e 94 a8 2f 	call	0x5f50	; 0x5f50 <_ZL10_bus_writeh>
    6060:	81 30       	cpi	r24, 0x01	; 1
    6062:	19 f0       	breq	.+6      	; 0x606a <_ZN6my_i2c13InitializeI2CEv+0x72>
    6064:	0e 94 a4 2f 	call	0x5f48	; 0x5f48 <_ZL9_bus_stopv>
    6068:	08 95       	ret
    606a:	0e 94 a4 2f 	call	0x5f48	; 0x5f48 <_ZL9_bus_stopv>
    606e:	80 ec       	ldi	r24, 0xC0	; 192
    6070:	0e 94 98 2f 	call	0x5f30	; 0x5f30 <_ZL14_start_writingh>
    6074:	81 30       	cpi	r24, 0x01	; 1
    6076:	19 f0       	breq	.+6      	; 0x607e <_ZN6my_i2c13InitializeI2CEv+0x86>
    6078:	0e 94 a4 2f 	call	0x5f48	; 0x5f48 <_ZL9_bus_stopv>
    607c:	08 95       	ret
    607e:	83 e0       	ldi	r24, 0x03	; 3
    6080:	0e 94 a8 2f 	call	0x5f50	; 0x5f50 <_ZL10_bus_writeh>
    6084:	81 30       	cpi	r24, 0x01	; 1
    6086:	19 f0       	breq	.+6      	; 0x608e <_ZN6my_i2c13InitializeI2CEv+0x96>
    6088:	0e 94 a4 2f 	call	0x5f48	; 0x5f48 <_ZL9_bus_stopv>
    608c:	08 95       	ret
    608e:	8e ec       	ldi	r24, 0xCE	; 206
    6090:	0e 94 a8 2f 	call	0x5f50	; 0x5f50 <_ZL10_bus_writeh>
    6094:	81 30       	cpi	r24, 0x01	; 1
    6096:	19 f0       	breq	.+6      	; 0x609e <_ZN6my_i2c13InitializeI2CEv+0xa6>
    6098:	0e 94 a4 2f 	call	0x5f48	; 0x5f48 <_ZL9_bus_stopv>
    609c:	08 95       	ret
    609e:	88 e0       	ldi	r24, 0x08	; 8
    60a0:	0e 94 a8 2f 	call	0x5f50	; 0x5f50 <_ZL10_bus_writeh>
    60a4:	81 30       	cpi	r24, 0x01	; 1
    60a6:	19 f0       	breq	.+6      	; 0x60ae <_ZN6my_i2c13InitializeI2CEv+0xb6>
    60a8:	0e 94 a4 2f 	call	0x5f48	; 0x5f48 <_ZL9_bus_stopv>
    60ac:	08 95       	ret
    60ae:	0e 94 a4 2f 	call	0x5f48	; 0x5f48 <_ZL9_bus_stopv>
    60b2:	80 ec       	ldi	r24, 0xC0	; 192
    60b4:	0e 94 98 2f 	call	0x5f30	; 0x5f30 <_ZL14_start_writingh>
    60b8:	81 30       	cpi	r24, 0x01	; 1
    60ba:	19 f0       	breq	.+6      	; 0x60c2 <_ZN6my_i2c13InitializeI2CEv+0xca>
    60bc:	0e 94 a4 2f 	call	0x5f48	; 0x5f48 <_ZL9_bus_stopv>
    60c0:	08 95       	ret
    60c2:	84 e0       	ldi	r24, 0x04	; 4
    60c4:	0e 94 a8 2f 	call	0x5f50	; 0x5f50 <_ZL10_bus_writeh>
    60c8:	81 30       	cpi	r24, 0x01	; 1
    60ca:	19 f0       	breq	.+6      	; 0x60d2 <_ZN6my_i2c13InitializeI2CEv+0xda>
    60cc:	0e 94 a4 2f 	call	0x5f48	; 0x5f48 <_ZL9_bus_stopv>
    60d0:	08 95       	ret
    60d2:	81 e0       	ldi	r24, 0x01	; 1
    60d4:	0e 94 a8 2f 	call	0x5f50	; 0x5f50 <_ZL10_bus_writeh>
    60d8:	81 30       	cpi	r24, 0x01	; 1
    60da:	19 f0       	breq	.+6      	; 0x60e2 <_ZN6my_i2c13InitializeI2CEv+0xea>
    60dc:	0e 94 a4 2f 	call	0x5f48	; 0x5f48 <_ZL9_bus_stopv>
    60e0:	08 95       	ret
    60e2:	87 e0       	ldi	r24, 0x07	; 7
    60e4:	0e 94 a8 2f 	call	0x5f50	; 0x5f50 <_ZL10_bus_writeh>
    60e8:	81 30       	cpi	r24, 0x01	; 1
    60ea:	19 f0       	breq	.+6      	; 0x60f2 <_ZN6my_i2c13InitializeI2CEv+0xfa>
    60ec:	0e 94 a4 2f 	call	0x5f48	; 0x5f48 <_ZL9_bus_stopv>
    60f0:	08 95       	ret
    60f2:	0e 94 a4 2f 	call	0x5f48	; 0x5f48 <_ZL9_bus_stopv>
    60f6:	08 95       	ret

000060f8 <_ZN6my_i2c9ReadAHT20EPfS0_>:
    60f8:	8f 92       	push	r8
    60fa:	9f 92       	push	r9
    60fc:	af 92       	push	r10
    60fe:	bf 92       	push	r11
    6100:	cf 92       	push	r12
    6102:	df 92       	push	r13
    6104:	ef 92       	push	r14
    6106:	ff 92       	push	r15
    6108:	0f 93       	push	r16
    610a:	1f 93       	push	r17
    610c:	cf 93       	push	r28
    610e:	df 93       	push	r29
    6110:	cd b7       	in	r28, 0x3d	; 61
    6112:	de b7       	in	r29, 0x3e	; 62
    6114:	28 97       	sbiw	r28, 0x08	; 8
    6116:	cd bf       	out	0x3d, r28	; 61
    6118:	de bf       	out	0x3e, r29	; 62
    611a:	7c 01       	movw	r14, r24
    611c:	6b 01       	movw	r12, r22
    611e:	80 e0       	ldi	r24, 0x00	; 0
    6120:	90 e0       	ldi	r25, 0x00	; 0
    6122:	a6 ec       	ldi	r26, 0xC6	; 198
    6124:	b2 ec       	ldi	r27, 0xC2	; 194
    6126:	fb 01       	movw	r30, r22
    6128:	80 83       	st	Z, r24
    612a:	91 83       	std	Z+1, r25	; 0x01
    612c:	a2 83       	std	Z+2, r26	; 0x02
    612e:	b3 83       	std	Z+3, r27	; 0x03
    6130:	f7 01       	movw	r30, r14
    6132:	80 83       	st	Z, r24
    6134:	91 83       	std	Z+1, r25	; 0x01
    6136:	a2 83       	std	Z+2, r26	; 0x02
    6138:	b3 83       	std	Z+3, r27	; 0x03
    613a:	80 e7       	ldi	r24, 0x70	; 112
    613c:	0e 94 98 2f 	call	0x5f30	; 0x5f30 <_ZL14_start_writingh>
    6140:	81 30       	cpi	r24, 0x01	; 1
    6142:	21 f0       	breq	.+8      	; 0x614c <_ZN6my_i2c9ReadAHT20EPfS0_+0x54>
    6144:	0e 94 a4 2f 	call	0x5f48	; 0x5f48 <_ZL9_bus_stopv>
    6148:	10 e0       	ldi	r17, 0x00	; 0
    614a:	68 c1       	rjmp	.+720    	; 0x641c <_ZN6my_i2c9ReadAHT20EPfS0_+0x324>
    614c:	8e eb       	ldi	r24, 0xBE	; 190
    614e:	0e 94 a8 2f 	call	0x5f50	; 0x5f50 <_ZL10_bus_writeh>
    6152:	81 30       	cpi	r24, 0x01	; 1
    6154:	21 f0       	breq	.+8      	; 0x615e <_ZN6my_i2c9ReadAHT20EPfS0_+0x66>
    6156:	0e 94 a4 2f 	call	0x5f48	; 0x5f48 <_ZL9_bus_stopv>
    615a:	10 e0       	ldi	r17, 0x00	; 0
    615c:	5f c1       	rjmp	.+702    	; 0x641c <_ZN6my_i2c9ReadAHT20EPfS0_+0x324>
    615e:	88 e0       	ldi	r24, 0x08	; 8
    6160:	0e 94 a8 2f 	call	0x5f50	; 0x5f50 <_ZL10_bus_writeh>
    6164:	81 30       	cpi	r24, 0x01	; 1
    6166:	21 f0       	breq	.+8      	; 0x6170 <_ZN6my_i2c9ReadAHT20EPfS0_+0x78>
    6168:	0e 94 a4 2f 	call	0x5f48	; 0x5f48 <_ZL9_bus_stopv>
    616c:	10 e0       	ldi	r17, 0x00	; 0
    616e:	56 c1       	rjmp	.+684    	; 0x641c <_ZN6my_i2c9ReadAHT20EPfS0_+0x324>
    6170:	80 e0       	ldi	r24, 0x00	; 0
    6172:	0e 94 a8 2f 	call	0x5f50	; 0x5f50 <_ZL10_bus_writeh>
    6176:	81 30       	cpi	r24, 0x01	; 1
    6178:	21 f0       	breq	.+8      	; 0x6182 <_ZN6my_i2c9ReadAHT20EPfS0_+0x8a>
    617a:	0e 94 a4 2f 	call	0x5f48	; 0x5f48 <_ZL9_bus_stopv>
    617e:	10 e0       	ldi	r17, 0x00	; 0
    6180:	4d c1       	rjmp	.+666    	; 0x641c <_ZN6my_i2c9ReadAHT20EPfS0_+0x324>
    6182:	0e 94 a4 2f 	call	0x5f48	; 0x5f48 <_ZL9_bus_stopv>
    6186:	8f e0       	ldi	r24, 0x0F	; 15
    6188:	97 e2       	ldi	r25, 0x27	; 39
    618a:	01 97       	sbiw	r24, 0x01	; 1
    618c:	f1 f7       	brne	.-4      	; 0x618a <_ZN6my_i2c9ReadAHT20EPfS0_+0x92>
    618e:	00 c0       	rjmp	.+0      	; 0x6190 <_ZN6my_i2c9ReadAHT20EPfS0_+0x98>
    6190:	00 00       	nop
    6192:	80 e7       	ldi	r24, 0x70	; 112
    6194:	0e 94 98 2f 	call	0x5f30	; 0x5f30 <_ZL14_start_writingh>
    6198:	81 30       	cpi	r24, 0x01	; 1
    619a:	21 f0       	breq	.+8      	; 0x61a4 <_ZN6my_i2c9ReadAHT20EPfS0_+0xac>
    619c:	0e 94 a4 2f 	call	0x5f48	; 0x5f48 <_ZL9_bus_stopv>
    61a0:	10 e0       	ldi	r17, 0x00	; 0
    61a2:	3c c1       	rjmp	.+632    	; 0x641c <_ZN6my_i2c9ReadAHT20EPfS0_+0x324>
    61a4:	8c ea       	ldi	r24, 0xAC	; 172
    61a6:	0e 94 a8 2f 	call	0x5f50	; 0x5f50 <_ZL10_bus_writeh>
    61aa:	81 30       	cpi	r24, 0x01	; 1
    61ac:	21 f0       	breq	.+8      	; 0x61b6 <_ZN6my_i2c9ReadAHT20EPfS0_+0xbe>
    61ae:	0e 94 a4 2f 	call	0x5f48	; 0x5f48 <_ZL9_bus_stopv>
    61b2:	10 e0       	ldi	r17, 0x00	; 0
    61b4:	33 c1       	rjmp	.+614    	; 0x641c <_ZN6my_i2c9ReadAHT20EPfS0_+0x324>
    61b6:	83 e3       	ldi	r24, 0x33	; 51
    61b8:	0e 94 a8 2f 	call	0x5f50	; 0x5f50 <_ZL10_bus_writeh>
    61bc:	81 30       	cpi	r24, 0x01	; 1
    61be:	21 f0       	breq	.+8      	; 0x61c8 <_ZN6my_i2c9ReadAHT20EPfS0_+0xd0>
    61c0:	0e 94 a4 2f 	call	0x5f48	; 0x5f48 <_ZL9_bus_stopv>
    61c4:	10 e0       	ldi	r17, 0x00	; 0
    61c6:	2a c1       	rjmp	.+596    	; 0x641c <_ZN6my_i2c9ReadAHT20EPfS0_+0x324>
    61c8:	80 e0       	ldi	r24, 0x00	; 0
    61ca:	0e 94 a8 2f 	call	0x5f50	; 0x5f50 <_ZL10_bus_writeh>
    61ce:	81 30       	cpi	r24, 0x01	; 1
    61d0:	21 f0       	breq	.+8      	; 0x61da <_ZN6my_i2c9ReadAHT20EPfS0_+0xe2>
    61d2:	0e 94 a4 2f 	call	0x5f48	; 0x5f48 <_ZL9_bus_stopv>
    61d6:	10 e0       	ldi	r17, 0x00	; 0
    61d8:	21 c1       	rjmp	.+578    	; 0x641c <_ZN6my_i2c9ReadAHT20EPfS0_+0x324>
    61da:	0e 94 a4 2f 	call	0x5f48	; 0x5f48 <_ZL9_bus_stopv>
    61de:	9f ef       	ldi	r25, 0xFF	; 255
    61e0:	e9 ef       	ldi	r30, 0xF9	; 249
    61e2:	f0 e0       	ldi	r31, 0x00	; 0
    61e4:	91 50       	subi	r25, 0x01	; 1
    61e6:	e0 40       	sbci	r30, 0x00	; 0
    61e8:	f0 40       	sbci	r31, 0x00	; 0
    61ea:	e1 f7       	brne	.-8      	; 0x61e4 <_ZN6my_i2c9ReadAHT20EPfS0_+0xec>
    61ec:	00 c0       	rjmp	.+0      	; 0x61ee <_ZN6my_i2c9ReadAHT20EPfS0_+0xf6>
    61ee:	00 00       	nop
    61f0:	80 e7       	ldi	r24, 0x70	; 112
    61f2:	0e 94 9e 2f 	call	0x5f3c	; 0x5f3c <_ZL14_start_readingh>
    61f6:	18 2f       	mov	r17, r24
    61f8:	81 30       	cpi	r24, 0x01	; 1
    61fa:	21 f0       	breq	.+8      	; 0x6204 <_ZN6my_i2c9ReadAHT20EPfS0_+0x10c>
    61fc:	0e 94 a4 2f 	call	0x5f48	; 0x5f48 <_ZL9_bus_stopv>
    6200:	10 e0       	ldi	r17, 0x00	; 0
    6202:	0c c1       	rjmp	.+536    	; 0x641c <_ZN6my_i2c9ReadAHT20EPfS0_+0x324>
    6204:	ae 01       	movw	r20, r28
    6206:	4f 5f       	subi	r20, 0xFF	; 255
    6208:	5f 4f       	sbci	r21, 0xFF	; 255
    620a:	60 e0       	ldi	r22, 0x00	; 0
    620c:	81 e0       	ldi	r24, 0x01	; 1
    620e:	0e 94 ad 2f 	call	0x5f5a	; 0x5f5a <_ZL9_bus_readbbPh>
    6212:	85 30       	cpi	r24, 0x05	; 5
    6214:	21 f0       	breq	.+8      	; 0x621e <_ZN6my_i2c9ReadAHT20EPfS0_+0x126>
    6216:	0e 94 a4 2f 	call	0x5f48	; 0x5f48 <_ZL9_bus_stopv>
    621a:	10 e0       	ldi	r17, 0x00	; 0
    621c:	ff c0       	rjmp	.+510    	; 0x641c <_ZN6my_i2c9ReadAHT20EPfS0_+0x324>
    621e:	89 81       	ldd	r24, Y+1	; 0x01
    6220:	88 23       	and	r24, r24
    6222:	24 f4       	brge	.+8      	; 0x622c <_ZN6my_i2c9ReadAHT20EPfS0_+0x134>
    6224:	0e 94 a4 2f 	call	0x5f48	; 0x5f48 <_ZL9_bus_stopv>
    6228:	10 e0       	ldi	r17, 0x00	; 0
    622a:	f8 c0       	rjmp	.+496    	; 0x641c <_ZN6my_i2c9ReadAHT20EPfS0_+0x324>
    622c:	ae 01       	movw	r20, r28
    622e:	4e 5f       	subi	r20, 0xFE	; 254
    6230:	5f 4f       	sbci	r21, 0xFF	; 255
    6232:	60 e0       	ldi	r22, 0x00	; 0
    6234:	81 e0       	ldi	r24, 0x01	; 1
    6236:	0e 94 ad 2f 	call	0x5f5a	; 0x5f5a <_ZL9_bus_readbbPh>
    623a:	85 30       	cpi	r24, 0x05	; 5
    623c:	21 f0       	breq	.+8      	; 0x6246 <_ZN6my_i2c9ReadAHT20EPfS0_+0x14e>
    623e:	0e 94 a4 2f 	call	0x5f48	; 0x5f48 <_ZL9_bus_stopv>
    6242:	10 e0       	ldi	r17, 0x00	; 0
    6244:	eb c0       	rjmp	.+470    	; 0x641c <_ZN6my_i2c9ReadAHT20EPfS0_+0x324>
    6246:	ae 01       	movw	r20, r28
    6248:	4d 5f       	subi	r20, 0xFD	; 253
    624a:	5f 4f       	sbci	r21, 0xFF	; 255
    624c:	60 e0       	ldi	r22, 0x00	; 0
    624e:	81 e0       	ldi	r24, 0x01	; 1
    6250:	0e 94 ad 2f 	call	0x5f5a	; 0x5f5a <_ZL9_bus_readbbPh>
    6254:	85 30       	cpi	r24, 0x05	; 5
    6256:	21 f0       	breq	.+8      	; 0x6260 <_ZN6my_i2c9ReadAHT20EPfS0_+0x168>
    6258:	0e 94 a4 2f 	call	0x5f48	; 0x5f48 <_ZL9_bus_stopv>
    625c:	10 e0       	ldi	r17, 0x00	; 0
    625e:	de c0       	rjmp	.+444    	; 0x641c <_ZN6my_i2c9ReadAHT20EPfS0_+0x324>
    6260:	ae 01       	movw	r20, r28
    6262:	4c 5f       	subi	r20, 0xFC	; 252
    6264:	5f 4f       	sbci	r21, 0xFF	; 255
    6266:	60 e0       	ldi	r22, 0x00	; 0
    6268:	81 e0       	ldi	r24, 0x01	; 1
    626a:	0e 94 ad 2f 	call	0x5f5a	; 0x5f5a <_ZL9_bus_readbbPh>
    626e:	85 30       	cpi	r24, 0x05	; 5
    6270:	21 f0       	breq	.+8      	; 0x627a <_ZN6my_i2c9ReadAHT20EPfS0_+0x182>
    6272:	0e 94 a4 2f 	call	0x5f48	; 0x5f48 <_ZL9_bus_stopv>
    6276:	10 e0       	ldi	r17, 0x00	; 0
    6278:	d1 c0       	rjmp	.+418    	; 0x641c <_ZN6my_i2c9ReadAHT20EPfS0_+0x324>
    627a:	ae 01       	movw	r20, r28
    627c:	4b 5f       	subi	r20, 0xFB	; 251
    627e:	5f 4f       	sbci	r21, 0xFF	; 255
    6280:	60 e0       	ldi	r22, 0x00	; 0
    6282:	81 e0       	ldi	r24, 0x01	; 1
    6284:	0e 94 ad 2f 	call	0x5f5a	; 0x5f5a <_ZL9_bus_readbbPh>
    6288:	85 30       	cpi	r24, 0x05	; 5
    628a:	21 f0       	breq	.+8      	; 0x6294 <_ZN6my_i2c9ReadAHT20EPfS0_+0x19c>
    628c:	0e 94 a4 2f 	call	0x5f48	; 0x5f48 <_ZL9_bus_stopv>
    6290:	10 e0       	ldi	r17, 0x00	; 0
    6292:	c4 c0       	rjmp	.+392    	; 0x641c <_ZN6my_i2c9ReadAHT20EPfS0_+0x324>
    6294:	ae 01       	movw	r20, r28
    6296:	4a 5f       	subi	r20, 0xFA	; 250
    6298:	5f 4f       	sbci	r21, 0xFF	; 255
    629a:	60 e0       	ldi	r22, 0x00	; 0
    629c:	81 e0       	ldi	r24, 0x01	; 1
    629e:	0e 94 ad 2f 	call	0x5f5a	; 0x5f5a <_ZL9_bus_readbbPh>
    62a2:	85 30       	cpi	r24, 0x05	; 5
    62a4:	21 f0       	breq	.+8      	; 0x62ae <_ZN6my_i2c9ReadAHT20EPfS0_+0x1b6>
    62a6:	0e 94 a4 2f 	call	0x5f48	; 0x5f48 <_ZL9_bus_stopv>
    62aa:	10 e0       	ldi	r17, 0x00	; 0
    62ac:	b7 c0       	rjmp	.+366    	; 0x641c <_ZN6my_i2c9ReadAHT20EPfS0_+0x324>
    62ae:	ae 01       	movw	r20, r28
    62b0:	49 5f       	subi	r20, 0xF9	; 249
    62b2:	5f 4f       	sbci	r21, 0xFF	; 255
    62b4:	61 e0       	ldi	r22, 0x01	; 1
    62b6:	80 e0       	ldi	r24, 0x00	; 0
    62b8:	0e 94 ad 2f 	call	0x5f5a	; 0x5f5a <_ZL9_bus_readbbPh>
    62bc:	85 30       	cpi	r24, 0x05	; 5
    62be:	21 f0       	breq	.+8      	; 0x62c8 <_ZN6my_i2c9ReadAHT20EPfS0_+0x1d0>
    62c0:	0e 94 a4 2f 	call	0x5f48	; 0x5f48 <_ZL9_bus_stopv>
    62c4:	10 e0       	ldi	r17, 0x00	; 0
    62c6:	aa c0       	rjmp	.+340    	; 0x641c <_ZN6my_i2c9ReadAHT20EPfS0_+0x324>
    62c8:	66 e0       	ldi	r22, 0x06	; 6
    62ca:	ce 01       	movw	r24, r28
    62cc:	01 96       	adiw	r24, 0x01	; 1
    62ce:	0e 94 dd 2f 	call	0x5fba	; 0x5fba <_ZL4crc8Phh>
    62d2:	88 87       	std	Y+8, r24	; 0x08
    62d4:	9f 81       	ldd	r25, Y+7	; 0x07
    62d6:	88 85       	ldd	r24, Y+8	; 0x08
    62d8:	98 13       	cpse	r25, r24
    62da:	9f c0       	rjmp	.+318    	; 0x641a <_ZN6my_i2c9ReadAHT20EPfS0_+0x322>
    62dc:	6a 81       	ldd	r22, Y+2	; 0x02
    62de:	70 e0       	ldi	r23, 0x00	; 0
    62e0:	80 e0       	ldi	r24, 0x00	; 0
    62e2:	90 e0       	ldi	r25, 0x00	; 0
    62e4:	0e 94 19 35 	call	0x6a32	; 0x6a32 <__floatsisf>
    62e8:	20 e0       	ldi	r18, 0x00	; 0
    62ea:	30 e0       	ldi	r19, 0x00	; 0
    62ec:	a9 01       	movw	r20, r18
    62ee:	0e 94 fa 33 	call	0x67f4	; 0x67f4 <__addsf3>
    62f2:	20 e0       	ldi	r18, 0x00	; 0
    62f4:	30 e0       	ldi	r19, 0x00	; 0
    62f6:	40 e8       	ldi	r20, 0x80	; 128
    62f8:	53 e4       	ldi	r21, 0x43	; 67
    62fa:	0e 94 bb 36 	call	0x6d76	; 0x6d76 <__mulsf3>
    62fe:	4b 01       	movw	r8, r22
    6300:	5c 01       	movw	r10, r24
    6302:	6b 81       	ldd	r22, Y+3	; 0x03
    6304:	70 e0       	ldi	r23, 0x00	; 0
    6306:	80 e0       	ldi	r24, 0x00	; 0
    6308:	90 e0       	ldi	r25, 0x00	; 0
    630a:	0e 94 19 35 	call	0x6a32	; 0x6a32 <__floatsisf>
    630e:	a5 01       	movw	r20, r10
    6310:	94 01       	movw	r18, r8
    6312:	0e 94 fa 33 	call	0x67f4	; 0x67f4 <__addsf3>
    6316:	20 e0       	ldi	r18, 0x00	; 0
    6318:	30 e0       	ldi	r19, 0x00	; 0
    631a:	40 e8       	ldi	r20, 0x80	; 128
    631c:	51 e4       	ldi	r21, 0x41	; 65
    631e:	0e 94 bb 36 	call	0x6d76	; 0x6d76 <__mulsf3>
    6322:	4b 01       	movw	r8, r22
    6324:	5c 01       	movw	r10, r24
    6326:	0c 81       	ldd	r16, Y+4	; 0x04
    6328:	60 2f       	mov	r22, r16
    632a:	70 e0       	ldi	r23, 0x00	; 0
    632c:	75 95       	asr	r23
    632e:	67 95       	ror	r22
    6330:	75 95       	asr	r23
    6332:	67 95       	ror	r22
    6334:	75 95       	asr	r23
    6336:	67 95       	ror	r22
    6338:	75 95       	asr	r23
    633a:	67 95       	ror	r22
    633c:	07 2e       	mov	r0, r23
    633e:	00 0c       	add	r0, r0
    6340:	88 0b       	sbc	r24, r24
    6342:	99 0b       	sbc	r25, r25
    6344:	0e 94 19 35 	call	0x6a32	; 0x6a32 <__floatsisf>
    6348:	a5 01       	movw	r20, r10
    634a:	94 01       	movw	r18, r8
    634c:	0e 94 fa 33 	call	0x67f4	; 0x67f4 <__addsf3>
    6350:	20 e0       	ldi	r18, 0x00	; 0
    6352:	30 e0       	ldi	r19, 0x00	; 0
    6354:	48 ec       	ldi	r20, 0xC8	; 200
    6356:	52 e4       	ldi	r21, 0x42	; 66
    6358:	0e 94 bb 36 	call	0x6d76	; 0x6d76 <__mulsf3>
    635c:	20 e0       	ldi	r18, 0x00	; 0
    635e:	30 e0       	ldi	r19, 0x00	; 0
    6360:	40 e8       	ldi	r20, 0x80	; 128
    6362:	5a e3       	ldi	r21, 0x3A	; 58
    6364:	0e 94 bb 36 	call	0x6d76	; 0x6d76 <__mulsf3>
    6368:	20 e0       	ldi	r18, 0x00	; 0
    636a:	30 e0       	ldi	r19, 0x00	; 0
    636c:	40 e8       	ldi	r20, 0x80	; 128
    636e:	5a e3       	ldi	r21, 0x3A	; 58
    6370:	0e 94 bb 36 	call	0x6d76	; 0x6d76 <__mulsf3>
    6374:	f6 01       	movw	r30, r12
    6376:	60 83       	st	Z, r22
    6378:	71 83       	std	Z+1, r23	; 0x01
    637a:	82 83       	std	Z+2, r24	; 0x02
    637c:	93 83       	std	Z+3, r25	; 0x03
    637e:	60 2f       	mov	r22, r16
    6380:	6f 70       	andi	r22, 0x0F	; 15
    6382:	70 e0       	ldi	r23, 0x00	; 0
    6384:	80 e0       	ldi	r24, 0x00	; 0
    6386:	90 e0       	ldi	r25, 0x00	; 0
    6388:	0e 94 19 35 	call	0x6a32	; 0x6a32 <__floatsisf>
    638c:	20 e0       	ldi	r18, 0x00	; 0
    638e:	30 e0       	ldi	r19, 0x00	; 0
    6390:	a9 01       	movw	r20, r18
    6392:	0e 94 fa 33 	call	0x67f4	; 0x67f4 <__addsf3>
    6396:	20 e0       	ldi	r18, 0x00	; 0
    6398:	30 e0       	ldi	r19, 0x00	; 0
    639a:	40 e8       	ldi	r20, 0x80	; 128
    639c:	53 e4       	ldi	r21, 0x43	; 67
    639e:	0e 94 bb 36 	call	0x6d76	; 0x6d76 <__mulsf3>
    63a2:	4b 01       	movw	r8, r22
    63a4:	5c 01       	movw	r10, r24
    63a6:	6d 81       	ldd	r22, Y+5	; 0x05
    63a8:	70 e0       	ldi	r23, 0x00	; 0
    63aa:	80 e0       	ldi	r24, 0x00	; 0
    63ac:	90 e0       	ldi	r25, 0x00	; 0
    63ae:	0e 94 19 35 	call	0x6a32	; 0x6a32 <__floatsisf>
    63b2:	a5 01       	movw	r20, r10
    63b4:	94 01       	movw	r18, r8
    63b6:	0e 94 fa 33 	call	0x67f4	; 0x67f4 <__addsf3>
    63ba:	20 e0       	ldi	r18, 0x00	; 0
    63bc:	30 e0       	ldi	r19, 0x00	; 0
    63be:	40 e8       	ldi	r20, 0x80	; 128
    63c0:	53 e4       	ldi	r21, 0x43	; 67
    63c2:	0e 94 bb 36 	call	0x6d76	; 0x6d76 <__mulsf3>
    63c6:	4b 01       	movw	r8, r22
    63c8:	5c 01       	movw	r10, r24
    63ca:	6e 81       	ldd	r22, Y+6	; 0x06
    63cc:	70 e0       	ldi	r23, 0x00	; 0
    63ce:	80 e0       	ldi	r24, 0x00	; 0
    63d0:	90 e0       	ldi	r25, 0x00	; 0
    63d2:	0e 94 19 35 	call	0x6a32	; 0x6a32 <__floatsisf>
    63d6:	a5 01       	movw	r20, r10
    63d8:	94 01       	movw	r18, r8
    63da:	0e 94 fa 33 	call	0x67f4	; 0x67f4 <__addsf3>
    63de:	20 e0       	ldi	r18, 0x00	; 0
    63e0:	30 e0       	ldi	r19, 0x00	; 0
    63e2:	48 e4       	ldi	r20, 0x48	; 72
    63e4:	53 e4       	ldi	r21, 0x43	; 67
    63e6:	0e 94 bb 36 	call	0x6d76	; 0x6d76 <__mulsf3>
    63ea:	20 e0       	ldi	r18, 0x00	; 0
    63ec:	30 e0       	ldi	r19, 0x00	; 0
    63ee:	40 e8       	ldi	r20, 0x80	; 128
    63f0:	5a e3       	ldi	r21, 0x3A	; 58
    63f2:	0e 94 bb 36 	call	0x6d76	; 0x6d76 <__mulsf3>
    63f6:	20 e0       	ldi	r18, 0x00	; 0
    63f8:	30 e0       	ldi	r19, 0x00	; 0
    63fa:	40 e8       	ldi	r20, 0x80	; 128
    63fc:	5a e3       	ldi	r21, 0x3A	; 58
    63fe:	0e 94 bb 36 	call	0x6d76	; 0x6d76 <__mulsf3>
    6402:	20 e0       	ldi	r18, 0x00	; 0
    6404:	30 e0       	ldi	r19, 0x00	; 0
    6406:	48 e4       	ldi	r20, 0x48	; 72
    6408:	52 e4       	ldi	r21, 0x42	; 66
    640a:	0e 94 f9 33 	call	0x67f2	; 0x67f2 <__subsf3>
    640e:	f7 01       	movw	r30, r14
    6410:	60 83       	st	Z, r22
    6412:	71 83       	std	Z+1, r23	; 0x01
    6414:	82 83       	std	Z+2, r24	; 0x02
    6416:	93 83       	std	Z+3, r25	; 0x03
    6418:	01 c0       	rjmp	.+2      	; 0x641c <_ZN6my_i2c9ReadAHT20EPfS0_+0x324>
    641a:	10 e0       	ldi	r17, 0x00	; 0
    641c:	81 2f       	mov	r24, r17
    641e:	28 96       	adiw	r28, 0x08	; 8
    6420:	cd bf       	out	0x3d, r28	; 61
    6422:	de bf       	out	0x3e, r29	; 62
    6424:	df 91       	pop	r29
    6426:	cf 91       	pop	r28
    6428:	1f 91       	pop	r17
    642a:	0f 91       	pop	r16
    642c:	ff 90       	pop	r15
    642e:	ef 90       	pop	r14
    6430:	df 90       	pop	r13
    6432:	cf 90       	pop	r12
    6434:	bf 90       	pop	r11
    6436:	af 90       	pop	r10
    6438:	9f 90       	pop	r9
    643a:	8f 90       	pop	r8
    643c:	08 95       	ret

0000643e <_ZN6my_i2c16ReadVCNL4030_ALSEv>:

float my_i2c::ReadVCNL4030_ALS(void)
{
    643e:	cf 93       	push	r28
    6440:	df 93       	push	r29
    6442:	00 d0       	rcall	.+0      	; 0x6444 <_ZN6my_i2c16ReadVCNL4030_ALSEv+0x6>
    6444:	cd b7       	in	r28, 0x3d	; 61
    6446:	de b7       	in	r29, 0x3e	; 62
	//x
	if(_start_writing(VCNL_ADD) != I2C_ACKED) { _bus_stop(); return 0; }
    6448:	80 ec       	ldi	r24, 0xC0	; 192
    644a:	0e 94 98 2f 	call	0x5f30	; 0x5f30 <_ZL14_start_writingh>
    644e:	81 30       	cpi	r24, 0x01	; 1
    6450:	31 f0       	breq	.+12     	; 0x645e <_ZN6my_i2c16ReadVCNL4030_ALSEv+0x20>
    6452:	0e 94 a4 2f 	call	0x5f48	; 0x5f48 <_ZL9_bus_stopv>
    6456:	60 e0       	ldi	r22, 0x00	; 0
    6458:	70 e0       	ldi	r23, 0x00	; 0
    645a:	cb 01       	movw	r24, r22
    645c:	45 c0       	rjmp	.+138    	; 0x64e8 <_ZN6my_i2c16ReadVCNL4030_ALSEv+0xaa>
	if(_bus_write(0x0B) != I2C_ACKED) { _bus_stop(); return 0; } //xvR}h
    645e:	8b e0       	ldi	r24, 0x0B	; 11
    6460:	0e 94 a8 2f 	call	0x5f50	; 0x5f50 <_ZL10_bus_writeh>
    6464:	81 30       	cpi	r24, 0x01	; 1
    6466:	31 f0       	breq	.+12     	; 0x6474 <_ZN6my_i2c16ReadVCNL4030_ALSEv+0x36>
    6468:	0e 94 a4 2f 	call	0x5f48	; 0x5f48 <_ZL9_bus_stopv>
    646c:	60 e0       	ldi	r22, 0x00	; 0
    646e:	70 e0       	ldi	r23, 0x00	; 0
    6470:	cb 01       	movw	r24, r22
    6472:	3a c0       	rjmp	.+116    	; 0x64e8 <_ZN6my_i2c16ReadVCNL4030_ALSEv+0xaa>
	//stopM
	if(_start_reading(VCNL_ADD) != I2C_ACKED) { _bus_stop(); return 0; }
    6474:	80 ec       	ldi	r24, 0xC0	; 192
    6476:	0e 94 9e 2f 	call	0x5f3c	; 0x5f3c <_ZL14_start_readingh>
    647a:	81 30       	cpi	r24, 0x01	; 1
    647c:	31 f0       	breq	.+12     	; 0x648a <_ZN6my_i2c16ReadVCNL4030_ALSEv+0x4c>
    647e:	0e 94 a4 2f 	call	0x5f48	; 0x5f48 <_ZL9_bus_stopv>
    6482:	60 e0       	ldi	r22, 0x00	; 0
    6484:	70 e0       	ldi	r23, 0x00	; 0
    6486:	cb 01       	movw	r24, r22
    6488:	2f c0       	rjmp	.+94     	; 0x64e8 <_ZN6my_i2c16ReadVCNL4030_ALSEv+0xaa>
	uint8_t buffer[2];
	if(_bus_read(1, 0, &buffer[0]) != I2C_SUCCESS) { _bus_stop(); return 0; } //ACK
    648a:	ae 01       	movw	r20, r28
    648c:	4f 5f       	subi	r20, 0xFF	; 255
    648e:	5f 4f       	sbci	r21, 0xFF	; 255
    6490:	60 e0       	ldi	r22, 0x00	; 0
    6492:	81 e0       	ldi	r24, 0x01	; 1
    6494:	0e 94 ad 2f 	call	0x5f5a	; 0x5f5a <_ZL9_bus_readbbPh>
    6498:	85 30       	cpi	r24, 0x05	; 5
    649a:	31 f0       	breq	.+12     	; 0x64a8 <_ZN6my_i2c16ReadVCNL4030_ALSEv+0x6a>
    649c:	0e 94 a4 2f 	call	0x5f48	; 0x5f48 <_ZL9_bus_stopv>
    64a0:	60 e0       	ldi	r22, 0x00	; 0
    64a2:	70 e0       	ldi	r23, 0x00	; 0
    64a4:	cb 01       	movw	r24, r22
    64a6:	20 c0       	rjmp	.+64     	; 0x64e8 <_ZN6my_i2c16ReadVCNL4030_ALSEv+0xaa>
	if(_bus_read(0, 1, &buffer[1]) != I2C_SUCCESS) { _bus_stop(); return 0; } //NACK
    64a8:	ae 01       	movw	r20, r28
    64aa:	4e 5f       	subi	r20, 0xFE	; 254
    64ac:	5f 4f       	sbci	r21, 0xFF	; 255
    64ae:	61 e0       	ldi	r22, 0x01	; 1
    64b0:	80 e0       	ldi	r24, 0x00	; 0
    64b2:	0e 94 ad 2f 	call	0x5f5a	; 0x5f5a <_ZL9_bus_readbbPh>
    64b6:	85 30       	cpi	r24, 0x05	; 5
    64b8:	31 f0       	breq	.+12     	; 0x64c6 <_ZN6my_i2c16ReadVCNL4030_ALSEv+0x88>
    64ba:	0e 94 a4 2f 	call	0x5f48	; 0x5f48 <_ZL9_bus_stopv>
    64be:	60 e0       	ldi	r22, 0x00	; 0
    64c0:	70 e0       	ldi	r23, 0x00	; 0
    64c2:	cb 01       	movw	r24, r22
    64c4:	11 c0       	rjmp	.+34     	; 0x64e8 <_ZN6my_i2c16ReadVCNL4030_ALSEv+0xaa>
		
	uint16_t data = (buffer[1] << 8) + buffer[0];
    64c6:	6a 81       	ldd	r22, Y+2	; 0x02
    64c8:	70 e0       	ldi	r23, 0x00	; 0
    64ca:	76 2f       	mov	r23, r22
    64cc:	66 27       	eor	r22, r22
    64ce:	89 81       	ldd	r24, Y+1	; 0x01
    64d0:	68 0f       	add	r22, r24
    64d2:	71 1d       	adc	r23, r1
	return 0.064 * 4 * data; //_Ci~bNW2{Ax1{:2/(1/2)=4
    64d4:	80 e0       	ldi	r24, 0x00	; 0
    64d6:	90 e0       	ldi	r25, 0x00	; 0
    64d8:	0e 94 17 35 	call	0x6a2e	; 0x6a2e <__floatunsisf>
    64dc:	2f e6       	ldi	r18, 0x6F	; 111
    64de:	32 e1       	ldi	r19, 0x12	; 18
    64e0:	43 e8       	ldi	r20, 0x83	; 131
    64e2:	5e e3       	ldi	r21, 0x3E	; 62
    64e4:	0e 94 bb 36 	call	0x6d76	; 0x6d76 <__mulsf3>
}
    64e8:	0f 90       	pop	r0
    64ea:	0f 90       	pop	r0
    64ec:	df 91       	pop	r29
    64ee:	cf 91       	pop	r28
    64f0:	08 95       	ret

000064f2 <_ZN6my_i2c15ReadVCNL4030_PSEv>:

float my_i2c::ReadVCNL4030_PS(void)
{
    64f2:	cf 92       	push	r12
    64f4:	df 92       	push	r13
    64f6:	ef 92       	push	r14
    64f8:	ff 92       	push	r15
    64fa:	cf 93       	push	r28
    64fc:	df 93       	push	r29
    64fe:	00 d0       	rcall	.+0      	; 0x6500 <_ZN6my_i2c15ReadVCNL4030_PSEv+0xe>
    6500:	cd b7       	in	r28, 0x3d	; 61
    6502:	de b7       	in	r29, 0x3e	; 62
	if(_bus_write(0b00001000) != I2C_ACKED) { _bus_stop(); return 0; } //0 00 0 1 0 0 0
	if(_bus_write(0b00000000) != I2C_ACKED) { _bus_stop(); return 0; } //0 00 0 0 000
	_bus_stop();*/
	
	//
	if(_start_writing(VCNL_ADD) != I2C_ACKED) { _bus_stop(); return 0; }
    6504:	80 ec       	ldi	r24, 0xC0	; 192
    6506:	0e 94 98 2f 	call	0x5f30	; 0x5f30 <_ZL14_start_writingh>
    650a:	81 30       	cpi	r24, 0x01	; 1
    650c:	31 f0       	breq	.+12     	; 0x651a <_ZN6my_i2c15ReadVCNL4030_PSEv+0x28>
    650e:	0e 94 a4 2f 	call	0x5f48	; 0x5f48 <_ZL9_bus_stopv>
    6512:	60 e0       	ldi	r22, 0x00	; 0
    6514:	70 e0       	ldi	r23, 0x00	; 0
    6516:	cb 01       	movw	r24, r22
    6518:	5d c0       	rjmp	.+186    	; 0x65d4 <_ZN6my_i2c15ReadVCNL4030_PSEv+0xe2>
	if(_bus_write(0x08) != I2C_ACKED) { _bus_stop(); return 0; } //vR}h
    651a:	88 e0       	ldi	r24, 0x08	; 8
    651c:	0e 94 a8 2f 	call	0x5f50	; 0x5f50 <_ZL10_bus_writeh>
    6520:	81 30       	cpi	r24, 0x01	; 1
    6522:	31 f0       	breq	.+12     	; 0x6530 <_ZN6my_i2c15ReadVCNL4030_PSEv+0x3e>
    6524:	0e 94 a4 2f 	call	0x5f48	; 0x5f48 <_ZL9_bus_stopv>
    6528:	60 e0       	ldi	r22, 0x00	; 0
    652a:	70 e0       	ldi	r23, 0x00	; 0
    652c:	cb 01       	movw	r24, r22
    652e:	52 c0       	rjmp	.+164    	; 0x65d4 <_ZN6my_i2c15ReadVCNL4030_PSEv+0xe2>
	//stopM
	if(_start_reading(VCNL_ADD) != I2C_ACKED) { _bus_stop(); return 0; }
    6530:	80 ec       	ldi	r24, 0xC0	; 192
    6532:	0e 94 9e 2f 	call	0x5f3c	; 0x5f3c <_ZL14_start_readingh>
    6536:	81 30       	cpi	r24, 0x01	; 1
    6538:	31 f0       	breq	.+12     	; 0x6546 <_ZN6my_i2c15ReadVCNL4030_PSEv+0x54>
    653a:	0e 94 a4 2f 	call	0x5f48	; 0x5f48 <_ZL9_bus_stopv>
    653e:	60 e0       	ldi	r22, 0x00	; 0
    6540:	70 e0       	ldi	r23, 0x00	; 0
    6542:	cb 01       	movw	r24, r22
    6544:	47 c0       	rjmp	.+142    	; 0x65d4 <_ZN6my_i2c15ReadVCNL4030_PSEv+0xe2>
	uint8_t buffer[2];
	if(_bus_read(1, 0, &buffer[0]) != I2C_SUCCESS) { _bus_stop(); return 0; } //ACK
    6546:	ae 01       	movw	r20, r28
    6548:	4f 5f       	subi	r20, 0xFF	; 255
    654a:	5f 4f       	sbci	r21, 0xFF	; 255
    654c:	60 e0       	ldi	r22, 0x00	; 0
    654e:	81 e0       	ldi	r24, 0x01	; 1
    6550:	0e 94 ad 2f 	call	0x5f5a	; 0x5f5a <_ZL9_bus_readbbPh>
    6554:	85 30       	cpi	r24, 0x05	; 5
    6556:	31 f0       	breq	.+12     	; 0x6564 <_ZN6my_i2c15ReadVCNL4030_PSEv+0x72>
    6558:	0e 94 a4 2f 	call	0x5f48	; 0x5f48 <_ZL9_bus_stopv>
    655c:	60 e0       	ldi	r22, 0x00	; 0
    655e:	70 e0       	ldi	r23, 0x00	; 0
    6560:	cb 01       	movw	r24, r22
    6562:	38 c0       	rjmp	.+112    	; 0x65d4 <_ZN6my_i2c15ReadVCNL4030_PSEv+0xe2>
	if(_bus_read(0, 1, &buffer[1]) != I2C_SUCCESS) { _bus_stop(); return 0; } //NACK
    6564:	ae 01       	movw	r20, r28
    6566:	4e 5f       	subi	r20, 0xFE	; 254
    6568:	5f 4f       	sbci	r21, 0xFF	; 255
    656a:	61 e0       	ldi	r22, 0x01	; 1
    656c:	80 e0       	ldi	r24, 0x00	; 0
    656e:	0e 94 ad 2f 	call	0x5f5a	; 0x5f5a <_ZL9_bus_readbbPh>
    6572:	85 30       	cpi	r24, 0x05	; 5
    6574:	31 f0       	breq	.+12     	; 0x6582 <_ZN6my_i2c15ReadVCNL4030_PSEv+0x90>
    6576:	0e 94 a4 2f 	call	0x5f48	; 0x5f48 <_ZL9_bus_stopv>
    657a:	60 e0       	ldi	r22, 0x00	; 0
    657c:	70 e0       	ldi	r23, 0x00	; 0
    657e:	cb 01       	movw	r24, r22
    6580:	29 c0       	rjmp	.+82     	; 0x65d4 <_ZN6my_i2c15ReadVCNL4030_PSEv+0xe2>
		
	uint16_t data = (buffer[1] << 8) + buffer[0];
    6582:	6a 81       	ldd	r22, Y+2	; 0x02
    6584:	70 e0       	ldi	r23, 0x00	; 0
    6586:	76 2f       	mov	r23, r22
    6588:	66 27       	eor	r22, r22
    658a:	89 81       	ldd	r24, Y+1	; 0x01
    658c:	68 0f       	add	r22, r24
    658e:	71 1d       	adc	r23, r1
	float ld = log(data);
    6590:	80 e0       	ldi	r24, 0x00	; 0
    6592:	90 e0       	ldi	r25, 0x00	; 0
    6594:	0e 94 17 35 	call	0x6a2e	; 0x6a2e <__floatunsisf>
    6598:	0e 94 3f 36 	call	0x6c7e	; 0x6c7e <log>
    659c:	6b 01       	movw	r12, r22
    659e:	7c 01       	movw	r14, r24
	return exp((-0.018 * ld - 0.234) * ld + 6.564);
    65a0:	2c eb       	ldi	r18, 0xBC	; 188
    65a2:	34 e7       	ldi	r19, 0x74	; 116
    65a4:	43 e9       	ldi	r20, 0x93	; 147
    65a6:	5c eb       	ldi	r21, 0xBC	; 188
    65a8:	0e 94 bb 36 	call	0x6d76	; 0x6d76 <__mulsf3>
    65ac:	22 eb       	ldi	r18, 0xB2	; 178
    65ae:	3d e9       	ldi	r19, 0x9D	; 157
    65b0:	4f e6       	ldi	r20, 0x6F	; 111
    65b2:	5e e3       	ldi	r21, 0x3E	; 62
    65b4:	0e 94 f9 33 	call	0x67f2	; 0x67f2 <__subsf3>
    65b8:	9b 01       	movw	r18, r22
    65ba:	ac 01       	movw	r20, r24
    65bc:	c7 01       	movw	r24, r14
    65be:	b6 01       	movw	r22, r12
    65c0:	0e 94 bb 36 	call	0x6d76	; 0x6d76 <__mulsf3>
    65c4:	2a e4       	ldi	r18, 0x4A	; 74
    65c6:	3c e0       	ldi	r19, 0x0C	; 12
    65c8:	42 ed       	ldi	r20, 0xD2	; 210
    65ca:	50 e4       	ldi	r21, 0x40	; 64
    65cc:	0e 94 fa 33 	call	0x67f4	; 0x67f4 <__addsf3>
    65d0:	0e 94 e5 34 	call	0x69ca	; 0x69ca <exp>
}
    65d4:	0f 90       	pop	r0
    65d6:	0f 90       	pop	r0
    65d8:	df 91       	pop	r29
    65da:	cf 91       	pop	r28
    65dc:	ff 90       	pop	r15
    65de:	ef 90       	pop	r14
    65e0:	df 90       	pop	r13
    65e2:	cf 90       	pop	r12
    65e4:	08 95       	ret

000065e6 <_ZN7my_uart10InitializeEv>:

//
void my_uart::Initialize(void)
{
	//|[go
	PORTA.DIRSET = PIN0_bm; //TX:o
    65e6:	e0 e0       	ldi	r30, 0x00	; 0
    65e8:	f4 e0       	ldi	r31, 0x04	; 4
    65ea:	81 e0       	ldi	r24, 0x01	; 1
    65ec:	81 83       	std	Z+1, r24	; 0x01
	PORTA.DIRCLR = PIN1_bm; //RX:
    65ee:	82 e0       	ldi	r24, 0x02	; 2
    65f0:	82 83       	std	Z+2, r24	; 0x02
	//RXPullUp
	PORTA.OUTSET = PIN1_bm; //INT0F
    65f2:	85 83       	std	Z+5, r24	; 0x05
	
	//{[[g
	USART0.BAUD = (uint16_t)BAUD_CALC(9600);
    65f4:	e0 e0       	ldi	r30, 0x00	; 0
    65f6:	f8 e0       	ldi	r31, 0x08	; 8
    65f8:	83 e8       	ldi	r24, 0x83	; 131
    65fa:	96 e0       	ldi	r25, 0x06	; 6
    65fc:	80 87       	std	Z+8, r24	; 0x08
    65fe:	91 87       	std	Z+9, r25	; 0x09
	
	USART0_CTRLA |= USART_RXCIF_bm; //MCxgL
    6600:	a5 e0       	ldi	r26, 0x05	; 5
    6602:	b8 e0       	ldi	r27, 0x08	; 8
    6604:	8c 91       	ld	r24, X
    6606:	80 68       	ori	r24, 0x80	; 128
    6608:	8c 93       	st	X, r24
	USART0.CTRLB |= (USART_RXEN_bm | USART_TXEN_bm); //ML
    660a:	86 81       	ldd	r24, Z+6	; 0x06
    660c:	80 6c       	ori	r24, 0xC0	; 192
    660e:	86 83       	std	Z+6, r24	; 0x06
	USART0.CTRLC = 0b00000011;//00 00 0 11: Asynchronous, noparity, stopbit=1, 8bit
    6610:	83 e0       	ldi	r24, 0x03	; 3
    6612:	87 83       	std	Z+7, r24	; 0x07
    6614:	08 95       	ret

00006616 <_ZN7my_uart7tx_doneEv>:
}

bool my_uart::tx_done(void)
{
	return (USART0.STATUS & USART_DREIF_bm);
    6616:	80 91 04 08 	lds	r24, 0x0804	; 0x800804 <__TEXT_REGION_LENGTH__+0x7f0804>
}
    661a:	85 fb       	bst	r24, 5
    661c:	88 27       	eor	r24, r24
    661e:	80 f9       	bld	r24, 0
    6620:	08 95       	ret

00006622 <_ZN7my_uart9send_charEh>:

//1M
void my_uart::send_char(const unsigned char data)
{
    6622:	cf 93       	push	r28
    6624:	c8 2f       	mov	r28, r24
	while (!tx_done());
    6626:	0e 94 0b 33 	call	0x6616	; 0x6616 <_ZN7my_uart7tx_doneEv>
    662a:	88 23       	and	r24, r24
    662c:	e1 f3       	breq	.-8      	; 0x6626 <_ZN7my_uart9send_charEh+0x4>
	USART0.TXDATAL = data;
    662e:	c0 93 02 08 	sts	0x0802, r28	; 0x800802 <__TEXT_REGION_LENGTH__+0x7f0802>
}
    6632:	cf 91       	pop	r28
    6634:	08 95       	ret

00006636 <_ZN7my_xbee10InitializeEv>:
#include "my_xbee.h"
#include "my_uart.h"

void my_xbee::Initialize(void)
{
	my_uart::Initialize();	
    6636:	0e 94 f3 32 	call	0x65e6	; 0x65e6 <_ZN7my_uart10InitializeEv>
    663a:	08 95       	ret

0000663c <_ZN7my_xbee15get_char_lengthEPKc>:
	
	my_uart::send_char((char)(0xff - chkSum)); //ChecksumM
}

int my_xbee::get_char_length(const char data[])
{
    663c:	ac 01       	movw	r20, r24
	int length = 0;
	for(length = 0; data[length]; length++);
    663e:	80 e0       	ldi	r24, 0x00	; 0
    6640:	90 e0       	ldi	r25, 0x00	; 0
    6642:	fa 01       	movw	r30, r20
    6644:	e8 0f       	add	r30, r24
    6646:	f9 1f       	adc	r31, r25
    6648:	20 81       	ld	r18, Z
    664a:	22 23       	and	r18, r18
    664c:	11 f0       	breq	.+4      	; 0x6652 <_ZN7my_xbee15get_char_lengthEPKc+0x16>
    664e:	01 96       	adiw	r24, 0x01	; 1
    6650:	f8 cf       	rjmp	.-16     	; 0x6642 <_ZN7my_xbee15get_char_lengthEPKc+0x6>
	return length;
}
    6652:	08 95       	ret

00006654 <_ZN7my_xbee8add_csumEic>:

int my_xbee::add_csum(int csum, char nbyte)
{
	csum += (int)nbyte;
    6654:	86 0f       	add	r24, r22
    6656:	91 1d       	adc	r25, r1
	csum = csum & 0x00ff;
	return csum;
}
    6658:	99 27       	eor	r25, r25
    665a:	08 95       	ret

0000665c <_ZN7my_xbee8tx_charsEPKc>:
	my_uart::Initialize();	
}

//R[fBl[^zM
void my_xbee::tx_chars(const char data[])
{
    665c:	af 92       	push	r10
    665e:	bf 92       	push	r11
    6660:	cf 92       	push	r12
    6662:	df 92       	push	r13
    6664:	ef 92       	push	r14
    6666:	ff 92       	push	r15
    6668:	0f 93       	push	r16
    666a:	1f 93       	push	r17
    666c:	cf 93       	push	r28
    666e:	df 93       	push	r29
    6670:	5c 01       	movw	r10, r24
	int chkSum = 0;
	int cl = get_char_length(data);
    6672:	0e 94 1e 33 	call	0x663c	; 0x663c <_ZN7my_xbee15get_char_lengthEPKc>
    6676:	6c 01       	movw	r12, r24
	
	my_uart::send_char(0x7E); //APIt[JnR[h
    6678:	8e e7       	ldi	r24, 0x7E	; 126
    667a:	0e 94 11 33 	call	0x6622	; 0x6622 <_ZN7my_uart9send_charEh>
	my_uart::send_char((char)(((cl + 14) >> 8) & 0xff));	//f[^oCg
    667e:	c6 01       	movw	r24, r12
    6680:	0e 96       	adiw	r24, 0x0e	; 14
    6682:	89 2f       	mov	r24, r25
    6684:	0e 94 11 33 	call	0x6622	; 0x6622 <_ZN7my_uart9send_charEh>
	my_uart::send_char((char)((cl + 14) & 0xff));			//f[^oCg
    6688:	8e e0       	ldi	r24, 0x0E	; 14
    668a:	8c 0d       	add	r24, r12
    668c:	0e 94 11 33 	call	0x6622	; 0x6622 <_ZN7my_uart9send_charEh>
	
	//`bNTZ*************
	my_uart::send_char(0x10); //R}hIDif[^M0x10j
    6690:	80 e1       	ldi	r24, 0x10	; 16
    6692:	0e 94 11 33 	call	0x6622	; 0x6622 <_ZN7my_uart9send_charEh>
	chkSum = add_csum(chkSum, 0x10);
    6696:	60 e1       	ldi	r22, 0x10	; 16
    6698:	80 e0       	ldi	r24, 0x00	; 0
    669a:	90 e0       	ldi	r25, 0x00	; 0
    669c:	0e 94 2a 33 	call	0x6654	; 0x6654 <_ZN7my_xbee8add_csumEic>
    66a0:	8c 01       	movw	r16, r24
	
	my_uart::send_char(0x00); //t[IDiCj//0OACKB0
    66a2:	80 e0       	ldi	r24, 0x00	; 0
    66a4:	0e 94 11 33 	call	0x6622	; 0x6622 <_ZN7my_uart9send_charEh>
	
	for(int i=0;i<8;i++) //64bitMAhXR[fBl[^M0`FbNTs
    66a8:	c0 e0       	ldi	r28, 0x00	; 0
    66aa:	d0 e0       	ldi	r29, 0x00	; 0
    66ac:	c8 30       	cpi	r28, 0x08	; 8
    66ae:	d1 05       	cpc	r29, r1
    66b0:	2c f4       	brge	.+10     	; 0x66bc <_ZN7my_xbee8tx_charsEPKc+0x60>
		my_uart::send_char(0x00);
    66b2:	80 e0       	ldi	r24, 0x00	; 0
    66b4:	0e 94 11 33 	call	0x6622	; 0x6622 <_ZN7my_uart9send_charEh>
	my_uart::send_char(0x10); //R}hIDif[^M0x10j
	chkSum = add_csum(chkSum, 0x10);
	
	my_uart::send_char(0x00); //t[IDiCj//0OACKB0
	
	for(int i=0;i<8;i++) //64bitMAhXR[fBl[^M0`FbNTs
    66b8:	21 96       	adiw	r28, 0x01	; 1
    66ba:	f8 cf       	rjmp	.-16     	; 0x66ac <_ZN7my_xbee8tx_charsEPKc+0x50>
		my_uart::send_char(0x00);
		
	my_uart::send_char(0xFF); //16bitMAhX_M
    66bc:	8f ef       	ldi	r24, 0xFF	; 255
    66be:	0e 94 11 33 	call	0x6622	; 0x6622 <_ZN7my_uart9send_charEh>
	chkSum = add_csum(chkSum, 0xFF);
    66c2:	6f ef       	ldi	r22, 0xFF	; 255
    66c4:	c8 01       	movw	r24, r16
    66c6:	0e 94 2a 33 	call	0x6654	; 0x6654 <_ZN7my_xbee8add_csumEic>
    66ca:	ec 01       	movw	r28, r24
	
	my_uart::send_char(0xFE); //16bitMAhX_L
    66cc:	8e ef       	ldi	r24, 0xFE	; 254
    66ce:	0e 94 11 33 	call	0x6622	; 0x6622 <_ZN7my_uart9send_charEh>
	chkSum = add_csum(chkSum, 0xFE);
    66d2:	6e ef       	ldi	r22, 0xFE	; 254
    66d4:	ce 01       	movw	r24, r28
    66d6:	0e 94 2a 33 	call	0x6654	; 0x6654 <_ZN7my_xbee8add_csumEic>
    66da:	f8 2e       	mov	r15, r24
    66dc:	e9 2e       	mov	r14, r25
	
	my_uart::send_char(0x00); //u[hLXgaijLXg0`FbNTsj
    66de:	80 e0       	ldi	r24, 0x00	; 0
    66e0:	0e 94 11 33 	call	0x6622	; 0x6622 <_ZN7my_uart9send_charEh>

	my_uart::send_char(0x00); //MIvV0`FbNTs
    66e4:	80 e0       	ldi	r24, 0x00	; 0
    66e6:	0e 94 11 33 	call	0x6622	; 0x6622 <_ZN7my_uart9send_charEh>
	
	//Mf[^
	for(int i=0;i<cl;i++)
    66ea:	c0 e0       	ldi	r28, 0x00	; 0
    66ec:	d0 e0       	ldi	r29, 0x00	; 0
    66ee:	cc 15       	cp	r28, r12
    66f0:	dd 05       	cpc	r29, r13
    66f2:	8c f4       	brge	.+34     	; 0x6716 <_ZN7my_xbee8tx_charsEPKc+0xba>
	{
		my_uart::send_char(data[i]);		
    66f4:	85 01       	movw	r16, r10
    66f6:	0c 0f       	add	r16, r28
    66f8:	1d 1f       	adc	r17, r29
    66fa:	f8 01       	movw	r30, r16
    66fc:	80 81       	ld	r24, Z
    66fe:	0e 94 11 33 	call	0x6622	; 0x6622 <_ZN7my_uart9send_charEh>
		chkSum = add_csum(chkSum, data[i]);
    6702:	f8 01       	movw	r30, r16
    6704:	60 81       	ld	r22, Z
    6706:	8f 2d       	mov	r24, r15
    6708:	9e 2d       	mov	r25, r14
    670a:	0e 94 2a 33 	call	0x6654	; 0x6654 <_ZN7my_xbee8add_csumEic>
    670e:	f8 2e       	mov	r15, r24
    6710:	e9 2e       	mov	r14, r25
	my_uart::send_char(0x00); //u[hLXgaijLXg0`FbNTsj

	my_uart::send_char(0x00); //MIvV0`FbNTs
	
	//Mf[^
	for(int i=0;i<cl;i++)
    6712:	21 96       	adiw	r28, 0x01	; 1
    6714:	ec cf       	rjmp	.-40     	; 0x66ee <_ZN7my_xbee8tx_charsEPKc+0x92>
	{
		my_uart::send_char(data[i]);		
		chkSum = add_csum(chkSum, data[i]);
	}
	
	my_uart::send_char((char)(0xff - chkSum)); //ChecksumM
    6716:	8f 2d       	mov	r24, r15
    6718:	80 95       	com	r24
    671a:	0e 94 11 33 	call	0x6622	; 0x6622 <_ZN7my_uart9send_charEh>
}
    671e:	df 91       	pop	r29
    6720:	cf 91       	pop	r28
    6722:	1f 91       	pop	r17
    6724:	0f 91       	pop	r16
    6726:	ff 90       	pop	r15
    6728:	ef 90       	pop	r14
    672a:	df 90       	pop	r13
    672c:	cf 90       	pop	r12
    672e:	bf 90       	pop	r11
    6730:	af 90       	pop	r10
    6732:	08 95       	ret

00006734 <_ZN7my_xbee8bl_charsEPKc>:
	return csum;
}

//BluetoothzM
void my_xbee::bl_chars(const char data[])
{
    6734:	af 92       	push	r10
    6736:	bf 92       	push	r11
    6738:	cf 92       	push	r12
    673a:	df 92       	push	r13
    673c:	ef 92       	push	r14
    673e:	ff 92       	push	r15
    6740:	0f 93       	push	r16
    6742:	1f 93       	push	r17
    6744:	cf 93       	push	r28
    6746:	df 93       	push	r29
    6748:	5c 01       	movw	r10, r24
	int chkSum = 0;
	int cl = get_char_length(data);
    674a:	0e 94 1e 33 	call	0x663c	; 0x663c <_ZN7my_xbee15get_char_lengthEPKc>
    674e:	6c 01       	movw	r12, r24
	
	my_uart::send_char(0x7E); //APIt[JnR[h
    6750:	8e e7       	ldi	r24, 0x7E	; 126
    6752:	0e 94 11 33 	call	0x6622	; 0x6622 <_ZN7my_uart9send_charEh>
	my_uart::send_char((char)(((cl + 3) >> 8) & 0xff));	//f[^oCg
    6756:	c6 01       	movw	r24, r12
    6758:	03 96       	adiw	r24, 0x03	; 3
    675a:	89 2f       	mov	r24, r25
    675c:	0e 94 11 33 	call	0x6622	; 0x6622 <_ZN7my_uart9send_charEh>
	my_uart::send_char((char)((cl + 3) & 0xff));			//f[^oCg
    6760:	83 e0       	ldi	r24, 0x03	; 3
    6762:	8c 0d       	add	r24, r12
    6764:	0e 94 11 33 	call	0x6622	; 0x6622 <_ZN7my_uart9send_charEh>
	
	//`bNTZ*************
	my_uart::send_char(0x2D); //t[ typeiDataRelay0x2Dj
    6768:	8d e2       	ldi	r24, 0x2D	; 45
    676a:	0e 94 11 33 	call	0x6622	; 0x6622 <_ZN7my_uart9send_charEh>
	chkSum = add_csum(chkSum, 0x2D);
    676e:	6d e2       	ldi	r22, 0x2D	; 45
    6770:	80 e0       	ldi	r24, 0x00	; 0
    6772:	90 e0       	ldi	r25, 0x00	; 0
    6774:	0e 94 2a 33 	call	0x6654	; 0x6654 <_ZN7my_xbee8add_csumEic>
    6778:	ec 01       	movw	r28, r24
	
	my_uart::send_char(0x00); //t[ID
    677a:	80 e0       	ldi	r24, 0x00	; 0
    677c:	0e 94 11 33 	call	0x6622	; 0x6622 <_ZN7my_uart9send_charEh>
	
	my_uart::send_char(0x01); //Source interfaceiBluetooth0x01j
    6780:	81 e0       	ldi	r24, 0x01	; 1
    6782:	0e 94 11 33 	call	0x6622	; 0x6622 <_ZN7my_uart9send_charEh>
	chkSum = add_csum(chkSum, 0x01);
    6786:	61 e0       	ldi	r22, 0x01	; 1
    6788:	ce 01       	movw	r24, r28
    678a:	0e 94 2a 33 	call	0x6654	; 0x6654 <_ZN7my_xbee8add_csumEic>
    678e:	f8 2e       	mov	r15, r24
    6790:	e9 2e       	mov	r14, r25
		
	//Mf[^
	for(int i=0;i<cl;i++)
    6792:	c0 e0       	ldi	r28, 0x00	; 0
    6794:	d0 e0       	ldi	r29, 0x00	; 0
    6796:	cc 15       	cp	r28, r12
    6798:	dd 05       	cpc	r29, r13
    679a:	8c f4       	brge	.+34     	; 0x67be <_ZN7my_xbee8bl_charsEPKc+0x8a>
	{
		my_uart::send_char(data[i]);
    679c:	85 01       	movw	r16, r10
    679e:	0c 0f       	add	r16, r28
    67a0:	1d 1f       	adc	r17, r29
    67a2:	f8 01       	movw	r30, r16
    67a4:	80 81       	ld	r24, Z
    67a6:	0e 94 11 33 	call	0x6622	; 0x6622 <_ZN7my_uart9send_charEh>
		chkSum = add_csum(chkSum, data[i]);
    67aa:	f8 01       	movw	r30, r16
    67ac:	60 81       	ld	r22, Z
    67ae:	8f 2d       	mov	r24, r15
    67b0:	9e 2d       	mov	r25, r14
    67b2:	0e 94 2a 33 	call	0x6654	; 0x6654 <_ZN7my_xbee8add_csumEic>
    67b6:	f8 2e       	mov	r15, r24
    67b8:	e9 2e       	mov	r14, r25
	
	my_uart::send_char(0x01); //Source interfaceiBluetooth0x01j
	chkSum = add_csum(chkSum, 0x01);
		
	//Mf[^
	for(int i=0;i<cl;i++)
    67ba:	21 96       	adiw	r28, 0x01	; 1
    67bc:	ec cf       	rjmp	.-40     	; 0x6796 <_ZN7my_xbee8bl_charsEPKc+0x62>
	{
		my_uart::send_char(data[i]);
		chkSum = add_csum(chkSum, data[i]);
	}
	
	my_uart::send_char((char)(0xff - chkSum)); //ChecksumM
    67be:	8f 2d       	mov	r24, r15
    67c0:	80 95       	com	r24
    67c2:	0e 94 11 33 	call	0x6622	; 0x6622 <_ZN7my_uart9send_charEh>
}
    67c6:	df 91       	pop	r29
    67c8:	cf 91       	pop	r28
    67ca:	1f 91       	pop	r17
    67cc:	0f 91       	pop	r16
    67ce:	ff 90       	pop	r15
    67d0:	ef 90       	pop	r14
    67d2:	df 90       	pop	r13
    67d4:	cf 90       	pop	r12
    67d6:	bf 90       	pop	r11
    67d8:	af 90       	pop	r10
    67da:	08 95       	ret

000067dc <_ZN7my_xbee10bltx_charsEPKc>:

void my_xbee::bltx_chars(const char data[])
{
    67dc:	cf 93       	push	r28
    67de:	df 93       	push	r29
    67e0:	ec 01       	movw	r28, r24
	tx_chars(data);
    67e2:	0e 94 2e 33 	call	0x665c	; 0x665c <_ZN7my_xbee8tx_charsEPKc>
	bl_chars(data);	
    67e6:	ce 01       	movw	r24, r28
    67e8:	0e 94 9a 33 	call	0x6734	; 0x6734 <_ZN7my_xbee8bl_charsEPKc>
}
    67ec:	df 91       	pop	r29
    67ee:	cf 91       	pop	r28
    67f0:	08 95       	ret

000067f2 <__subsf3>:
    67f2:	50 58       	subi	r21, 0x80	; 128

000067f4 <__addsf3>:
    67f4:	bb 27       	eor	r27, r27
    67f6:	aa 27       	eor	r26, r26
    67f8:	0e 94 11 34 	call	0x6822	; 0x6822 <__addsf3x>
    67fc:	0c 94 b6 35 	jmp	0x6b6c	; 0x6b6c <__fp_round>
    6800:	0e 94 a8 35 	call	0x6b50	; 0x6b50 <__fp_pscA>
    6804:	38 f0       	brcs	.+14     	; 0x6814 <__addsf3+0x20>
    6806:	0e 94 af 35 	call	0x6b5e	; 0x6b5e <__fp_pscB>
    680a:	20 f0       	brcs	.+8      	; 0x6814 <__addsf3+0x20>
    680c:	39 f4       	brne	.+14     	; 0x681c <__addsf3+0x28>
    680e:	9f 3f       	cpi	r25, 0xFF	; 255
    6810:	19 f4       	brne	.+6      	; 0x6818 <__addsf3+0x24>
    6812:	26 f4       	brtc	.+8      	; 0x681c <__addsf3+0x28>
    6814:	0c 94 7e 35 	jmp	0x6afc	; 0x6afc <__fp_nan>
    6818:	0e f4       	brtc	.+2      	; 0x681c <__addsf3+0x28>
    681a:	e0 95       	com	r30
    681c:	e7 fb       	bst	r30, 7
    681e:	0c 94 78 35 	jmp	0x6af0	; 0x6af0 <__fp_inf>

00006822 <__addsf3x>:
    6822:	e9 2f       	mov	r30, r25
    6824:	0e 94 c7 35 	call	0x6b8e	; 0x6b8e <__fp_split3>
    6828:	58 f3       	brcs	.-42     	; 0x6800 <__addsf3+0xc>
    682a:	ba 17       	cp	r27, r26
    682c:	62 07       	cpc	r22, r18
    682e:	73 07       	cpc	r23, r19
    6830:	84 07       	cpc	r24, r20
    6832:	95 07       	cpc	r25, r21
    6834:	20 f0       	brcs	.+8      	; 0x683e <__addsf3x+0x1c>
    6836:	79 f4       	brne	.+30     	; 0x6856 <__addsf3x+0x34>
    6838:	a6 f5       	brtc	.+104    	; 0x68a2 <__addsf3x+0x80>
    683a:	0c 94 e9 35 	jmp	0x6bd2	; 0x6bd2 <__fp_zero>
    683e:	0e f4       	brtc	.+2      	; 0x6842 <__addsf3x+0x20>
    6840:	e0 95       	com	r30
    6842:	0b 2e       	mov	r0, r27
    6844:	ba 2f       	mov	r27, r26
    6846:	a0 2d       	mov	r26, r0
    6848:	0b 01       	movw	r0, r22
    684a:	b9 01       	movw	r22, r18
    684c:	90 01       	movw	r18, r0
    684e:	0c 01       	movw	r0, r24
    6850:	ca 01       	movw	r24, r20
    6852:	a0 01       	movw	r20, r0
    6854:	11 24       	eor	r1, r1
    6856:	ff 27       	eor	r31, r31
    6858:	59 1b       	sub	r21, r25
    685a:	99 f0       	breq	.+38     	; 0x6882 <__addsf3x+0x60>
    685c:	59 3f       	cpi	r21, 0xF9	; 249
    685e:	50 f4       	brcc	.+20     	; 0x6874 <__addsf3x+0x52>
    6860:	50 3e       	cpi	r21, 0xE0	; 224
    6862:	68 f1       	brcs	.+90     	; 0x68be <__addsf3x+0x9c>
    6864:	1a 16       	cp	r1, r26
    6866:	f0 40       	sbci	r31, 0x00	; 0
    6868:	a2 2f       	mov	r26, r18
    686a:	23 2f       	mov	r18, r19
    686c:	34 2f       	mov	r19, r20
    686e:	44 27       	eor	r20, r20
    6870:	58 5f       	subi	r21, 0xF8	; 248
    6872:	f3 cf       	rjmp	.-26     	; 0x685a <__addsf3x+0x38>
    6874:	46 95       	lsr	r20
    6876:	37 95       	ror	r19
    6878:	27 95       	ror	r18
    687a:	a7 95       	ror	r26
    687c:	f0 40       	sbci	r31, 0x00	; 0
    687e:	53 95       	inc	r21
    6880:	c9 f7       	brne	.-14     	; 0x6874 <__addsf3x+0x52>
    6882:	7e f4       	brtc	.+30     	; 0x68a2 <__addsf3x+0x80>
    6884:	1f 16       	cp	r1, r31
    6886:	ba 0b       	sbc	r27, r26
    6888:	62 0b       	sbc	r22, r18
    688a:	73 0b       	sbc	r23, r19
    688c:	84 0b       	sbc	r24, r20
    688e:	ba f0       	brmi	.+46     	; 0x68be <__addsf3x+0x9c>
    6890:	91 50       	subi	r25, 0x01	; 1
    6892:	a1 f0       	breq	.+40     	; 0x68bc <__addsf3x+0x9a>
    6894:	ff 0f       	add	r31, r31
    6896:	bb 1f       	adc	r27, r27
    6898:	66 1f       	adc	r22, r22
    689a:	77 1f       	adc	r23, r23
    689c:	88 1f       	adc	r24, r24
    689e:	c2 f7       	brpl	.-16     	; 0x6890 <__addsf3x+0x6e>
    68a0:	0e c0       	rjmp	.+28     	; 0x68be <__addsf3x+0x9c>
    68a2:	ba 0f       	add	r27, r26
    68a4:	62 1f       	adc	r22, r18
    68a6:	73 1f       	adc	r23, r19
    68a8:	84 1f       	adc	r24, r20
    68aa:	48 f4       	brcc	.+18     	; 0x68be <__addsf3x+0x9c>
    68ac:	87 95       	ror	r24
    68ae:	77 95       	ror	r23
    68b0:	67 95       	ror	r22
    68b2:	b7 95       	ror	r27
    68b4:	f7 95       	ror	r31
    68b6:	9e 3f       	cpi	r25, 0xFE	; 254
    68b8:	08 f0       	brcs	.+2      	; 0x68bc <__addsf3x+0x9a>
    68ba:	b0 cf       	rjmp	.-160    	; 0x681c <__addsf3+0x28>
    68bc:	93 95       	inc	r25
    68be:	88 0f       	add	r24, r24
    68c0:	08 f0       	brcs	.+2      	; 0x68c4 <__addsf3x+0xa2>
    68c2:	99 27       	eor	r25, r25
    68c4:	ee 0f       	add	r30, r30
    68c6:	97 95       	ror	r25
    68c8:	87 95       	ror	r24
    68ca:	08 95       	ret

000068cc <__cmpsf2>:
    68cc:	0e 94 54 35 	call	0x6aa8	; 0x6aa8 <__fp_cmp>
    68d0:	08 f4       	brcc	.+2      	; 0x68d4 <__cmpsf2+0x8>
    68d2:	81 e0       	ldi	r24, 0x01	; 1
    68d4:	08 95       	ret

000068d6 <__divsf3>:
    68d6:	0e 94 7f 34 	call	0x68fe	; 0x68fe <__divsf3x>
    68da:	0c 94 b6 35 	jmp	0x6b6c	; 0x6b6c <__fp_round>
    68de:	0e 94 af 35 	call	0x6b5e	; 0x6b5e <__fp_pscB>
    68e2:	58 f0       	brcs	.+22     	; 0x68fa <__divsf3+0x24>
    68e4:	0e 94 a8 35 	call	0x6b50	; 0x6b50 <__fp_pscA>
    68e8:	40 f0       	brcs	.+16     	; 0x68fa <__divsf3+0x24>
    68ea:	29 f4       	brne	.+10     	; 0x68f6 <__divsf3+0x20>
    68ec:	5f 3f       	cpi	r21, 0xFF	; 255
    68ee:	29 f0       	breq	.+10     	; 0x68fa <__divsf3+0x24>
    68f0:	0c 94 78 35 	jmp	0x6af0	; 0x6af0 <__fp_inf>
    68f4:	51 11       	cpse	r21, r1
    68f6:	0c 94 ea 35 	jmp	0x6bd4	; 0x6bd4 <__fp_szero>
    68fa:	0c 94 7e 35 	jmp	0x6afc	; 0x6afc <__fp_nan>

000068fe <__divsf3x>:
    68fe:	0e 94 c7 35 	call	0x6b8e	; 0x6b8e <__fp_split3>
    6902:	68 f3       	brcs	.-38     	; 0x68de <__divsf3+0x8>

00006904 <__divsf3_pse>:
    6904:	99 23       	and	r25, r25
    6906:	b1 f3       	breq	.-20     	; 0x68f4 <__divsf3+0x1e>
    6908:	55 23       	and	r21, r21
    690a:	91 f3       	breq	.-28     	; 0x68f0 <__divsf3+0x1a>
    690c:	95 1b       	sub	r25, r21
    690e:	55 0b       	sbc	r21, r21
    6910:	bb 27       	eor	r27, r27
    6912:	aa 27       	eor	r26, r26
    6914:	62 17       	cp	r22, r18
    6916:	73 07       	cpc	r23, r19
    6918:	84 07       	cpc	r24, r20
    691a:	38 f0       	brcs	.+14     	; 0x692a <__divsf3_pse+0x26>
    691c:	9f 5f       	subi	r25, 0xFF	; 255
    691e:	5f 4f       	sbci	r21, 0xFF	; 255
    6920:	22 0f       	add	r18, r18
    6922:	33 1f       	adc	r19, r19
    6924:	44 1f       	adc	r20, r20
    6926:	aa 1f       	adc	r26, r26
    6928:	a9 f3       	breq	.-22     	; 0x6914 <__divsf3_pse+0x10>
    692a:	35 d0       	rcall	.+106    	; 0x6996 <__divsf3_pse+0x92>
    692c:	0e 2e       	mov	r0, r30
    692e:	3a f0       	brmi	.+14     	; 0x693e <__divsf3_pse+0x3a>
    6930:	e0 e8       	ldi	r30, 0x80	; 128
    6932:	32 d0       	rcall	.+100    	; 0x6998 <__divsf3_pse+0x94>
    6934:	91 50       	subi	r25, 0x01	; 1
    6936:	50 40       	sbci	r21, 0x00	; 0
    6938:	e6 95       	lsr	r30
    693a:	00 1c       	adc	r0, r0
    693c:	ca f7       	brpl	.-14     	; 0x6930 <__divsf3_pse+0x2c>
    693e:	2b d0       	rcall	.+86     	; 0x6996 <__divsf3_pse+0x92>
    6940:	fe 2f       	mov	r31, r30
    6942:	29 d0       	rcall	.+82     	; 0x6996 <__divsf3_pse+0x92>
    6944:	66 0f       	add	r22, r22
    6946:	77 1f       	adc	r23, r23
    6948:	88 1f       	adc	r24, r24
    694a:	bb 1f       	adc	r27, r27
    694c:	26 17       	cp	r18, r22
    694e:	37 07       	cpc	r19, r23
    6950:	48 07       	cpc	r20, r24
    6952:	ab 07       	cpc	r26, r27
    6954:	b0 e8       	ldi	r27, 0x80	; 128
    6956:	09 f0       	breq	.+2      	; 0x695a <__divsf3_pse+0x56>
    6958:	bb 0b       	sbc	r27, r27
    695a:	80 2d       	mov	r24, r0
    695c:	bf 01       	movw	r22, r30
    695e:	ff 27       	eor	r31, r31
    6960:	93 58       	subi	r25, 0x83	; 131
    6962:	5f 4f       	sbci	r21, 0xFF	; 255
    6964:	3a f0       	brmi	.+14     	; 0x6974 <__divsf3_pse+0x70>
    6966:	9e 3f       	cpi	r25, 0xFE	; 254
    6968:	51 05       	cpc	r21, r1
    696a:	78 f0       	brcs	.+30     	; 0x698a <__divsf3_pse+0x86>
    696c:	0c 94 78 35 	jmp	0x6af0	; 0x6af0 <__fp_inf>
    6970:	0c 94 ea 35 	jmp	0x6bd4	; 0x6bd4 <__fp_szero>
    6974:	5f 3f       	cpi	r21, 0xFF	; 255
    6976:	e4 f3       	brlt	.-8      	; 0x6970 <__divsf3_pse+0x6c>
    6978:	98 3e       	cpi	r25, 0xE8	; 232
    697a:	d4 f3       	brlt	.-12     	; 0x6970 <__divsf3_pse+0x6c>
    697c:	86 95       	lsr	r24
    697e:	77 95       	ror	r23
    6980:	67 95       	ror	r22
    6982:	b7 95       	ror	r27
    6984:	f7 95       	ror	r31
    6986:	9f 5f       	subi	r25, 0xFF	; 255
    6988:	c9 f7       	brne	.-14     	; 0x697c <__divsf3_pse+0x78>
    698a:	88 0f       	add	r24, r24
    698c:	91 1d       	adc	r25, r1
    698e:	96 95       	lsr	r25
    6990:	87 95       	ror	r24
    6992:	97 f9       	bld	r25, 7
    6994:	08 95       	ret
    6996:	e1 e0       	ldi	r30, 0x01	; 1
    6998:	66 0f       	add	r22, r22
    699a:	77 1f       	adc	r23, r23
    699c:	88 1f       	adc	r24, r24
    699e:	bb 1f       	adc	r27, r27
    69a0:	62 17       	cp	r22, r18
    69a2:	73 07       	cpc	r23, r19
    69a4:	84 07       	cpc	r24, r20
    69a6:	ba 07       	cpc	r27, r26
    69a8:	20 f0       	brcs	.+8      	; 0x69b2 <__divsf3_pse+0xae>
    69aa:	62 1b       	sub	r22, r18
    69ac:	73 0b       	sbc	r23, r19
    69ae:	84 0b       	sbc	r24, r20
    69b0:	ba 0b       	sbc	r27, r26
    69b2:	ee 1f       	adc	r30, r30
    69b4:	88 f7       	brcc	.-30     	; 0x6998 <__divsf3_pse+0x94>
    69b6:	e0 95       	com	r30
    69b8:	08 95       	ret
    69ba:	29 f4       	brne	.+10     	; 0x69c6 <__divsf3_pse+0xc2>
    69bc:	16 f0       	brts	.+4      	; 0x69c2 <__divsf3_pse+0xbe>
    69be:	0c 94 78 35 	jmp	0x6af0	; 0x6af0 <__fp_inf>
    69c2:	0c 94 e9 35 	jmp	0x6bd2	; 0x6bd2 <__fp_zero>
    69c6:	0c 94 7e 35 	jmp	0x6afc	; 0x6afc <__fp_nan>

000069ca <exp>:
    69ca:	0e 94 cf 35 	call	0x6b9e	; 0x6b9e <__fp_splitA>
    69ce:	a8 f3       	brcs	.-22     	; 0x69ba <__divsf3_pse+0xb6>
    69d0:	96 38       	cpi	r25, 0x86	; 134
    69d2:	a0 f7       	brcc	.-24     	; 0x69bc <__divsf3_pse+0xb8>
    69d4:	07 f8       	bld	r0, 7
    69d6:	0f 92       	push	r0
    69d8:	e8 94       	clt
    69da:	2b e3       	ldi	r18, 0x3B	; 59
    69dc:	3a ea       	ldi	r19, 0xAA	; 170
    69de:	48 eb       	ldi	r20, 0xB8	; 184
    69e0:	5f e7       	ldi	r21, 0x7F	; 127
    69e2:	0e 94 d1 36 	call	0x6da2	; 0x6da2 <__mulsf3_pse>
    69e6:	0f 92       	push	r0
    69e8:	0f 92       	push	r0
    69ea:	0f 92       	push	r0
    69ec:	4d b7       	in	r20, 0x3d	; 61
    69ee:	5e b7       	in	r21, 0x3e	; 62
    69f0:	0f 92       	push	r0
    69f2:	0e 94 87 36 	call	0x6d0e	; 0x6d0e <modf>
    69f6:	e4 e2       	ldi	r30, 0x24	; 36
    69f8:	f1 e0       	ldi	r31, 0x01	; 1
    69fa:	0e 94 81 35 	call	0x6b02	; 0x6b02 <__fp_powser>
    69fe:	4f 91       	pop	r20
    6a00:	5f 91       	pop	r21
    6a02:	ef 91       	pop	r30
    6a04:	ff 91       	pop	r31
    6a06:	e5 95       	asr	r30
    6a08:	ee 1f       	adc	r30, r30
    6a0a:	ff 1f       	adc	r31, r31
    6a0c:	49 f0       	breq	.+18     	; 0x6a20 <exp+0x56>
    6a0e:	fe 57       	subi	r31, 0x7E	; 126
    6a10:	e0 68       	ori	r30, 0x80	; 128
    6a12:	44 27       	eor	r20, r20
    6a14:	ee 0f       	add	r30, r30
    6a16:	44 1f       	adc	r20, r20
    6a18:	fa 95       	dec	r31
    6a1a:	e1 f7       	brne	.-8      	; 0x6a14 <exp+0x4a>
    6a1c:	41 95       	neg	r20
    6a1e:	55 0b       	sbc	r21, r21
    6a20:	0e 94 01 36 	call	0x6c02	; 0x6c02 <ldexp>
    6a24:	0f 90       	pop	r0
    6a26:	07 fe       	sbrs	r0, 7
    6a28:	0c 94 f5 35 	jmp	0x6bea	; 0x6bea <inverse>
    6a2c:	08 95       	ret

00006a2e <__floatunsisf>:
    6a2e:	e8 94       	clt
    6a30:	09 c0       	rjmp	.+18     	; 0x6a44 <__floatsisf+0x12>

00006a32 <__floatsisf>:
    6a32:	97 fb       	bst	r25, 7
    6a34:	3e f4       	brtc	.+14     	; 0x6a44 <__floatsisf+0x12>
    6a36:	90 95       	com	r25
    6a38:	80 95       	com	r24
    6a3a:	70 95       	com	r23
    6a3c:	61 95       	neg	r22
    6a3e:	7f 4f       	sbci	r23, 0xFF	; 255
    6a40:	8f 4f       	sbci	r24, 0xFF	; 255
    6a42:	9f 4f       	sbci	r25, 0xFF	; 255
    6a44:	99 23       	and	r25, r25
    6a46:	a9 f0       	breq	.+42     	; 0x6a72 <__floatsisf+0x40>
    6a48:	f9 2f       	mov	r31, r25
    6a4a:	96 e9       	ldi	r25, 0x96	; 150
    6a4c:	bb 27       	eor	r27, r27
    6a4e:	93 95       	inc	r25
    6a50:	f6 95       	lsr	r31
    6a52:	87 95       	ror	r24
    6a54:	77 95       	ror	r23
    6a56:	67 95       	ror	r22
    6a58:	b7 95       	ror	r27
    6a5a:	f1 11       	cpse	r31, r1
    6a5c:	f8 cf       	rjmp	.-16     	; 0x6a4e <__floatsisf+0x1c>
    6a5e:	fa f4       	brpl	.+62     	; 0x6a9e <__floatsisf+0x6c>
    6a60:	bb 0f       	add	r27, r27
    6a62:	11 f4       	brne	.+4      	; 0x6a68 <__floatsisf+0x36>
    6a64:	60 ff       	sbrs	r22, 0
    6a66:	1b c0       	rjmp	.+54     	; 0x6a9e <__floatsisf+0x6c>
    6a68:	6f 5f       	subi	r22, 0xFF	; 255
    6a6a:	7f 4f       	sbci	r23, 0xFF	; 255
    6a6c:	8f 4f       	sbci	r24, 0xFF	; 255
    6a6e:	9f 4f       	sbci	r25, 0xFF	; 255
    6a70:	16 c0       	rjmp	.+44     	; 0x6a9e <__floatsisf+0x6c>
    6a72:	88 23       	and	r24, r24
    6a74:	11 f0       	breq	.+4      	; 0x6a7a <__floatsisf+0x48>
    6a76:	96 e9       	ldi	r25, 0x96	; 150
    6a78:	11 c0       	rjmp	.+34     	; 0x6a9c <__floatsisf+0x6a>
    6a7a:	77 23       	and	r23, r23
    6a7c:	21 f0       	breq	.+8      	; 0x6a86 <__floatsisf+0x54>
    6a7e:	9e e8       	ldi	r25, 0x8E	; 142
    6a80:	87 2f       	mov	r24, r23
    6a82:	76 2f       	mov	r23, r22
    6a84:	05 c0       	rjmp	.+10     	; 0x6a90 <__floatsisf+0x5e>
    6a86:	66 23       	and	r22, r22
    6a88:	71 f0       	breq	.+28     	; 0x6aa6 <__floatsisf+0x74>
    6a8a:	96 e8       	ldi	r25, 0x86	; 134
    6a8c:	86 2f       	mov	r24, r22
    6a8e:	70 e0       	ldi	r23, 0x00	; 0
    6a90:	60 e0       	ldi	r22, 0x00	; 0
    6a92:	2a f0       	brmi	.+10     	; 0x6a9e <__floatsisf+0x6c>
    6a94:	9a 95       	dec	r25
    6a96:	66 0f       	add	r22, r22
    6a98:	77 1f       	adc	r23, r23
    6a9a:	88 1f       	adc	r24, r24
    6a9c:	da f7       	brpl	.-10     	; 0x6a94 <__floatsisf+0x62>
    6a9e:	88 0f       	add	r24, r24
    6aa0:	96 95       	lsr	r25
    6aa2:	87 95       	ror	r24
    6aa4:	97 f9       	bld	r25, 7
    6aa6:	08 95       	ret

00006aa8 <__fp_cmp>:
    6aa8:	99 0f       	add	r25, r25
    6aaa:	00 08       	sbc	r0, r0
    6aac:	55 0f       	add	r21, r21
    6aae:	aa 0b       	sbc	r26, r26
    6ab0:	e0 e8       	ldi	r30, 0x80	; 128
    6ab2:	fe ef       	ldi	r31, 0xFE	; 254
    6ab4:	16 16       	cp	r1, r22
    6ab6:	17 06       	cpc	r1, r23
    6ab8:	e8 07       	cpc	r30, r24
    6aba:	f9 07       	cpc	r31, r25
    6abc:	c0 f0       	brcs	.+48     	; 0x6aee <__fp_cmp+0x46>
    6abe:	12 16       	cp	r1, r18
    6ac0:	13 06       	cpc	r1, r19
    6ac2:	e4 07       	cpc	r30, r20
    6ac4:	f5 07       	cpc	r31, r21
    6ac6:	98 f0       	brcs	.+38     	; 0x6aee <__fp_cmp+0x46>
    6ac8:	62 1b       	sub	r22, r18
    6aca:	73 0b       	sbc	r23, r19
    6acc:	84 0b       	sbc	r24, r20
    6ace:	95 0b       	sbc	r25, r21
    6ad0:	39 f4       	brne	.+14     	; 0x6ae0 <__fp_cmp+0x38>
    6ad2:	0a 26       	eor	r0, r26
    6ad4:	61 f0       	breq	.+24     	; 0x6aee <__fp_cmp+0x46>
    6ad6:	23 2b       	or	r18, r19
    6ad8:	24 2b       	or	r18, r20
    6ada:	25 2b       	or	r18, r21
    6adc:	21 f4       	brne	.+8      	; 0x6ae6 <__fp_cmp+0x3e>
    6ade:	08 95       	ret
    6ae0:	0a 26       	eor	r0, r26
    6ae2:	09 f4       	brne	.+2      	; 0x6ae6 <__fp_cmp+0x3e>
    6ae4:	a1 40       	sbci	r26, 0x01	; 1
    6ae6:	a6 95       	lsr	r26
    6ae8:	8f ef       	ldi	r24, 0xFF	; 255
    6aea:	81 1d       	adc	r24, r1
    6aec:	81 1d       	adc	r24, r1
    6aee:	08 95       	ret

00006af0 <__fp_inf>:
    6af0:	97 f9       	bld	r25, 7
    6af2:	9f 67       	ori	r25, 0x7F	; 127
    6af4:	80 e8       	ldi	r24, 0x80	; 128
    6af6:	70 e0       	ldi	r23, 0x00	; 0
    6af8:	60 e0       	ldi	r22, 0x00	; 0
    6afa:	08 95       	ret

00006afc <__fp_nan>:
    6afc:	9f ef       	ldi	r25, 0xFF	; 255
    6afe:	80 ec       	ldi	r24, 0xC0	; 192
    6b00:	08 95       	ret

00006b02 <__fp_powser>:
    6b02:	df 93       	push	r29
    6b04:	cf 93       	push	r28
    6b06:	1f 93       	push	r17
    6b08:	0f 93       	push	r16
    6b0a:	ff 92       	push	r15
    6b0c:	ef 92       	push	r14
    6b0e:	df 92       	push	r13
    6b10:	7b 01       	movw	r14, r22
    6b12:	8c 01       	movw	r16, r24
    6b14:	68 94       	set
    6b16:	06 c0       	rjmp	.+12     	; 0x6b24 <__fp_powser+0x22>
    6b18:	da 2e       	mov	r13, r26
    6b1a:	ef 01       	movw	r28, r30
    6b1c:	0e 94 ce 36 	call	0x6d9c	; 0x6d9c <__mulsf3x>
    6b20:	fe 01       	movw	r30, r28
    6b22:	e8 94       	clt
    6b24:	a5 91       	lpm	r26, Z+
    6b26:	25 91       	lpm	r18, Z+
    6b28:	35 91       	lpm	r19, Z+
    6b2a:	45 91       	lpm	r20, Z+
    6b2c:	55 91       	lpm	r21, Z+
    6b2e:	a6 f3       	brts	.-24     	; 0x6b18 <__fp_powser+0x16>
    6b30:	ef 01       	movw	r28, r30
    6b32:	0e 94 11 34 	call	0x6822	; 0x6822 <__addsf3x>
    6b36:	fe 01       	movw	r30, r28
    6b38:	97 01       	movw	r18, r14
    6b3a:	a8 01       	movw	r20, r16
    6b3c:	da 94       	dec	r13
    6b3e:	69 f7       	brne	.-38     	; 0x6b1a <__fp_powser+0x18>
    6b40:	df 90       	pop	r13
    6b42:	ef 90       	pop	r14
    6b44:	ff 90       	pop	r15
    6b46:	0f 91       	pop	r16
    6b48:	1f 91       	pop	r17
    6b4a:	cf 91       	pop	r28
    6b4c:	df 91       	pop	r29
    6b4e:	08 95       	ret

00006b50 <__fp_pscA>:
    6b50:	00 24       	eor	r0, r0
    6b52:	0a 94       	dec	r0
    6b54:	16 16       	cp	r1, r22
    6b56:	17 06       	cpc	r1, r23
    6b58:	18 06       	cpc	r1, r24
    6b5a:	09 06       	cpc	r0, r25
    6b5c:	08 95       	ret

00006b5e <__fp_pscB>:
    6b5e:	00 24       	eor	r0, r0
    6b60:	0a 94       	dec	r0
    6b62:	12 16       	cp	r1, r18
    6b64:	13 06       	cpc	r1, r19
    6b66:	14 06       	cpc	r1, r20
    6b68:	05 06       	cpc	r0, r21
    6b6a:	08 95       	ret

00006b6c <__fp_round>:
    6b6c:	09 2e       	mov	r0, r25
    6b6e:	03 94       	inc	r0
    6b70:	00 0c       	add	r0, r0
    6b72:	11 f4       	brne	.+4      	; 0x6b78 <__fp_round+0xc>
    6b74:	88 23       	and	r24, r24
    6b76:	52 f0       	brmi	.+20     	; 0x6b8c <__fp_round+0x20>
    6b78:	bb 0f       	add	r27, r27
    6b7a:	40 f4       	brcc	.+16     	; 0x6b8c <__fp_round+0x20>
    6b7c:	bf 2b       	or	r27, r31
    6b7e:	11 f4       	brne	.+4      	; 0x6b84 <__fp_round+0x18>
    6b80:	60 ff       	sbrs	r22, 0
    6b82:	04 c0       	rjmp	.+8      	; 0x6b8c <__fp_round+0x20>
    6b84:	6f 5f       	subi	r22, 0xFF	; 255
    6b86:	7f 4f       	sbci	r23, 0xFF	; 255
    6b88:	8f 4f       	sbci	r24, 0xFF	; 255
    6b8a:	9f 4f       	sbci	r25, 0xFF	; 255
    6b8c:	08 95       	ret

00006b8e <__fp_split3>:
    6b8e:	57 fd       	sbrc	r21, 7
    6b90:	90 58       	subi	r25, 0x80	; 128
    6b92:	44 0f       	add	r20, r20
    6b94:	55 1f       	adc	r21, r21
    6b96:	59 f0       	breq	.+22     	; 0x6bae <__fp_splitA+0x10>
    6b98:	5f 3f       	cpi	r21, 0xFF	; 255
    6b9a:	71 f0       	breq	.+28     	; 0x6bb8 <__fp_splitA+0x1a>
    6b9c:	47 95       	ror	r20

00006b9e <__fp_splitA>:
    6b9e:	88 0f       	add	r24, r24
    6ba0:	97 fb       	bst	r25, 7
    6ba2:	99 1f       	adc	r25, r25
    6ba4:	61 f0       	breq	.+24     	; 0x6bbe <__fp_splitA+0x20>
    6ba6:	9f 3f       	cpi	r25, 0xFF	; 255
    6ba8:	79 f0       	breq	.+30     	; 0x6bc8 <__fp_splitA+0x2a>
    6baa:	87 95       	ror	r24
    6bac:	08 95       	ret
    6bae:	12 16       	cp	r1, r18
    6bb0:	13 06       	cpc	r1, r19
    6bb2:	14 06       	cpc	r1, r20
    6bb4:	55 1f       	adc	r21, r21
    6bb6:	f2 cf       	rjmp	.-28     	; 0x6b9c <__fp_split3+0xe>
    6bb8:	46 95       	lsr	r20
    6bba:	f1 df       	rcall	.-30     	; 0x6b9e <__fp_splitA>
    6bbc:	08 c0       	rjmp	.+16     	; 0x6bce <__fp_splitA+0x30>
    6bbe:	16 16       	cp	r1, r22
    6bc0:	17 06       	cpc	r1, r23
    6bc2:	18 06       	cpc	r1, r24
    6bc4:	99 1f       	adc	r25, r25
    6bc6:	f1 cf       	rjmp	.-30     	; 0x6baa <__fp_splitA+0xc>
    6bc8:	86 95       	lsr	r24
    6bca:	71 05       	cpc	r23, r1
    6bcc:	61 05       	cpc	r22, r1
    6bce:	08 94       	sec
    6bd0:	08 95       	ret

00006bd2 <__fp_zero>:
    6bd2:	e8 94       	clt

00006bd4 <__fp_szero>:
    6bd4:	bb 27       	eor	r27, r27
    6bd6:	66 27       	eor	r22, r22
    6bd8:	77 27       	eor	r23, r23
    6bda:	cb 01       	movw	r24, r22
    6bdc:	97 f9       	bld	r25, 7
    6bde:	08 95       	ret

00006be0 <__gesf2>:
    6be0:	0e 94 54 35 	call	0x6aa8	; 0x6aa8 <__fp_cmp>
    6be4:	08 f4       	brcc	.+2      	; 0x6be8 <__gesf2+0x8>
    6be6:	8f ef       	ldi	r24, 0xFF	; 255
    6be8:	08 95       	ret

00006bea <inverse>:
    6bea:	9b 01       	movw	r18, r22
    6bec:	ac 01       	movw	r20, r24
    6bee:	60 e0       	ldi	r22, 0x00	; 0
    6bf0:	70 e0       	ldi	r23, 0x00	; 0
    6bf2:	80 e8       	ldi	r24, 0x80	; 128
    6bf4:	9f e3       	ldi	r25, 0x3F	; 63
    6bf6:	0c 94 6b 34 	jmp	0x68d6	; 0x68d6 <__divsf3>
    6bfa:	0c 94 78 35 	jmp	0x6af0	; 0x6af0 <__fp_inf>
    6bfe:	0c 94 28 37 	jmp	0x6e50	; 0x6e50 <__fp_mpack>

00006c02 <ldexp>:
    6c02:	0e 94 cf 35 	call	0x6b9e	; 0x6b9e <__fp_splitA>
    6c06:	d8 f3       	brcs	.-10     	; 0x6bfe <inverse+0x14>
    6c08:	99 23       	and	r25, r25
    6c0a:	c9 f3       	breq	.-14     	; 0x6bfe <inverse+0x14>
    6c0c:	94 0f       	add	r25, r20
    6c0e:	51 1d       	adc	r21, r1
    6c10:	a3 f3       	brvs	.-24     	; 0x6bfa <inverse+0x10>
    6c12:	91 50       	subi	r25, 0x01	; 1
    6c14:	50 40       	sbci	r21, 0x00	; 0
    6c16:	94 f0       	brlt	.+36     	; 0x6c3c <ldexp+0x3a>
    6c18:	59 f0       	breq	.+22     	; 0x6c30 <ldexp+0x2e>
    6c1a:	88 23       	and	r24, r24
    6c1c:	32 f0       	brmi	.+12     	; 0x6c2a <ldexp+0x28>
    6c1e:	66 0f       	add	r22, r22
    6c20:	77 1f       	adc	r23, r23
    6c22:	88 1f       	adc	r24, r24
    6c24:	91 50       	subi	r25, 0x01	; 1
    6c26:	50 40       	sbci	r21, 0x00	; 0
    6c28:	c1 f7       	brne	.-16     	; 0x6c1a <ldexp+0x18>
    6c2a:	9e 3f       	cpi	r25, 0xFE	; 254
    6c2c:	51 05       	cpc	r21, r1
    6c2e:	2c f7       	brge	.-54     	; 0x6bfa <inverse+0x10>
    6c30:	88 0f       	add	r24, r24
    6c32:	91 1d       	adc	r25, r1
    6c34:	96 95       	lsr	r25
    6c36:	87 95       	ror	r24
    6c38:	97 f9       	bld	r25, 7
    6c3a:	08 95       	ret
    6c3c:	5f 3f       	cpi	r21, 0xFF	; 255
    6c3e:	ac f0       	brlt	.+42     	; 0x6c6a <ldexp+0x68>
    6c40:	98 3e       	cpi	r25, 0xE8	; 232
    6c42:	9c f0       	brlt	.+38     	; 0x6c6a <ldexp+0x68>
    6c44:	bb 27       	eor	r27, r27
    6c46:	86 95       	lsr	r24
    6c48:	77 95       	ror	r23
    6c4a:	67 95       	ror	r22
    6c4c:	b7 95       	ror	r27
    6c4e:	08 f4       	brcc	.+2      	; 0x6c52 <ldexp+0x50>
    6c50:	b1 60       	ori	r27, 0x01	; 1
    6c52:	93 95       	inc	r25
    6c54:	c1 f7       	brne	.-16     	; 0x6c46 <ldexp+0x44>
    6c56:	bb 0f       	add	r27, r27
    6c58:	58 f7       	brcc	.-42     	; 0x6c30 <ldexp+0x2e>
    6c5a:	11 f4       	brne	.+4      	; 0x6c60 <ldexp+0x5e>
    6c5c:	60 ff       	sbrs	r22, 0
    6c5e:	e8 cf       	rjmp	.-48     	; 0x6c30 <ldexp+0x2e>
    6c60:	6f 5f       	subi	r22, 0xFF	; 255
    6c62:	7f 4f       	sbci	r23, 0xFF	; 255
    6c64:	8f 4f       	sbci	r24, 0xFF	; 255
    6c66:	9f 4f       	sbci	r25, 0xFF	; 255
    6c68:	e3 cf       	rjmp	.-58     	; 0x6c30 <ldexp+0x2e>
    6c6a:	0c 94 ea 35 	jmp	0x6bd4	; 0x6bd4 <__fp_szero>
    6c6e:	16 f0       	brts	.+4      	; 0x6c74 <ldexp+0x72>
    6c70:	0c 94 28 37 	jmp	0x6e50	; 0x6e50 <__fp_mpack>
    6c74:	0c 94 7e 35 	jmp	0x6afc	; 0x6afc <__fp_nan>
    6c78:	68 94       	set
    6c7a:	0c 94 78 35 	jmp	0x6af0	; 0x6af0 <__fp_inf>

00006c7e <log>:
    6c7e:	0e 94 cf 35 	call	0x6b9e	; 0x6b9e <__fp_splitA>
    6c82:	a8 f3       	brcs	.-22     	; 0x6c6e <ldexp+0x6c>
    6c84:	99 23       	and	r25, r25
    6c86:	c1 f3       	breq	.-16     	; 0x6c78 <ldexp+0x76>
    6c88:	ae f3       	brts	.-22     	; 0x6c74 <ldexp+0x72>
    6c8a:	df 93       	push	r29
    6c8c:	cf 93       	push	r28
    6c8e:	1f 93       	push	r17
    6c90:	0f 93       	push	r16
    6c92:	ff 92       	push	r15
    6c94:	c9 2f       	mov	r28, r25
    6c96:	dd 27       	eor	r29, r29
    6c98:	88 23       	and	r24, r24
    6c9a:	2a f0       	brmi	.+10     	; 0x6ca6 <log+0x28>
    6c9c:	21 97       	sbiw	r28, 0x01	; 1
    6c9e:	66 0f       	add	r22, r22
    6ca0:	77 1f       	adc	r23, r23
    6ca2:	88 1f       	adc	r24, r24
    6ca4:	da f7       	brpl	.-10     	; 0x6c9c <log+0x1e>
    6ca6:	20 e0       	ldi	r18, 0x00	; 0
    6ca8:	30 e0       	ldi	r19, 0x00	; 0
    6caa:	40 e8       	ldi	r20, 0x80	; 128
    6cac:	5f eb       	ldi	r21, 0xBF	; 191
    6cae:	9f e3       	ldi	r25, 0x3F	; 63
    6cb0:	88 39       	cpi	r24, 0x98	; 152
    6cb2:	20 f0       	brcs	.+8      	; 0x6cbc <log+0x3e>
    6cb4:	80 3e       	cpi	r24, 0xE0	; 224
    6cb6:	38 f0       	brcs	.+14     	; 0x6cc6 <log+0x48>
    6cb8:	21 96       	adiw	r28, 0x01	; 1
    6cba:	8f 77       	andi	r24, 0x7F	; 127
    6cbc:	0e 94 fa 33 	call	0x67f4	; 0x67f4 <__addsf3>
    6cc0:	ec e4       	ldi	r30, 0x4C	; 76
    6cc2:	f1 e0       	ldi	r31, 0x01	; 1
    6cc4:	04 c0       	rjmp	.+8      	; 0x6cce <log+0x50>
    6cc6:	0e 94 fa 33 	call	0x67f4	; 0x67f4 <__addsf3>
    6cca:	e9 e7       	ldi	r30, 0x79	; 121
    6ccc:	f1 e0       	ldi	r31, 0x01	; 1
    6cce:	0e 94 81 35 	call	0x6b02	; 0x6b02 <__fp_powser>
    6cd2:	8b 01       	movw	r16, r22
    6cd4:	be 01       	movw	r22, r28
    6cd6:	ec 01       	movw	r28, r24
    6cd8:	fb 2e       	mov	r15, r27
    6cda:	6f 57       	subi	r22, 0x7F	; 127
    6cdc:	71 09       	sbc	r23, r1
    6cde:	75 95       	asr	r23
    6ce0:	77 1f       	adc	r23, r23
    6ce2:	88 0b       	sbc	r24, r24
    6ce4:	99 0b       	sbc	r25, r25
    6ce6:	0e 94 19 35 	call	0x6a32	; 0x6a32 <__floatsisf>
    6cea:	28 e1       	ldi	r18, 0x18	; 24
    6cec:	32 e7       	ldi	r19, 0x72	; 114
    6cee:	41 e3       	ldi	r20, 0x31	; 49
    6cf0:	5f e3       	ldi	r21, 0x3F	; 63
    6cf2:	0e 94 ce 36 	call	0x6d9c	; 0x6d9c <__mulsf3x>
    6cf6:	af 2d       	mov	r26, r15
    6cf8:	98 01       	movw	r18, r16
    6cfa:	ae 01       	movw	r20, r28
    6cfc:	ff 90       	pop	r15
    6cfe:	0f 91       	pop	r16
    6d00:	1f 91       	pop	r17
    6d02:	cf 91       	pop	r28
    6d04:	df 91       	pop	r29
    6d06:	0e 94 11 34 	call	0x6822	; 0x6822 <__addsf3x>
    6d0a:	0c 94 b6 35 	jmp	0x6b6c	; 0x6b6c <__fp_round>

00006d0e <modf>:
    6d0e:	fa 01       	movw	r30, r20
    6d10:	dc 01       	movw	r26, r24
    6d12:	aa 0f       	add	r26, r26
    6d14:	bb 1f       	adc	r27, r27
    6d16:	9b 01       	movw	r18, r22
    6d18:	ac 01       	movw	r20, r24
    6d1a:	bf 57       	subi	r27, 0x7F	; 127
    6d1c:	28 f4       	brcc	.+10     	; 0x6d28 <modf+0x1a>
    6d1e:	22 27       	eor	r18, r18
    6d20:	33 27       	eor	r19, r19
    6d22:	44 27       	eor	r20, r20
    6d24:	50 78       	andi	r21, 0x80	; 128
    6d26:	20 c0       	rjmp	.+64     	; 0x6d68 <modf+0x5a>
    6d28:	b7 51       	subi	r27, 0x17	; 23
    6d2a:	90 f4       	brcc	.+36     	; 0x6d50 <modf+0x42>
    6d2c:	ab 2f       	mov	r26, r27
    6d2e:	00 24       	eor	r0, r0
    6d30:	46 95       	lsr	r20
    6d32:	37 95       	ror	r19
    6d34:	27 95       	ror	r18
    6d36:	01 1c       	adc	r0, r1
    6d38:	a3 95       	inc	r26
    6d3a:	d2 f3       	brmi	.-12     	; 0x6d30 <modf+0x22>
    6d3c:	00 20       	and	r0, r0
    6d3e:	71 f0       	breq	.+28     	; 0x6d5c <modf+0x4e>
    6d40:	22 0f       	add	r18, r18
    6d42:	33 1f       	adc	r19, r19
    6d44:	44 1f       	adc	r20, r20
    6d46:	b3 95       	inc	r27
    6d48:	da f3       	brmi	.-10     	; 0x6d40 <modf+0x32>
    6d4a:	0e d0       	rcall	.+28     	; 0x6d68 <modf+0x5a>
    6d4c:	0c 94 f9 33 	jmp	0x67f2	; 0x67f2 <__subsf3>
    6d50:	61 30       	cpi	r22, 0x01	; 1
    6d52:	71 05       	cpc	r23, r1
    6d54:	a0 e8       	ldi	r26, 0x80	; 128
    6d56:	8a 07       	cpc	r24, r26
    6d58:	b9 46       	sbci	r27, 0x69	; 105
    6d5a:	30 f4       	brcc	.+12     	; 0x6d68 <modf+0x5a>
    6d5c:	9b 01       	movw	r18, r22
    6d5e:	ac 01       	movw	r20, r24
    6d60:	66 27       	eor	r22, r22
    6d62:	77 27       	eor	r23, r23
    6d64:	88 27       	eor	r24, r24
    6d66:	90 78       	andi	r25, 0x80	; 128
    6d68:	30 96       	adiw	r30, 0x00	; 0
    6d6a:	21 f0       	breq	.+8      	; 0x6d74 <modf+0x66>
    6d6c:	20 83       	st	Z, r18
    6d6e:	31 83       	std	Z+1, r19	; 0x01
    6d70:	42 83       	std	Z+2, r20	; 0x02
    6d72:	53 83       	std	Z+3, r21	; 0x03
    6d74:	08 95       	ret

00006d76 <__mulsf3>:
    6d76:	0e 94 ce 36 	call	0x6d9c	; 0x6d9c <__mulsf3x>
    6d7a:	0c 94 b6 35 	jmp	0x6b6c	; 0x6b6c <__fp_round>
    6d7e:	0e 94 a8 35 	call	0x6b50	; 0x6b50 <__fp_pscA>
    6d82:	38 f0       	brcs	.+14     	; 0x6d92 <__mulsf3+0x1c>
    6d84:	0e 94 af 35 	call	0x6b5e	; 0x6b5e <__fp_pscB>
    6d88:	20 f0       	brcs	.+8      	; 0x6d92 <__mulsf3+0x1c>
    6d8a:	95 23       	and	r25, r21
    6d8c:	11 f0       	breq	.+4      	; 0x6d92 <__mulsf3+0x1c>
    6d8e:	0c 94 78 35 	jmp	0x6af0	; 0x6af0 <__fp_inf>
    6d92:	0c 94 7e 35 	jmp	0x6afc	; 0x6afc <__fp_nan>
    6d96:	11 24       	eor	r1, r1
    6d98:	0c 94 ea 35 	jmp	0x6bd4	; 0x6bd4 <__fp_szero>

00006d9c <__mulsf3x>:
    6d9c:	0e 94 c7 35 	call	0x6b8e	; 0x6b8e <__fp_split3>
    6da0:	70 f3       	brcs	.-36     	; 0x6d7e <__mulsf3+0x8>

00006da2 <__mulsf3_pse>:
    6da2:	95 9f       	mul	r25, r21
    6da4:	c1 f3       	breq	.-16     	; 0x6d96 <__mulsf3+0x20>
    6da6:	95 0f       	add	r25, r21
    6da8:	50 e0       	ldi	r21, 0x00	; 0
    6daa:	55 1f       	adc	r21, r21
    6dac:	62 9f       	mul	r22, r18
    6dae:	f0 01       	movw	r30, r0
    6db0:	72 9f       	mul	r23, r18
    6db2:	bb 27       	eor	r27, r27
    6db4:	f0 0d       	add	r31, r0
    6db6:	b1 1d       	adc	r27, r1
    6db8:	63 9f       	mul	r22, r19
    6dba:	aa 27       	eor	r26, r26
    6dbc:	f0 0d       	add	r31, r0
    6dbe:	b1 1d       	adc	r27, r1
    6dc0:	aa 1f       	adc	r26, r26
    6dc2:	64 9f       	mul	r22, r20
    6dc4:	66 27       	eor	r22, r22
    6dc6:	b0 0d       	add	r27, r0
    6dc8:	a1 1d       	adc	r26, r1
    6dca:	66 1f       	adc	r22, r22
    6dcc:	82 9f       	mul	r24, r18
    6dce:	22 27       	eor	r18, r18
    6dd0:	b0 0d       	add	r27, r0
    6dd2:	a1 1d       	adc	r26, r1
    6dd4:	62 1f       	adc	r22, r18
    6dd6:	73 9f       	mul	r23, r19
    6dd8:	b0 0d       	add	r27, r0
    6dda:	a1 1d       	adc	r26, r1
    6ddc:	62 1f       	adc	r22, r18
    6dde:	83 9f       	mul	r24, r19
    6de0:	a0 0d       	add	r26, r0
    6de2:	61 1d       	adc	r22, r1
    6de4:	22 1f       	adc	r18, r18
    6de6:	74 9f       	mul	r23, r20
    6de8:	33 27       	eor	r19, r19
    6dea:	a0 0d       	add	r26, r0
    6dec:	61 1d       	adc	r22, r1
    6dee:	23 1f       	adc	r18, r19
    6df0:	84 9f       	mul	r24, r20
    6df2:	60 0d       	add	r22, r0
    6df4:	21 1d       	adc	r18, r1
    6df6:	82 2f       	mov	r24, r18
    6df8:	76 2f       	mov	r23, r22
    6dfa:	6a 2f       	mov	r22, r26
    6dfc:	11 24       	eor	r1, r1
    6dfe:	9f 57       	subi	r25, 0x7F	; 127
    6e00:	50 40       	sbci	r21, 0x00	; 0
    6e02:	9a f0       	brmi	.+38     	; 0x6e2a <__mulsf3_pse+0x88>
    6e04:	f1 f0       	breq	.+60     	; 0x6e42 <__mulsf3_pse+0xa0>
    6e06:	88 23       	and	r24, r24
    6e08:	4a f0       	brmi	.+18     	; 0x6e1c <__mulsf3_pse+0x7a>
    6e0a:	ee 0f       	add	r30, r30
    6e0c:	ff 1f       	adc	r31, r31
    6e0e:	bb 1f       	adc	r27, r27
    6e10:	66 1f       	adc	r22, r22
    6e12:	77 1f       	adc	r23, r23
    6e14:	88 1f       	adc	r24, r24
    6e16:	91 50       	subi	r25, 0x01	; 1
    6e18:	50 40       	sbci	r21, 0x00	; 0
    6e1a:	a9 f7       	brne	.-22     	; 0x6e06 <__mulsf3_pse+0x64>
    6e1c:	9e 3f       	cpi	r25, 0xFE	; 254
    6e1e:	51 05       	cpc	r21, r1
    6e20:	80 f0       	brcs	.+32     	; 0x6e42 <__mulsf3_pse+0xa0>
    6e22:	0c 94 78 35 	jmp	0x6af0	; 0x6af0 <__fp_inf>
    6e26:	0c 94 ea 35 	jmp	0x6bd4	; 0x6bd4 <__fp_szero>
    6e2a:	5f 3f       	cpi	r21, 0xFF	; 255
    6e2c:	e4 f3       	brlt	.-8      	; 0x6e26 <__mulsf3_pse+0x84>
    6e2e:	98 3e       	cpi	r25, 0xE8	; 232
    6e30:	d4 f3       	brlt	.-12     	; 0x6e26 <__mulsf3_pse+0x84>
    6e32:	86 95       	lsr	r24
    6e34:	77 95       	ror	r23
    6e36:	67 95       	ror	r22
    6e38:	b7 95       	ror	r27
    6e3a:	f7 95       	ror	r31
    6e3c:	e7 95       	ror	r30
    6e3e:	9f 5f       	subi	r25, 0xFF	; 255
    6e40:	c1 f7       	brne	.-16     	; 0x6e32 <__mulsf3_pse+0x90>
    6e42:	fe 2b       	or	r31, r30
    6e44:	88 0f       	add	r24, r24
    6e46:	91 1d       	adc	r25, r1
    6e48:	96 95       	lsr	r25
    6e4a:	87 95       	ror	r24
    6e4c:	97 f9       	bld	r25, 7
    6e4e:	08 95       	ret

00006e50 <__fp_mpack>:
    6e50:	9f 3f       	cpi	r25, 0xFF	; 255
    6e52:	31 f0       	breq	.+12     	; 0x6e60 <__fp_mpack_finite+0xc>

00006e54 <__fp_mpack_finite>:
    6e54:	91 50       	subi	r25, 0x01	; 1
    6e56:	20 f4       	brcc	.+8      	; 0x6e60 <__fp_mpack_finite+0xc>
    6e58:	87 95       	ror	r24
    6e5a:	77 95       	ror	r23
    6e5c:	67 95       	ror	r22
    6e5e:	b7 95       	ror	r27
    6e60:	88 0f       	add	r24, r24
    6e62:	91 1d       	adc	r25, r1
    6e64:	96 95       	lsr	r25
    6e66:	87 95       	ror	r24
    6e68:	97 f9       	bld	r25, 7
    6e6a:	08 95       	ret

00006e6c <__udivmodsi4>:
    6e6c:	a1 e2       	ldi	r26, 0x21	; 33
    6e6e:	1a 2e       	mov	r1, r26
    6e70:	aa 1b       	sub	r26, r26
    6e72:	bb 1b       	sub	r27, r27
    6e74:	fd 01       	movw	r30, r26
    6e76:	0d c0       	rjmp	.+26     	; 0x6e92 <__udivmodsi4_ep>

00006e78 <__udivmodsi4_loop>:
    6e78:	aa 1f       	adc	r26, r26
    6e7a:	bb 1f       	adc	r27, r27
    6e7c:	ee 1f       	adc	r30, r30
    6e7e:	ff 1f       	adc	r31, r31
    6e80:	a2 17       	cp	r26, r18
    6e82:	b3 07       	cpc	r27, r19
    6e84:	e4 07       	cpc	r30, r20
    6e86:	f5 07       	cpc	r31, r21
    6e88:	20 f0       	brcs	.+8      	; 0x6e92 <__udivmodsi4_ep>
    6e8a:	a2 1b       	sub	r26, r18
    6e8c:	b3 0b       	sbc	r27, r19
    6e8e:	e4 0b       	sbc	r30, r20
    6e90:	f5 0b       	sbc	r31, r21

00006e92 <__udivmodsi4_ep>:
    6e92:	66 1f       	adc	r22, r22
    6e94:	77 1f       	adc	r23, r23
    6e96:	88 1f       	adc	r24, r24
    6e98:	99 1f       	adc	r25, r25
    6e9a:	1a 94       	dec	r1
    6e9c:	69 f7       	brne	.-38     	; 0x6e78 <__udivmodsi4_loop>
    6e9e:	60 95       	com	r22
    6ea0:	70 95       	com	r23
    6ea2:	80 95       	com	r24
    6ea4:	90 95       	com	r25
    6ea6:	9b 01       	movw	r18, r22
    6ea8:	ac 01       	movw	r20, r24
    6eaa:	bd 01       	movw	r22, r26
    6eac:	cf 01       	movw	r24, r30
    6eae:	08 95       	ret

00006eb0 <__tablejump2__>:
    6eb0:	ee 0f       	add	r30, r30
    6eb2:	ff 1f       	adc	r31, r31
    6eb4:	05 90       	lpm	r0, Z+
    6eb6:	f4 91       	lpm	r31, Z
    6eb8:	e0 2d       	mov	r30, r0
    6eba:	09 94       	ijmp

00006ebc <__umulhisi3>:
    6ebc:	a2 9f       	mul	r26, r18
    6ebe:	b0 01       	movw	r22, r0
    6ec0:	b3 9f       	mul	r27, r19
    6ec2:	c0 01       	movw	r24, r0
    6ec4:	a3 9f       	mul	r26, r19
    6ec6:	70 0d       	add	r23, r0
    6ec8:	81 1d       	adc	r24, r1
    6eca:	11 24       	eor	r1, r1
    6ecc:	91 1d       	adc	r25, r1
    6ece:	b2 9f       	mul	r27, r18
    6ed0:	70 0d       	add	r23, r0
    6ed2:	81 1d       	adc	r24, r1
    6ed4:	11 24       	eor	r1, r1
    6ed6:	91 1d       	adc	r25, r1
    6ed8:	08 95       	ret

00006eda <__muluhisi3>:
    6eda:	0e 94 5e 37 	call	0x6ebc	; 0x6ebc <__umulhisi3>
    6ede:	a5 9f       	mul	r26, r21
    6ee0:	90 0d       	add	r25, r0
    6ee2:	b4 9f       	mul	r27, r20
    6ee4:	90 0d       	add	r25, r0
    6ee6:	a4 9f       	mul	r26, r20
    6ee8:	80 0d       	add	r24, r0
    6eea:	91 1d       	adc	r25, r1
    6eec:	11 24       	eor	r1, r1
    6eee:	08 95       	ret

00006ef0 <dtostrf>:
    6ef0:	ef 92       	push	r14
    6ef2:	0f 93       	push	r16
    6ef4:	1f 93       	push	r17
    6ef6:	cf 93       	push	r28
    6ef8:	df 93       	push	r29
    6efa:	e8 01       	movw	r28, r16
    6efc:	47 fd       	sbrc	r20, 7
    6efe:	02 c0       	rjmp	.+4      	; 0x6f04 <dtostrf+0x14>
    6f00:	34 e0       	ldi	r19, 0x04	; 4
    6f02:	01 c0       	rjmp	.+2      	; 0x6f06 <dtostrf+0x16>
    6f04:	34 e1       	ldi	r19, 0x14	; 20
    6f06:	04 2e       	mov	r0, r20
    6f08:	00 0c       	add	r0, r0
    6f0a:	55 0b       	sbc	r21, r21
    6f0c:	57 ff       	sbrs	r21, 7
    6f0e:	03 c0       	rjmp	.+6      	; 0x6f16 <dtostrf+0x26>
    6f10:	51 95       	neg	r21
    6f12:	41 95       	neg	r20
    6f14:	51 09       	sbc	r21, r1
    6f16:	e3 2e       	mov	r14, r19
    6f18:	02 2f       	mov	r16, r18
    6f1a:	24 2f       	mov	r18, r20
    6f1c:	ae 01       	movw	r20, r28
    6f1e:	0e 94 6b 3b 	call	0x76d6	; 0x76d6 <dtoa_prf>
    6f22:	ce 01       	movw	r24, r28
    6f24:	df 91       	pop	r29
    6f26:	cf 91       	pop	r28
    6f28:	1f 91       	pop	r17
    6f2a:	0f 91       	pop	r16
    6f2c:	ef 90       	pop	r14
    6f2e:	08 95       	ret

00006f30 <malloc>:
    6f30:	0f 93       	push	r16
    6f32:	1f 93       	push	r17
    6f34:	cf 93       	push	r28
    6f36:	df 93       	push	r29
    6f38:	82 30       	cpi	r24, 0x02	; 2
    6f3a:	91 05       	cpc	r25, r1
    6f3c:	10 f4       	brcc	.+4      	; 0x6f42 <malloc+0x12>
    6f3e:	82 e0       	ldi	r24, 0x02	; 2
    6f40:	90 e0       	ldi	r25, 0x00	; 0
    6f42:	e0 91 ab 63 	lds	r30, 0x63AB	; 0x8063ab <__flp>
    6f46:	f0 91 ac 63 	lds	r31, 0x63AC	; 0x8063ac <__flp+0x1>
    6f4a:	20 e0       	ldi	r18, 0x00	; 0
    6f4c:	30 e0       	ldi	r19, 0x00	; 0
    6f4e:	a0 e0       	ldi	r26, 0x00	; 0
    6f50:	b0 e0       	ldi	r27, 0x00	; 0
    6f52:	30 97       	sbiw	r30, 0x00	; 0
    6f54:	19 f1       	breq	.+70     	; 0x6f9c <malloc+0x6c>
    6f56:	40 81       	ld	r20, Z
    6f58:	51 81       	ldd	r21, Z+1	; 0x01
    6f5a:	02 81       	ldd	r16, Z+2	; 0x02
    6f5c:	13 81       	ldd	r17, Z+3	; 0x03
    6f5e:	48 17       	cp	r20, r24
    6f60:	59 07       	cpc	r21, r25
    6f62:	c8 f0       	brcs	.+50     	; 0x6f96 <malloc+0x66>
    6f64:	84 17       	cp	r24, r20
    6f66:	95 07       	cpc	r25, r21
    6f68:	69 f4       	brne	.+26     	; 0x6f84 <malloc+0x54>
    6f6a:	10 97       	sbiw	r26, 0x00	; 0
    6f6c:	31 f0       	breq	.+12     	; 0x6f7a <malloc+0x4a>
    6f6e:	12 96       	adiw	r26, 0x02	; 2
    6f70:	0c 93       	st	X, r16
    6f72:	12 97       	sbiw	r26, 0x02	; 2
    6f74:	13 96       	adiw	r26, 0x03	; 3
    6f76:	1c 93       	st	X, r17
    6f78:	27 c0       	rjmp	.+78     	; 0x6fc8 <malloc+0x98>
    6f7a:	00 93 ab 63 	sts	0x63AB, r16	; 0x8063ab <__flp>
    6f7e:	10 93 ac 63 	sts	0x63AC, r17	; 0x8063ac <__flp+0x1>
    6f82:	22 c0       	rjmp	.+68     	; 0x6fc8 <malloc+0x98>
    6f84:	21 15       	cp	r18, r1
    6f86:	31 05       	cpc	r19, r1
    6f88:	19 f0       	breq	.+6      	; 0x6f90 <malloc+0x60>
    6f8a:	42 17       	cp	r20, r18
    6f8c:	53 07       	cpc	r21, r19
    6f8e:	18 f4       	brcc	.+6      	; 0x6f96 <malloc+0x66>
    6f90:	9a 01       	movw	r18, r20
    6f92:	bd 01       	movw	r22, r26
    6f94:	ef 01       	movw	r28, r30
    6f96:	df 01       	movw	r26, r30
    6f98:	f8 01       	movw	r30, r16
    6f9a:	db cf       	rjmp	.-74     	; 0x6f52 <malloc+0x22>
    6f9c:	21 15       	cp	r18, r1
    6f9e:	31 05       	cpc	r19, r1
    6fa0:	f9 f0       	breq	.+62     	; 0x6fe0 <malloc+0xb0>
    6fa2:	28 1b       	sub	r18, r24
    6fa4:	39 0b       	sbc	r19, r25
    6fa6:	24 30       	cpi	r18, 0x04	; 4
    6fa8:	31 05       	cpc	r19, r1
    6faa:	80 f4       	brcc	.+32     	; 0x6fcc <malloc+0x9c>
    6fac:	8a 81       	ldd	r24, Y+2	; 0x02
    6fae:	9b 81       	ldd	r25, Y+3	; 0x03
    6fb0:	61 15       	cp	r22, r1
    6fb2:	71 05       	cpc	r23, r1
    6fb4:	21 f0       	breq	.+8      	; 0x6fbe <malloc+0x8e>
    6fb6:	fb 01       	movw	r30, r22
    6fb8:	82 83       	std	Z+2, r24	; 0x02
    6fba:	93 83       	std	Z+3, r25	; 0x03
    6fbc:	04 c0       	rjmp	.+8      	; 0x6fc6 <malloc+0x96>
    6fbe:	80 93 ab 63 	sts	0x63AB, r24	; 0x8063ab <__flp>
    6fc2:	90 93 ac 63 	sts	0x63AC, r25	; 0x8063ac <__flp+0x1>
    6fc6:	fe 01       	movw	r30, r28
    6fc8:	32 96       	adiw	r30, 0x02	; 2
    6fca:	44 c0       	rjmp	.+136    	; 0x7054 <malloc+0x124>
    6fcc:	fe 01       	movw	r30, r28
    6fce:	e2 0f       	add	r30, r18
    6fd0:	f3 1f       	adc	r31, r19
    6fd2:	81 93       	st	Z+, r24
    6fd4:	91 93       	st	Z+, r25
    6fd6:	22 50       	subi	r18, 0x02	; 2
    6fd8:	31 09       	sbc	r19, r1
    6fda:	28 83       	st	Y, r18
    6fdc:	39 83       	std	Y+1, r19	; 0x01
    6fde:	3a c0       	rjmp	.+116    	; 0x7054 <malloc+0x124>
    6fe0:	20 91 a9 63 	lds	r18, 0x63A9	; 0x8063a9 <__brkval>
    6fe4:	30 91 aa 63 	lds	r19, 0x63AA	; 0x8063aa <__brkval+0x1>
    6fe8:	23 2b       	or	r18, r19
    6fea:	41 f4       	brne	.+16     	; 0x6ffc <malloc+0xcc>
    6fec:	20 91 02 60 	lds	r18, 0x6002	; 0x806002 <__malloc_heap_start>
    6ff0:	30 91 03 60 	lds	r19, 0x6003	; 0x806003 <__malloc_heap_start+0x1>
    6ff4:	20 93 a9 63 	sts	0x63A9, r18	; 0x8063a9 <__brkval>
    6ff8:	30 93 aa 63 	sts	0x63AA, r19	; 0x8063aa <__brkval+0x1>
    6ffc:	20 91 00 60 	lds	r18, 0x6000	; 0x806000 <__DATA_REGION_ORIGIN__>
    7000:	30 91 01 60 	lds	r19, 0x6001	; 0x806001 <__DATA_REGION_ORIGIN__+0x1>
    7004:	21 15       	cp	r18, r1
    7006:	31 05       	cpc	r19, r1
    7008:	41 f4       	brne	.+16     	; 0x701a <malloc+0xea>
    700a:	2d b7       	in	r18, 0x3d	; 61
    700c:	3e b7       	in	r19, 0x3e	; 62
    700e:	40 91 04 60 	lds	r20, 0x6004	; 0x806004 <__malloc_margin>
    7012:	50 91 05 60 	lds	r21, 0x6005	; 0x806005 <__malloc_margin+0x1>
    7016:	24 1b       	sub	r18, r20
    7018:	35 0b       	sbc	r19, r21
    701a:	e0 91 a9 63 	lds	r30, 0x63A9	; 0x8063a9 <__brkval>
    701e:	f0 91 aa 63 	lds	r31, 0x63AA	; 0x8063aa <__brkval+0x1>
    7022:	e2 17       	cp	r30, r18
    7024:	f3 07       	cpc	r31, r19
    7026:	a0 f4       	brcc	.+40     	; 0x7050 <malloc+0x120>
    7028:	2e 1b       	sub	r18, r30
    702a:	3f 0b       	sbc	r19, r31
    702c:	28 17       	cp	r18, r24
    702e:	39 07       	cpc	r19, r25
    7030:	78 f0       	brcs	.+30     	; 0x7050 <malloc+0x120>
    7032:	ac 01       	movw	r20, r24
    7034:	4e 5f       	subi	r20, 0xFE	; 254
    7036:	5f 4f       	sbci	r21, 0xFF	; 255
    7038:	24 17       	cp	r18, r20
    703a:	35 07       	cpc	r19, r21
    703c:	48 f0       	brcs	.+18     	; 0x7050 <malloc+0x120>
    703e:	4e 0f       	add	r20, r30
    7040:	5f 1f       	adc	r21, r31
    7042:	40 93 a9 63 	sts	0x63A9, r20	; 0x8063a9 <__brkval>
    7046:	50 93 aa 63 	sts	0x63AA, r21	; 0x8063aa <__brkval+0x1>
    704a:	81 93       	st	Z+, r24
    704c:	91 93       	st	Z+, r25
    704e:	02 c0       	rjmp	.+4      	; 0x7054 <malloc+0x124>
    7050:	e0 e0       	ldi	r30, 0x00	; 0
    7052:	f0 e0       	ldi	r31, 0x00	; 0
    7054:	cf 01       	movw	r24, r30
    7056:	df 91       	pop	r29
    7058:	cf 91       	pop	r28
    705a:	1f 91       	pop	r17
    705c:	0f 91       	pop	r16
    705e:	08 95       	ret

00007060 <free>:
    7060:	cf 93       	push	r28
    7062:	df 93       	push	r29
    7064:	00 97       	sbiw	r24, 0x00	; 0
    7066:	09 f4       	brne	.+2      	; 0x706a <free+0xa>
    7068:	81 c0       	rjmp	.+258    	; 0x716c <free+0x10c>
    706a:	fc 01       	movw	r30, r24
    706c:	32 97       	sbiw	r30, 0x02	; 2
    706e:	12 82       	std	Z+2, r1	; 0x02
    7070:	13 82       	std	Z+3, r1	; 0x03
    7072:	a0 91 ab 63 	lds	r26, 0x63AB	; 0x8063ab <__flp>
    7076:	b0 91 ac 63 	lds	r27, 0x63AC	; 0x8063ac <__flp+0x1>
    707a:	10 97       	sbiw	r26, 0x00	; 0
    707c:	81 f4       	brne	.+32     	; 0x709e <free+0x3e>
    707e:	20 81       	ld	r18, Z
    7080:	31 81       	ldd	r19, Z+1	; 0x01
    7082:	82 0f       	add	r24, r18
    7084:	93 1f       	adc	r25, r19
    7086:	20 91 a9 63 	lds	r18, 0x63A9	; 0x8063a9 <__brkval>
    708a:	30 91 aa 63 	lds	r19, 0x63AA	; 0x8063aa <__brkval+0x1>
    708e:	28 17       	cp	r18, r24
    7090:	39 07       	cpc	r19, r25
    7092:	51 f5       	brne	.+84     	; 0x70e8 <free+0x88>
    7094:	e0 93 a9 63 	sts	0x63A9, r30	; 0x8063a9 <__brkval>
    7098:	f0 93 aa 63 	sts	0x63AA, r31	; 0x8063aa <__brkval+0x1>
    709c:	67 c0       	rjmp	.+206    	; 0x716c <free+0x10c>
    709e:	ed 01       	movw	r28, r26
    70a0:	20 e0       	ldi	r18, 0x00	; 0
    70a2:	30 e0       	ldi	r19, 0x00	; 0
    70a4:	ce 17       	cp	r28, r30
    70a6:	df 07       	cpc	r29, r31
    70a8:	40 f4       	brcc	.+16     	; 0x70ba <free+0x5a>
    70aa:	4a 81       	ldd	r20, Y+2	; 0x02
    70ac:	5b 81       	ldd	r21, Y+3	; 0x03
    70ae:	9e 01       	movw	r18, r28
    70b0:	41 15       	cp	r20, r1
    70b2:	51 05       	cpc	r21, r1
    70b4:	f1 f0       	breq	.+60     	; 0x70f2 <free+0x92>
    70b6:	ea 01       	movw	r28, r20
    70b8:	f5 cf       	rjmp	.-22     	; 0x70a4 <free+0x44>
    70ba:	c2 83       	std	Z+2, r28	; 0x02
    70bc:	d3 83       	std	Z+3, r29	; 0x03
    70be:	40 81       	ld	r20, Z
    70c0:	51 81       	ldd	r21, Z+1	; 0x01
    70c2:	84 0f       	add	r24, r20
    70c4:	95 1f       	adc	r25, r21
    70c6:	c8 17       	cp	r28, r24
    70c8:	d9 07       	cpc	r29, r25
    70ca:	59 f4       	brne	.+22     	; 0x70e2 <free+0x82>
    70cc:	88 81       	ld	r24, Y
    70ce:	99 81       	ldd	r25, Y+1	; 0x01
    70d0:	84 0f       	add	r24, r20
    70d2:	95 1f       	adc	r25, r21
    70d4:	02 96       	adiw	r24, 0x02	; 2
    70d6:	80 83       	st	Z, r24
    70d8:	91 83       	std	Z+1, r25	; 0x01
    70da:	8a 81       	ldd	r24, Y+2	; 0x02
    70dc:	9b 81       	ldd	r25, Y+3	; 0x03
    70de:	82 83       	std	Z+2, r24	; 0x02
    70e0:	93 83       	std	Z+3, r25	; 0x03
    70e2:	21 15       	cp	r18, r1
    70e4:	31 05       	cpc	r19, r1
    70e6:	29 f4       	brne	.+10     	; 0x70f2 <free+0x92>
    70e8:	e0 93 ab 63 	sts	0x63AB, r30	; 0x8063ab <__flp>
    70ec:	f0 93 ac 63 	sts	0x63AC, r31	; 0x8063ac <__flp+0x1>
    70f0:	3d c0       	rjmp	.+122    	; 0x716c <free+0x10c>
    70f2:	e9 01       	movw	r28, r18
    70f4:	ea 83       	std	Y+2, r30	; 0x02
    70f6:	fb 83       	std	Y+3, r31	; 0x03
    70f8:	49 91       	ld	r20, Y+
    70fa:	59 91       	ld	r21, Y+
    70fc:	c4 0f       	add	r28, r20
    70fe:	d5 1f       	adc	r29, r21
    7100:	ec 17       	cp	r30, r28
    7102:	fd 07       	cpc	r31, r29
    7104:	61 f4       	brne	.+24     	; 0x711e <free+0xbe>
    7106:	80 81       	ld	r24, Z
    7108:	91 81       	ldd	r25, Z+1	; 0x01
    710a:	84 0f       	add	r24, r20
    710c:	95 1f       	adc	r25, r21
    710e:	02 96       	adiw	r24, 0x02	; 2
    7110:	e9 01       	movw	r28, r18
    7112:	88 83       	st	Y, r24
    7114:	99 83       	std	Y+1, r25	; 0x01
    7116:	82 81       	ldd	r24, Z+2	; 0x02
    7118:	93 81       	ldd	r25, Z+3	; 0x03
    711a:	8a 83       	std	Y+2, r24	; 0x02
    711c:	9b 83       	std	Y+3, r25	; 0x03
    711e:	e0 e0       	ldi	r30, 0x00	; 0
    7120:	f0 e0       	ldi	r31, 0x00	; 0
    7122:	12 96       	adiw	r26, 0x02	; 2
    7124:	8d 91       	ld	r24, X+
    7126:	9c 91       	ld	r25, X
    7128:	13 97       	sbiw	r26, 0x03	; 3
    712a:	00 97       	sbiw	r24, 0x00	; 0
    712c:	19 f0       	breq	.+6      	; 0x7134 <free+0xd4>
    712e:	fd 01       	movw	r30, r26
    7130:	dc 01       	movw	r26, r24
    7132:	f7 cf       	rjmp	.-18     	; 0x7122 <free+0xc2>
    7134:	8d 91       	ld	r24, X+
    7136:	9c 91       	ld	r25, X
    7138:	11 97       	sbiw	r26, 0x01	; 1
    713a:	9d 01       	movw	r18, r26
    713c:	2e 5f       	subi	r18, 0xFE	; 254
    713e:	3f 4f       	sbci	r19, 0xFF	; 255
    7140:	82 0f       	add	r24, r18
    7142:	93 1f       	adc	r25, r19
    7144:	20 91 a9 63 	lds	r18, 0x63A9	; 0x8063a9 <__brkval>
    7148:	30 91 aa 63 	lds	r19, 0x63AA	; 0x8063aa <__brkval+0x1>
    714c:	28 17       	cp	r18, r24
    714e:	39 07       	cpc	r19, r25
    7150:	69 f4       	brne	.+26     	; 0x716c <free+0x10c>
    7152:	30 97       	sbiw	r30, 0x00	; 0
    7154:	29 f4       	brne	.+10     	; 0x7160 <free+0x100>
    7156:	10 92 ab 63 	sts	0x63AB, r1	; 0x8063ab <__flp>
    715a:	10 92 ac 63 	sts	0x63AC, r1	; 0x8063ac <__flp+0x1>
    715e:	02 c0       	rjmp	.+4      	; 0x7164 <free+0x104>
    7160:	12 82       	std	Z+2, r1	; 0x02
    7162:	13 82       	std	Z+3, r1	; 0x03
    7164:	a0 93 a9 63 	sts	0x63A9, r26	; 0x8063a9 <__brkval>
    7168:	b0 93 aa 63 	sts	0x63AA, r27	; 0x8063aa <__brkval+0x1>
    716c:	df 91       	pop	r29
    716e:	cf 91       	pop	r28
    7170:	08 95       	ret

00007172 <atoi>:
    7172:	fc 01       	movw	r30, r24
    7174:	88 27       	eor	r24, r24
    7176:	99 27       	eor	r25, r25
    7178:	e8 94       	clt
    717a:	21 91       	ld	r18, Z+
    717c:	20 32       	cpi	r18, 0x20	; 32
    717e:	e9 f3       	breq	.-6      	; 0x717a <atoi+0x8>
    7180:	29 30       	cpi	r18, 0x09	; 9
    7182:	10 f0       	brcs	.+4      	; 0x7188 <atoi+0x16>
    7184:	2e 30       	cpi	r18, 0x0E	; 14
    7186:	c8 f3       	brcs	.-14     	; 0x717a <atoi+0x8>
    7188:	2b 32       	cpi	r18, 0x2B	; 43
    718a:	41 f0       	breq	.+16     	; 0x719c <atoi+0x2a>
    718c:	2d 32       	cpi	r18, 0x2D	; 45
    718e:	39 f4       	brne	.+14     	; 0x719e <atoi+0x2c>
    7190:	68 94       	set
    7192:	04 c0       	rjmp	.+8      	; 0x719c <atoi+0x2a>
    7194:	0e 94 30 39 	call	0x7260	; 0x7260 <__mulhi_const_10>
    7198:	82 0f       	add	r24, r18
    719a:	91 1d       	adc	r25, r1
    719c:	21 91       	ld	r18, Z+
    719e:	20 53       	subi	r18, 0x30	; 48
    71a0:	2a 30       	cpi	r18, 0x0A	; 10
    71a2:	c0 f3       	brcs	.-16     	; 0x7194 <atoi+0x22>
    71a4:	1e f4       	brtc	.+6      	; 0x71ac <atoi+0x3a>
    71a6:	90 95       	com	r25
    71a8:	81 95       	neg	r24
    71aa:	9f 4f       	sbci	r25, 0xFF	; 255
    71ac:	08 95       	ret

000071ae <atol>:
    71ae:	1f 93       	push	r17
    71b0:	fc 01       	movw	r30, r24
    71b2:	99 27       	eor	r25, r25
    71b4:	88 27       	eor	r24, r24
    71b6:	bc 01       	movw	r22, r24
    71b8:	e8 94       	clt
    71ba:	11 91       	ld	r17, Z+
    71bc:	10 32       	cpi	r17, 0x20	; 32
    71be:	e9 f3       	breq	.-6      	; 0x71ba <atol+0xc>
    71c0:	19 30       	cpi	r17, 0x09	; 9
    71c2:	10 f0       	brcs	.+4      	; 0x71c8 <atol+0x1a>
    71c4:	1e 30       	cpi	r17, 0x0E	; 14
    71c6:	c8 f3       	brcs	.-14     	; 0x71ba <atol+0xc>
    71c8:	1b 32       	cpi	r17, 0x2B	; 43
    71ca:	51 f0       	breq	.+20     	; 0x71e0 <atol+0x32>
    71cc:	1d 32       	cpi	r17, 0x2D	; 45
    71ce:	49 f4       	brne	.+18     	; 0x71e2 <atol+0x34>
    71d0:	68 94       	set
    71d2:	06 c0       	rjmp	.+12     	; 0x71e0 <atol+0x32>
    71d4:	0e 94 1b 39 	call	0x7236	; 0x7236 <__mulsi_const_10>
    71d8:	61 0f       	add	r22, r17
    71da:	71 1d       	adc	r23, r1
    71dc:	81 1d       	adc	r24, r1
    71de:	91 1d       	adc	r25, r1
    71e0:	11 91       	ld	r17, Z+
    71e2:	10 53       	subi	r17, 0x30	; 48
    71e4:	1a 30       	cpi	r17, 0x0A	; 10
    71e6:	b0 f3       	brcs	.-20     	; 0x71d4 <atol+0x26>
    71e8:	3e f4       	brtc	.+14     	; 0x71f8 <atol+0x4a>
    71ea:	90 95       	com	r25
    71ec:	80 95       	com	r24
    71ee:	70 95       	com	r23
    71f0:	61 95       	neg	r22
    71f2:	7f 4f       	sbci	r23, 0xFF	; 255
    71f4:	8f 4f       	sbci	r24, 0xFF	; 255
    71f6:	9f 4f       	sbci	r25, 0xFF	; 255
    71f8:	1f 91       	pop	r17
    71fa:	08 95       	ret

000071fc <strncmp>:
    71fc:	fb 01       	movw	r30, r22
    71fe:	dc 01       	movw	r26, r24
    7200:	41 50       	subi	r20, 0x01	; 1
    7202:	50 40       	sbci	r21, 0x00	; 0
    7204:	30 f0       	brcs	.+12     	; 0x7212 <strncmp+0x16>
    7206:	8d 91       	ld	r24, X+
    7208:	01 90       	ld	r0, Z+
    720a:	80 19       	sub	r24, r0
    720c:	19 f4       	brne	.+6      	; 0x7214 <strncmp+0x18>
    720e:	00 20       	and	r0, r0
    7210:	b9 f7       	brne	.-18     	; 0x7200 <strncmp+0x4>
    7212:	88 1b       	sub	r24, r24
    7214:	99 0b       	sbc	r25, r25
    7216:	08 95       	ret

00007218 <strncpy>:
    7218:	fb 01       	movw	r30, r22
    721a:	dc 01       	movw	r26, r24
    721c:	41 50       	subi	r20, 0x01	; 1
    721e:	50 40       	sbci	r21, 0x00	; 0
    7220:	48 f0       	brcs	.+18     	; 0x7234 <strncpy+0x1c>
    7222:	01 90       	ld	r0, Z+
    7224:	0d 92       	st	X+, r0
    7226:	00 20       	and	r0, r0
    7228:	c9 f7       	brne	.-14     	; 0x721c <strncpy+0x4>
    722a:	01 c0       	rjmp	.+2      	; 0x722e <strncpy+0x16>
    722c:	1d 92       	st	X+, r1
    722e:	41 50       	subi	r20, 0x01	; 1
    7230:	50 40       	sbci	r21, 0x00	; 0
    7232:	e0 f7       	brcc	.-8      	; 0x722c <strncpy+0x14>
    7234:	08 95       	ret

00007236 <__mulsi_const_10>:
    7236:	59 2f       	mov	r21, r25
    7238:	48 2f       	mov	r20, r24
    723a:	37 2f       	mov	r19, r23
    723c:	26 2f       	mov	r18, r22
    723e:	66 0f       	add	r22, r22
    7240:	77 1f       	adc	r23, r23
    7242:	88 1f       	adc	r24, r24
    7244:	99 1f       	adc	r25, r25
    7246:	66 0f       	add	r22, r22
    7248:	77 1f       	adc	r23, r23
    724a:	88 1f       	adc	r24, r24
    724c:	99 1f       	adc	r25, r25
    724e:	62 0f       	add	r22, r18
    7250:	73 1f       	adc	r23, r19
    7252:	84 1f       	adc	r24, r20
    7254:	95 1f       	adc	r25, r21
    7256:	66 0f       	add	r22, r22
    7258:	77 1f       	adc	r23, r23
    725a:	88 1f       	adc	r24, r24
    725c:	99 1f       	adc	r25, r25
    725e:	08 95       	ret

00007260 <__mulhi_const_10>:
    7260:	7a e0       	ldi	r23, 0x0A	; 10
    7262:	97 9f       	mul	r25, r23
    7264:	90 2d       	mov	r25, r0
    7266:	87 9f       	mul	r24, r23
    7268:	80 2d       	mov	r24, r0
    726a:	91 0d       	add	r25, r1
    726c:	11 24       	eor	r1, r1
    726e:	08 95       	ret

00007270 <snprintf>:
    7270:	ae e0       	ldi	r26, 0x0E	; 14
    7272:	b0 e0       	ldi	r27, 0x00	; 0
    7274:	ee e3       	ldi	r30, 0x3E	; 62
    7276:	f9 e3       	ldi	r31, 0x39	; 57
    7278:	0c 94 ff 3e 	jmp	0x7dfe	; 0x7dfe <__prologue_saves__+0x1c>
    727c:	0d 89       	ldd	r16, Y+21	; 0x15
    727e:	1e 89       	ldd	r17, Y+22	; 0x16
    7280:	8f 89       	ldd	r24, Y+23	; 0x17
    7282:	98 8d       	ldd	r25, Y+24	; 0x18
    7284:	26 e0       	ldi	r18, 0x06	; 6
    7286:	2c 83       	std	Y+4, r18	; 0x04
    7288:	09 83       	std	Y+1, r16	; 0x01
    728a:	1a 83       	std	Y+2, r17	; 0x02
    728c:	97 ff       	sbrs	r25, 7
    728e:	02 c0       	rjmp	.+4      	; 0x7294 <snprintf+0x24>
    7290:	80 e0       	ldi	r24, 0x00	; 0
    7292:	90 e8       	ldi	r25, 0x80	; 128
    7294:	01 97       	sbiw	r24, 0x01	; 1
    7296:	8d 83       	std	Y+5, r24	; 0x05
    7298:	9e 83       	std	Y+6, r25	; 0x06
    729a:	ae 01       	movw	r20, r28
    729c:	45 5e       	subi	r20, 0xE5	; 229
    729e:	5f 4f       	sbci	r21, 0xFF	; 255
    72a0:	69 8d       	ldd	r22, Y+25	; 0x19
    72a2:	7a 8d       	ldd	r23, Y+26	; 0x1a
    72a4:	ce 01       	movw	r24, r28
    72a6:	01 96       	adiw	r24, 0x01	; 1
    72a8:	0e 94 8a 39 	call	0x7314	; 0x7314 <vfprintf>
    72ac:	4d 81       	ldd	r20, Y+5	; 0x05
    72ae:	5e 81       	ldd	r21, Y+6	; 0x06
    72b0:	57 fd       	sbrc	r21, 7
    72b2:	0a c0       	rjmp	.+20     	; 0x72c8 <snprintf+0x58>
    72b4:	2f 81       	ldd	r18, Y+7	; 0x07
    72b6:	38 85       	ldd	r19, Y+8	; 0x08
    72b8:	42 17       	cp	r20, r18
    72ba:	53 07       	cpc	r21, r19
    72bc:	0c f4       	brge	.+2      	; 0x72c0 <snprintf+0x50>
    72be:	9a 01       	movw	r18, r20
    72c0:	f8 01       	movw	r30, r16
    72c2:	e2 0f       	add	r30, r18
    72c4:	f3 1f       	adc	r31, r19
    72c6:	10 82       	st	Z, r1
    72c8:	2e 96       	adiw	r28, 0x0e	; 14
    72ca:	e4 e0       	ldi	r30, 0x04	; 4
    72cc:	0c 94 18 3f 	jmp	0x7e30	; 0x7e30 <__epilogue_restores__+0x1c>

000072d0 <sprintf>:
    72d0:	ae e0       	ldi	r26, 0x0E	; 14
    72d2:	b0 e0       	ldi	r27, 0x00	; 0
    72d4:	ee e6       	ldi	r30, 0x6E	; 110
    72d6:	f9 e3       	ldi	r31, 0x39	; 57
    72d8:	0c 94 ff 3e 	jmp	0x7dfe	; 0x7dfe <__prologue_saves__+0x1c>
    72dc:	0d 89       	ldd	r16, Y+21	; 0x15
    72de:	1e 89       	ldd	r17, Y+22	; 0x16
    72e0:	86 e0       	ldi	r24, 0x06	; 6
    72e2:	8c 83       	std	Y+4, r24	; 0x04
    72e4:	09 83       	std	Y+1, r16	; 0x01
    72e6:	1a 83       	std	Y+2, r17	; 0x02
    72e8:	8f ef       	ldi	r24, 0xFF	; 255
    72ea:	9f e7       	ldi	r25, 0x7F	; 127
    72ec:	8d 83       	std	Y+5, r24	; 0x05
    72ee:	9e 83       	std	Y+6, r25	; 0x06
    72f0:	ae 01       	movw	r20, r28
    72f2:	47 5e       	subi	r20, 0xE7	; 231
    72f4:	5f 4f       	sbci	r21, 0xFF	; 255
    72f6:	6f 89       	ldd	r22, Y+23	; 0x17
    72f8:	78 8d       	ldd	r23, Y+24	; 0x18
    72fa:	ce 01       	movw	r24, r28
    72fc:	01 96       	adiw	r24, 0x01	; 1
    72fe:	0e 94 8a 39 	call	0x7314	; 0x7314 <vfprintf>
    7302:	ef 81       	ldd	r30, Y+7	; 0x07
    7304:	f8 85       	ldd	r31, Y+8	; 0x08
    7306:	e0 0f       	add	r30, r16
    7308:	f1 1f       	adc	r31, r17
    730a:	10 82       	st	Z, r1
    730c:	2e 96       	adiw	r28, 0x0e	; 14
    730e:	e4 e0       	ldi	r30, 0x04	; 4
    7310:	0c 94 18 3f 	jmp	0x7e30	; 0x7e30 <__epilogue_restores__+0x1c>

00007314 <vfprintf>:
    7314:	ab e0       	ldi	r26, 0x0B	; 11
    7316:	b0 e0       	ldi	r27, 0x00	; 0
    7318:	e0 e9       	ldi	r30, 0x90	; 144
    731a:	f9 e3       	ldi	r31, 0x39	; 57
    731c:	0c 94 f1 3e 	jmp	0x7de2	; 0x7de2 <__prologue_saves__>
    7320:	6c 01       	movw	r12, r24
    7322:	7b 01       	movw	r14, r22
    7324:	8a 01       	movw	r16, r20
    7326:	fc 01       	movw	r30, r24
    7328:	16 82       	std	Z+6, r1	; 0x06
    732a:	17 82       	std	Z+7, r1	; 0x07
    732c:	83 81       	ldd	r24, Z+3	; 0x03
    732e:	81 ff       	sbrs	r24, 1
    7330:	cc c1       	rjmp	.+920    	; 0x76ca <vfprintf+0x3b6>
    7332:	ce 01       	movw	r24, r28
    7334:	01 96       	adiw	r24, 0x01	; 1
    7336:	3c 01       	movw	r6, r24
    7338:	f6 01       	movw	r30, r12
    733a:	93 81       	ldd	r25, Z+3	; 0x03
    733c:	f7 01       	movw	r30, r14
    733e:	93 fd       	sbrc	r25, 3
    7340:	85 91       	lpm	r24, Z+
    7342:	93 ff       	sbrs	r25, 3
    7344:	81 91       	ld	r24, Z+
    7346:	7f 01       	movw	r14, r30
    7348:	88 23       	and	r24, r24
    734a:	09 f4       	brne	.+2      	; 0x734e <vfprintf+0x3a>
    734c:	ba c1       	rjmp	.+884    	; 0x76c2 <vfprintf+0x3ae>
    734e:	85 32       	cpi	r24, 0x25	; 37
    7350:	39 f4       	brne	.+14     	; 0x7360 <vfprintf+0x4c>
    7352:	93 fd       	sbrc	r25, 3
    7354:	85 91       	lpm	r24, Z+
    7356:	93 ff       	sbrs	r25, 3
    7358:	81 91       	ld	r24, Z+
    735a:	7f 01       	movw	r14, r30
    735c:	85 32       	cpi	r24, 0x25	; 37
    735e:	29 f4       	brne	.+10     	; 0x736a <vfprintf+0x56>
    7360:	b6 01       	movw	r22, r12
    7362:	90 e0       	ldi	r25, 0x00	; 0
    7364:	0e 94 b3 3d 	call	0x7b66	; 0x7b66 <fputc>
    7368:	e7 cf       	rjmp	.-50     	; 0x7338 <vfprintf+0x24>
    736a:	91 2c       	mov	r9, r1
    736c:	21 2c       	mov	r2, r1
    736e:	31 2c       	mov	r3, r1
    7370:	ff e1       	ldi	r31, 0x1F	; 31
    7372:	f3 15       	cp	r31, r3
    7374:	d8 f0       	brcs	.+54     	; 0x73ac <vfprintf+0x98>
    7376:	8b 32       	cpi	r24, 0x2B	; 43
    7378:	79 f0       	breq	.+30     	; 0x7398 <vfprintf+0x84>
    737a:	38 f4       	brcc	.+14     	; 0x738a <vfprintf+0x76>
    737c:	80 32       	cpi	r24, 0x20	; 32
    737e:	79 f0       	breq	.+30     	; 0x739e <vfprintf+0x8a>
    7380:	83 32       	cpi	r24, 0x23	; 35
    7382:	a1 f4       	brne	.+40     	; 0x73ac <vfprintf+0x98>
    7384:	23 2d       	mov	r18, r3
    7386:	20 61       	ori	r18, 0x10	; 16
    7388:	1d c0       	rjmp	.+58     	; 0x73c4 <vfprintf+0xb0>
    738a:	8d 32       	cpi	r24, 0x2D	; 45
    738c:	61 f0       	breq	.+24     	; 0x73a6 <vfprintf+0x92>
    738e:	80 33       	cpi	r24, 0x30	; 48
    7390:	69 f4       	brne	.+26     	; 0x73ac <vfprintf+0x98>
    7392:	23 2d       	mov	r18, r3
    7394:	21 60       	ori	r18, 0x01	; 1
    7396:	16 c0       	rjmp	.+44     	; 0x73c4 <vfprintf+0xb0>
    7398:	83 2d       	mov	r24, r3
    739a:	82 60       	ori	r24, 0x02	; 2
    739c:	38 2e       	mov	r3, r24
    739e:	e3 2d       	mov	r30, r3
    73a0:	e4 60       	ori	r30, 0x04	; 4
    73a2:	3e 2e       	mov	r3, r30
    73a4:	2a c0       	rjmp	.+84     	; 0x73fa <vfprintf+0xe6>
    73a6:	f3 2d       	mov	r31, r3
    73a8:	f8 60       	ori	r31, 0x08	; 8
    73aa:	1d c0       	rjmp	.+58     	; 0x73e6 <vfprintf+0xd2>
    73ac:	37 fc       	sbrc	r3, 7
    73ae:	2d c0       	rjmp	.+90     	; 0x740a <vfprintf+0xf6>
    73b0:	20 ed       	ldi	r18, 0xD0	; 208
    73b2:	28 0f       	add	r18, r24
    73b4:	2a 30       	cpi	r18, 0x0A	; 10
    73b6:	40 f0       	brcs	.+16     	; 0x73c8 <vfprintf+0xb4>
    73b8:	8e 32       	cpi	r24, 0x2E	; 46
    73ba:	b9 f4       	brne	.+46     	; 0x73ea <vfprintf+0xd6>
    73bc:	36 fc       	sbrc	r3, 6
    73be:	81 c1       	rjmp	.+770    	; 0x76c2 <vfprintf+0x3ae>
    73c0:	23 2d       	mov	r18, r3
    73c2:	20 64       	ori	r18, 0x40	; 64
    73c4:	32 2e       	mov	r3, r18
    73c6:	19 c0       	rjmp	.+50     	; 0x73fa <vfprintf+0xe6>
    73c8:	36 fe       	sbrs	r3, 6
    73ca:	06 c0       	rjmp	.+12     	; 0x73d8 <vfprintf+0xc4>
    73cc:	8a e0       	ldi	r24, 0x0A	; 10
    73ce:	98 9e       	mul	r9, r24
    73d0:	20 0d       	add	r18, r0
    73d2:	11 24       	eor	r1, r1
    73d4:	92 2e       	mov	r9, r18
    73d6:	11 c0       	rjmp	.+34     	; 0x73fa <vfprintf+0xe6>
    73d8:	ea e0       	ldi	r30, 0x0A	; 10
    73da:	2e 9e       	mul	r2, r30
    73dc:	20 0d       	add	r18, r0
    73de:	11 24       	eor	r1, r1
    73e0:	22 2e       	mov	r2, r18
    73e2:	f3 2d       	mov	r31, r3
    73e4:	f0 62       	ori	r31, 0x20	; 32
    73e6:	3f 2e       	mov	r3, r31
    73e8:	08 c0       	rjmp	.+16     	; 0x73fa <vfprintf+0xe6>
    73ea:	8c 36       	cpi	r24, 0x6C	; 108
    73ec:	21 f4       	brne	.+8      	; 0x73f6 <vfprintf+0xe2>
    73ee:	83 2d       	mov	r24, r3
    73f0:	80 68       	ori	r24, 0x80	; 128
    73f2:	38 2e       	mov	r3, r24
    73f4:	02 c0       	rjmp	.+4      	; 0x73fa <vfprintf+0xe6>
    73f6:	88 36       	cpi	r24, 0x68	; 104
    73f8:	41 f4       	brne	.+16     	; 0x740a <vfprintf+0xf6>
    73fa:	f7 01       	movw	r30, r14
    73fc:	93 fd       	sbrc	r25, 3
    73fe:	85 91       	lpm	r24, Z+
    7400:	93 ff       	sbrs	r25, 3
    7402:	81 91       	ld	r24, Z+
    7404:	7f 01       	movw	r14, r30
    7406:	81 11       	cpse	r24, r1
    7408:	b3 cf       	rjmp	.-154    	; 0x7370 <vfprintf+0x5c>
    740a:	98 2f       	mov	r25, r24
    740c:	9f 7d       	andi	r25, 0xDF	; 223
    740e:	95 54       	subi	r25, 0x45	; 69
    7410:	93 30       	cpi	r25, 0x03	; 3
    7412:	28 f4       	brcc	.+10     	; 0x741e <vfprintf+0x10a>
    7414:	0c 5f       	subi	r16, 0xFC	; 252
    7416:	1f 4f       	sbci	r17, 0xFF	; 255
    7418:	9f e3       	ldi	r25, 0x3F	; 63
    741a:	99 83       	std	Y+1, r25	; 0x01
    741c:	0d c0       	rjmp	.+26     	; 0x7438 <vfprintf+0x124>
    741e:	83 36       	cpi	r24, 0x63	; 99
    7420:	31 f0       	breq	.+12     	; 0x742e <vfprintf+0x11a>
    7422:	83 37       	cpi	r24, 0x73	; 115
    7424:	71 f0       	breq	.+28     	; 0x7442 <vfprintf+0x12e>
    7426:	83 35       	cpi	r24, 0x53	; 83
    7428:	09 f0       	breq	.+2      	; 0x742c <vfprintf+0x118>
    742a:	59 c0       	rjmp	.+178    	; 0x74de <vfprintf+0x1ca>
    742c:	21 c0       	rjmp	.+66     	; 0x7470 <vfprintf+0x15c>
    742e:	f8 01       	movw	r30, r16
    7430:	80 81       	ld	r24, Z
    7432:	89 83       	std	Y+1, r24	; 0x01
    7434:	0e 5f       	subi	r16, 0xFE	; 254
    7436:	1f 4f       	sbci	r17, 0xFF	; 255
    7438:	88 24       	eor	r8, r8
    743a:	83 94       	inc	r8
    743c:	91 2c       	mov	r9, r1
    743e:	53 01       	movw	r10, r6
    7440:	13 c0       	rjmp	.+38     	; 0x7468 <vfprintf+0x154>
    7442:	28 01       	movw	r4, r16
    7444:	f2 e0       	ldi	r31, 0x02	; 2
    7446:	4f 0e       	add	r4, r31
    7448:	51 1c       	adc	r5, r1
    744a:	f8 01       	movw	r30, r16
    744c:	a0 80       	ld	r10, Z
    744e:	b1 80       	ldd	r11, Z+1	; 0x01
    7450:	36 fe       	sbrs	r3, 6
    7452:	03 c0       	rjmp	.+6      	; 0x745a <vfprintf+0x146>
    7454:	69 2d       	mov	r22, r9
    7456:	70 e0       	ldi	r23, 0x00	; 0
    7458:	02 c0       	rjmp	.+4      	; 0x745e <vfprintf+0x14a>
    745a:	6f ef       	ldi	r22, 0xFF	; 255
    745c:	7f ef       	ldi	r23, 0xFF	; 255
    745e:	c5 01       	movw	r24, r10
    7460:	0e 94 a8 3d 	call	0x7b50	; 0x7b50 <strnlen>
    7464:	4c 01       	movw	r8, r24
    7466:	82 01       	movw	r16, r4
    7468:	f3 2d       	mov	r31, r3
    746a:	ff 77       	andi	r31, 0x7F	; 127
    746c:	3f 2e       	mov	r3, r31
    746e:	16 c0       	rjmp	.+44     	; 0x749c <vfprintf+0x188>
    7470:	28 01       	movw	r4, r16
    7472:	22 e0       	ldi	r18, 0x02	; 2
    7474:	42 0e       	add	r4, r18
    7476:	51 1c       	adc	r5, r1
    7478:	f8 01       	movw	r30, r16
    747a:	a0 80       	ld	r10, Z
    747c:	b1 80       	ldd	r11, Z+1	; 0x01
    747e:	36 fe       	sbrs	r3, 6
    7480:	03 c0       	rjmp	.+6      	; 0x7488 <vfprintf+0x174>
    7482:	69 2d       	mov	r22, r9
    7484:	70 e0       	ldi	r23, 0x00	; 0
    7486:	02 c0       	rjmp	.+4      	; 0x748c <vfprintf+0x178>
    7488:	6f ef       	ldi	r22, 0xFF	; 255
    748a:	7f ef       	ldi	r23, 0xFF	; 255
    748c:	c5 01       	movw	r24, r10
    748e:	0e 94 9d 3d 	call	0x7b3a	; 0x7b3a <strnlen_P>
    7492:	4c 01       	movw	r8, r24
    7494:	f3 2d       	mov	r31, r3
    7496:	f0 68       	ori	r31, 0x80	; 128
    7498:	3f 2e       	mov	r3, r31
    749a:	82 01       	movw	r16, r4
    749c:	33 fc       	sbrc	r3, 3
    749e:	1b c0       	rjmp	.+54     	; 0x74d6 <vfprintf+0x1c2>
    74a0:	82 2d       	mov	r24, r2
    74a2:	90 e0       	ldi	r25, 0x00	; 0
    74a4:	88 16       	cp	r8, r24
    74a6:	99 06       	cpc	r9, r25
    74a8:	b0 f4       	brcc	.+44     	; 0x74d6 <vfprintf+0x1c2>
    74aa:	b6 01       	movw	r22, r12
    74ac:	80 e2       	ldi	r24, 0x20	; 32
    74ae:	90 e0       	ldi	r25, 0x00	; 0
    74b0:	0e 94 b3 3d 	call	0x7b66	; 0x7b66 <fputc>
    74b4:	2a 94       	dec	r2
    74b6:	f4 cf       	rjmp	.-24     	; 0x74a0 <vfprintf+0x18c>
    74b8:	f5 01       	movw	r30, r10
    74ba:	37 fc       	sbrc	r3, 7
    74bc:	85 91       	lpm	r24, Z+
    74be:	37 fe       	sbrs	r3, 7
    74c0:	81 91       	ld	r24, Z+
    74c2:	5f 01       	movw	r10, r30
    74c4:	b6 01       	movw	r22, r12
    74c6:	90 e0       	ldi	r25, 0x00	; 0
    74c8:	0e 94 b3 3d 	call	0x7b66	; 0x7b66 <fputc>
    74cc:	21 10       	cpse	r2, r1
    74ce:	2a 94       	dec	r2
    74d0:	21 e0       	ldi	r18, 0x01	; 1
    74d2:	82 1a       	sub	r8, r18
    74d4:	91 08       	sbc	r9, r1
    74d6:	81 14       	cp	r8, r1
    74d8:	91 04       	cpc	r9, r1
    74da:	71 f7       	brne	.-36     	; 0x74b8 <vfprintf+0x1a4>
    74dc:	e8 c0       	rjmp	.+464    	; 0x76ae <vfprintf+0x39a>
    74de:	84 36       	cpi	r24, 0x64	; 100
    74e0:	11 f0       	breq	.+4      	; 0x74e6 <vfprintf+0x1d2>
    74e2:	89 36       	cpi	r24, 0x69	; 105
    74e4:	41 f5       	brne	.+80     	; 0x7536 <vfprintf+0x222>
    74e6:	f8 01       	movw	r30, r16
    74e8:	37 fe       	sbrs	r3, 7
    74ea:	07 c0       	rjmp	.+14     	; 0x74fa <vfprintf+0x1e6>
    74ec:	60 81       	ld	r22, Z
    74ee:	71 81       	ldd	r23, Z+1	; 0x01
    74f0:	82 81       	ldd	r24, Z+2	; 0x02
    74f2:	93 81       	ldd	r25, Z+3	; 0x03
    74f4:	0c 5f       	subi	r16, 0xFC	; 252
    74f6:	1f 4f       	sbci	r17, 0xFF	; 255
    74f8:	08 c0       	rjmp	.+16     	; 0x750a <vfprintf+0x1f6>
    74fa:	60 81       	ld	r22, Z
    74fc:	71 81       	ldd	r23, Z+1	; 0x01
    74fe:	07 2e       	mov	r0, r23
    7500:	00 0c       	add	r0, r0
    7502:	88 0b       	sbc	r24, r24
    7504:	99 0b       	sbc	r25, r25
    7506:	0e 5f       	subi	r16, 0xFE	; 254
    7508:	1f 4f       	sbci	r17, 0xFF	; 255
    750a:	f3 2d       	mov	r31, r3
    750c:	ff 76       	andi	r31, 0x6F	; 111
    750e:	3f 2e       	mov	r3, r31
    7510:	97 ff       	sbrs	r25, 7
    7512:	09 c0       	rjmp	.+18     	; 0x7526 <vfprintf+0x212>
    7514:	90 95       	com	r25
    7516:	80 95       	com	r24
    7518:	70 95       	com	r23
    751a:	61 95       	neg	r22
    751c:	7f 4f       	sbci	r23, 0xFF	; 255
    751e:	8f 4f       	sbci	r24, 0xFF	; 255
    7520:	9f 4f       	sbci	r25, 0xFF	; 255
    7522:	f0 68       	ori	r31, 0x80	; 128
    7524:	3f 2e       	mov	r3, r31
    7526:	2a e0       	ldi	r18, 0x0A	; 10
    7528:	30 e0       	ldi	r19, 0x00	; 0
    752a:	a3 01       	movw	r20, r6
    752c:	0e 94 ef 3d 	call	0x7bde	; 0x7bde <__ultoa_invert>
    7530:	88 2e       	mov	r8, r24
    7532:	86 18       	sub	r8, r6
    7534:	45 c0       	rjmp	.+138    	; 0x75c0 <vfprintf+0x2ac>
    7536:	85 37       	cpi	r24, 0x75	; 117
    7538:	31 f4       	brne	.+12     	; 0x7546 <vfprintf+0x232>
    753a:	23 2d       	mov	r18, r3
    753c:	2f 7e       	andi	r18, 0xEF	; 239
    753e:	b2 2e       	mov	r11, r18
    7540:	2a e0       	ldi	r18, 0x0A	; 10
    7542:	30 e0       	ldi	r19, 0x00	; 0
    7544:	25 c0       	rjmp	.+74     	; 0x7590 <vfprintf+0x27c>
    7546:	93 2d       	mov	r25, r3
    7548:	99 7f       	andi	r25, 0xF9	; 249
    754a:	b9 2e       	mov	r11, r25
    754c:	8f 36       	cpi	r24, 0x6F	; 111
    754e:	c1 f0       	breq	.+48     	; 0x7580 <vfprintf+0x26c>
    7550:	18 f4       	brcc	.+6      	; 0x7558 <vfprintf+0x244>
    7552:	88 35       	cpi	r24, 0x58	; 88
    7554:	79 f0       	breq	.+30     	; 0x7574 <vfprintf+0x260>
    7556:	b5 c0       	rjmp	.+362    	; 0x76c2 <vfprintf+0x3ae>
    7558:	80 37       	cpi	r24, 0x70	; 112
    755a:	19 f0       	breq	.+6      	; 0x7562 <vfprintf+0x24e>
    755c:	88 37       	cpi	r24, 0x78	; 120
    755e:	21 f0       	breq	.+8      	; 0x7568 <vfprintf+0x254>
    7560:	b0 c0       	rjmp	.+352    	; 0x76c2 <vfprintf+0x3ae>
    7562:	e9 2f       	mov	r30, r25
    7564:	e0 61       	ori	r30, 0x10	; 16
    7566:	be 2e       	mov	r11, r30
    7568:	b4 fe       	sbrs	r11, 4
    756a:	0d c0       	rjmp	.+26     	; 0x7586 <vfprintf+0x272>
    756c:	fb 2d       	mov	r31, r11
    756e:	f4 60       	ori	r31, 0x04	; 4
    7570:	bf 2e       	mov	r11, r31
    7572:	09 c0       	rjmp	.+18     	; 0x7586 <vfprintf+0x272>
    7574:	34 fe       	sbrs	r3, 4
    7576:	0a c0       	rjmp	.+20     	; 0x758c <vfprintf+0x278>
    7578:	29 2f       	mov	r18, r25
    757a:	26 60       	ori	r18, 0x06	; 6
    757c:	b2 2e       	mov	r11, r18
    757e:	06 c0       	rjmp	.+12     	; 0x758c <vfprintf+0x278>
    7580:	28 e0       	ldi	r18, 0x08	; 8
    7582:	30 e0       	ldi	r19, 0x00	; 0
    7584:	05 c0       	rjmp	.+10     	; 0x7590 <vfprintf+0x27c>
    7586:	20 e1       	ldi	r18, 0x10	; 16
    7588:	30 e0       	ldi	r19, 0x00	; 0
    758a:	02 c0       	rjmp	.+4      	; 0x7590 <vfprintf+0x27c>
    758c:	20 e1       	ldi	r18, 0x10	; 16
    758e:	32 e0       	ldi	r19, 0x02	; 2
    7590:	f8 01       	movw	r30, r16
    7592:	b7 fe       	sbrs	r11, 7
    7594:	07 c0       	rjmp	.+14     	; 0x75a4 <vfprintf+0x290>
    7596:	60 81       	ld	r22, Z
    7598:	71 81       	ldd	r23, Z+1	; 0x01
    759a:	82 81       	ldd	r24, Z+2	; 0x02
    759c:	93 81       	ldd	r25, Z+3	; 0x03
    759e:	0c 5f       	subi	r16, 0xFC	; 252
    75a0:	1f 4f       	sbci	r17, 0xFF	; 255
    75a2:	06 c0       	rjmp	.+12     	; 0x75b0 <vfprintf+0x29c>
    75a4:	60 81       	ld	r22, Z
    75a6:	71 81       	ldd	r23, Z+1	; 0x01
    75a8:	80 e0       	ldi	r24, 0x00	; 0
    75aa:	90 e0       	ldi	r25, 0x00	; 0
    75ac:	0e 5f       	subi	r16, 0xFE	; 254
    75ae:	1f 4f       	sbci	r17, 0xFF	; 255
    75b0:	a3 01       	movw	r20, r6
    75b2:	0e 94 ef 3d 	call	0x7bde	; 0x7bde <__ultoa_invert>
    75b6:	88 2e       	mov	r8, r24
    75b8:	86 18       	sub	r8, r6
    75ba:	fb 2d       	mov	r31, r11
    75bc:	ff 77       	andi	r31, 0x7F	; 127
    75be:	3f 2e       	mov	r3, r31
    75c0:	36 fe       	sbrs	r3, 6
    75c2:	0d c0       	rjmp	.+26     	; 0x75de <vfprintf+0x2ca>
    75c4:	23 2d       	mov	r18, r3
    75c6:	2e 7f       	andi	r18, 0xFE	; 254
    75c8:	a2 2e       	mov	r10, r18
    75ca:	89 14       	cp	r8, r9
    75cc:	58 f4       	brcc	.+22     	; 0x75e4 <vfprintf+0x2d0>
    75ce:	34 fe       	sbrs	r3, 4
    75d0:	0b c0       	rjmp	.+22     	; 0x75e8 <vfprintf+0x2d4>
    75d2:	32 fc       	sbrc	r3, 2
    75d4:	09 c0       	rjmp	.+18     	; 0x75e8 <vfprintf+0x2d4>
    75d6:	83 2d       	mov	r24, r3
    75d8:	8e 7e       	andi	r24, 0xEE	; 238
    75da:	a8 2e       	mov	r10, r24
    75dc:	05 c0       	rjmp	.+10     	; 0x75e8 <vfprintf+0x2d4>
    75de:	b8 2c       	mov	r11, r8
    75e0:	a3 2c       	mov	r10, r3
    75e2:	03 c0       	rjmp	.+6      	; 0x75ea <vfprintf+0x2d6>
    75e4:	b8 2c       	mov	r11, r8
    75e6:	01 c0       	rjmp	.+2      	; 0x75ea <vfprintf+0x2d6>
    75e8:	b9 2c       	mov	r11, r9
    75ea:	a4 fe       	sbrs	r10, 4
    75ec:	0f c0       	rjmp	.+30     	; 0x760c <vfprintf+0x2f8>
    75ee:	fe 01       	movw	r30, r28
    75f0:	e8 0d       	add	r30, r8
    75f2:	f1 1d       	adc	r31, r1
    75f4:	80 81       	ld	r24, Z
    75f6:	80 33       	cpi	r24, 0x30	; 48
    75f8:	21 f4       	brne	.+8      	; 0x7602 <vfprintf+0x2ee>
    75fa:	9a 2d       	mov	r25, r10
    75fc:	99 7e       	andi	r25, 0xE9	; 233
    75fe:	a9 2e       	mov	r10, r25
    7600:	09 c0       	rjmp	.+18     	; 0x7614 <vfprintf+0x300>
    7602:	a2 fe       	sbrs	r10, 2
    7604:	06 c0       	rjmp	.+12     	; 0x7612 <vfprintf+0x2fe>
    7606:	b3 94       	inc	r11
    7608:	b3 94       	inc	r11
    760a:	04 c0       	rjmp	.+8      	; 0x7614 <vfprintf+0x300>
    760c:	8a 2d       	mov	r24, r10
    760e:	86 78       	andi	r24, 0x86	; 134
    7610:	09 f0       	breq	.+2      	; 0x7614 <vfprintf+0x300>
    7612:	b3 94       	inc	r11
    7614:	a3 fc       	sbrc	r10, 3
    7616:	11 c0       	rjmp	.+34     	; 0x763a <vfprintf+0x326>
    7618:	a0 fe       	sbrs	r10, 0
    761a:	06 c0       	rjmp	.+12     	; 0x7628 <vfprintf+0x314>
    761c:	b2 14       	cp	r11, r2
    761e:	88 f4       	brcc	.+34     	; 0x7642 <vfprintf+0x32e>
    7620:	28 0c       	add	r2, r8
    7622:	92 2c       	mov	r9, r2
    7624:	9b 18       	sub	r9, r11
    7626:	0e c0       	rjmp	.+28     	; 0x7644 <vfprintf+0x330>
    7628:	b2 14       	cp	r11, r2
    762a:	60 f4       	brcc	.+24     	; 0x7644 <vfprintf+0x330>
    762c:	b6 01       	movw	r22, r12
    762e:	80 e2       	ldi	r24, 0x20	; 32
    7630:	90 e0       	ldi	r25, 0x00	; 0
    7632:	0e 94 b3 3d 	call	0x7b66	; 0x7b66 <fputc>
    7636:	b3 94       	inc	r11
    7638:	f7 cf       	rjmp	.-18     	; 0x7628 <vfprintf+0x314>
    763a:	b2 14       	cp	r11, r2
    763c:	18 f4       	brcc	.+6      	; 0x7644 <vfprintf+0x330>
    763e:	2b 18       	sub	r2, r11
    7640:	02 c0       	rjmp	.+4      	; 0x7646 <vfprintf+0x332>
    7642:	98 2c       	mov	r9, r8
    7644:	21 2c       	mov	r2, r1
    7646:	a4 fe       	sbrs	r10, 4
    7648:	10 c0       	rjmp	.+32     	; 0x766a <vfprintf+0x356>
    764a:	b6 01       	movw	r22, r12
    764c:	80 e3       	ldi	r24, 0x30	; 48
    764e:	90 e0       	ldi	r25, 0x00	; 0
    7650:	0e 94 b3 3d 	call	0x7b66	; 0x7b66 <fputc>
    7654:	a2 fe       	sbrs	r10, 2
    7656:	17 c0       	rjmp	.+46     	; 0x7686 <vfprintf+0x372>
    7658:	a1 fc       	sbrc	r10, 1
    765a:	03 c0       	rjmp	.+6      	; 0x7662 <vfprintf+0x34e>
    765c:	88 e7       	ldi	r24, 0x78	; 120
    765e:	90 e0       	ldi	r25, 0x00	; 0
    7660:	02 c0       	rjmp	.+4      	; 0x7666 <vfprintf+0x352>
    7662:	88 e5       	ldi	r24, 0x58	; 88
    7664:	90 e0       	ldi	r25, 0x00	; 0
    7666:	b6 01       	movw	r22, r12
    7668:	0c c0       	rjmp	.+24     	; 0x7682 <vfprintf+0x36e>
    766a:	8a 2d       	mov	r24, r10
    766c:	86 78       	andi	r24, 0x86	; 134
    766e:	59 f0       	breq	.+22     	; 0x7686 <vfprintf+0x372>
    7670:	a1 fe       	sbrs	r10, 1
    7672:	02 c0       	rjmp	.+4      	; 0x7678 <vfprintf+0x364>
    7674:	8b e2       	ldi	r24, 0x2B	; 43
    7676:	01 c0       	rjmp	.+2      	; 0x767a <vfprintf+0x366>
    7678:	80 e2       	ldi	r24, 0x20	; 32
    767a:	a7 fc       	sbrc	r10, 7
    767c:	8d e2       	ldi	r24, 0x2D	; 45
    767e:	b6 01       	movw	r22, r12
    7680:	90 e0       	ldi	r25, 0x00	; 0
    7682:	0e 94 b3 3d 	call	0x7b66	; 0x7b66 <fputc>
    7686:	89 14       	cp	r8, r9
    7688:	38 f4       	brcc	.+14     	; 0x7698 <vfprintf+0x384>
    768a:	b6 01       	movw	r22, r12
    768c:	80 e3       	ldi	r24, 0x30	; 48
    768e:	90 e0       	ldi	r25, 0x00	; 0
    7690:	0e 94 b3 3d 	call	0x7b66	; 0x7b66 <fputc>
    7694:	9a 94       	dec	r9
    7696:	f7 cf       	rjmp	.-18     	; 0x7686 <vfprintf+0x372>
    7698:	8a 94       	dec	r8
    769a:	f3 01       	movw	r30, r6
    769c:	e8 0d       	add	r30, r8
    769e:	f1 1d       	adc	r31, r1
    76a0:	80 81       	ld	r24, Z
    76a2:	b6 01       	movw	r22, r12
    76a4:	90 e0       	ldi	r25, 0x00	; 0
    76a6:	0e 94 b3 3d 	call	0x7b66	; 0x7b66 <fputc>
    76aa:	81 10       	cpse	r8, r1
    76ac:	f5 cf       	rjmp	.-22     	; 0x7698 <vfprintf+0x384>
    76ae:	22 20       	and	r2, r2
    76b0:	09 f4       	brne	.+2      	; 0x76b4 <vfprintf+0x3a0>
    76b2:	42 ce       	rjmp	.-892    	; 0x7338 <vfprintf+0x24>
    76b4:	b6 01       	movw	r22, r12
    76b6:	80 e2       	ldi	r24, 0x20	; 32
    76b8:	90 e0       	ldi	r25, 0x00	; 0
    76ba:	0e 94 b3 3d 	call	0x7b66	; 0x7b66 <fputc>
    76be:	2a 94       	dec	r2
    76c0:	f6 cf       	rjmp	.-20     	; 0x76ae <vfprintf+0x39a>
    76c2:	f6 01       	movw	r30, r12
    76c4:	86 81       	ldd	r24, Z+6	; 0x06
    76c6:	97 81       	ldd	r25, Z+7	; 0x07
    76c8:	02 c0       	rjmp	.+4      	; 0x76ce <vfprintf+0x3ba>
    76ca:	8f ef       	ldi	r24, 0xFF	; 255
    76cc:	9f ef       	ldi	r25, 0xFF	; 255
    76ce:	2b 96       	adiw	r28, 0x0b	; 11
    76d0:	e2 e1       	ldi	r30, 0x12	; 18
    76d2:	0c 94 0a 3f 	jmp	0x7e14	; 0x7e14 <__epilogue_restores__>

000076d6 <dtoa_prf>:
    76d6:	a9 e0       	ldi	r26, 0x09	; 9
    76d8:	b0 e0       	ldi	r27, 0x00	; 0
    76da:	e1 e7       	ldi	r30, 0x71	; 113
    76dc:	fb e3       	ldi	r31, 0x3B	; 59
    76de:	0c 94 f7 3e 	jmp	0x7dee	; 0x7dee <__prologue_saves__+0xc>
    76e2:	6a 01       	movw	r12, r20
    76e4:	12 2f       	mov	r17, r18
    76e6:	b0 2e       	mov	r11, r16
    76e8:	2b e3       	ldi	r18, 0x3B	; 59
    76ea:	20 17       	cp	r18, r16
    76ec:	20 f0       	brcs	.+8      	; 0x76f6 <dtoa_prf+0x20>
    76ee:	ff 24       	eor	r15, r15
    76f0:	f3 94       	inc	r15
    76f2:	f0 0e       	add	r15, r16
    76f4:	02 c0       	rjmp	.+4      	; 0x76fa <dtoa_prf+0x24>
    76f6:	2c e3       	ldi	r18, 0x3C	; 60
    76f8:	f2 2e       	mov	r15, r18
    76fa:	0f 2d       	mov	r16, r15
    76fc:	27 e0       	ldi	r18, 0x07	; 7
    76fe:	ae 01       	movw	r20, r28
    7700:	4f 5f       	subi	r20, 0xFF	; 255
    7702:	5f 4f       	sbci	r21, 0xFF	; 255
    7704:	0e 94 c5 3c 	call	0x798a	; 0x798a <__ftoa_engine>
    7708:	bc 01       	movw	r22, r24
    770a:	49 81       	ldd	r20, Y+1	; 0x01
    770c:	84 2f       	mov	r24, r20
    770e:	89 70       	andi	r24, 0x09	; 9
    7710:	81 30       	cpi	r24, 0x01	; 1
    7712:	31 f0       	breq	.+12     	; 0x7720 <dtoa_prf+0x4a>
    7714:	e1 fc       	sbrc	r14, 1
    7716:	06 c0       	rjmp	.+12     	; 0x7724 <dtoa_prf+0x4e>
    7718:	e0 fe       	sbrs	r14, 0
    771a:	06 c0       	rjmp	.+12     	; 0x7728 <dtoa_prf+0x52>
    771c:	90 e2       	ldi	r25, 0x20	; 32
    771e:	05 c0       	rjmp	.+10     	; 0x772a <dtoa_prf+0x54>
    7720:	9d e2       	ldi	r25, 0x2D	; 45
    7722:	03 c0       	rjmp	.+6      	; 0x772a <dtoa_prf+0x54>
    7724:	9b e2       	ldi	r25, 0x2B	; 43
    7726:	01 c0       	rjmp	.+2      	; 0x772a <dtoa_prf+0x54>
    7728:	90 e0       	ldi	r25, 0x00	; 0
    772a:	5e 2d       	mov	r21, r14
    772c:	50 71       	andi	r21, 0x10	; 16
    772e:	43 ff       	sbrs	r20, 3
    7730:	3c c0       	rjmp	.+120    	; 0x77aa <dtoa_prf+0xd4>
    7732:	91 11       	cpse	r25, r1
    7734:	02 c0       	rjmp	.+4      	; 0x773a <dtoa_prf+0x64>
    7736:	83 e0       	ldi	r24, 0x03	; 3
    7738:	01 c0       	rjmp	.+2      	; 0x773c <dtoa_prf+0x66>
    773a:	84 e0       	ldi	r24, 0x04	; 4
    773c:	81 17       	cp	r24, r17
    773e:	18 f4       	brcc	.+6      	; 0x7746 <dtoa_prf+0x70>
    7740:	21 2f       	mov	r18, r17
    7742:	28 1b       	sub	r18, r24
    7744:	01 c0       	rjmp	.+2      	; 0x7748 <dtoa_prf+0x72>
    7746:	20 e0       	ldi	r18, 0x00	; 0
    7748:	51 11       	cpse	r21, r1
    774a:	0b c0       	rjmp	.+22     	; 0x7762 <dtoa_prf+0x8c>
    774c:	f6 01       	movw	r30, r12
    774e:	82 2f       	mov	r24, r18
    7750:	30 e2       	ldi	r19, 0x20	; 32
    7752:	88 23       	and	r24, r24
    7754:	19 f0       	breq	.+6      	; 0x775c <dtoa_prf+0x86>
    7756:	31 93       	st	Z+, r19
    7758:	81 50       	subi	r24, 0x01	; 1
    775a:	fb cf       	rjmp	.-10     	; 0x7752 <dtoa_prf+0x7c>
    775c:	c2 0e       	add	r12, r18
    775e:	d1 1c       	adc	r13, r1
    7760:	20 e0       	ldi	r18, 0x00	; 0
    7762:	99 23       	and	r25, r25
    7764:	29 f0       	breq	.+10     	; 0x7770 <dtoa_prf+0x9a>
    7766:	d6 01       	movw	r26, r12
    7768:	9c 93       	st	X, r25
    776a:	f6 01       	movw	r30, r12
    776c:	31 96       	adiw	r30, 0x01	; 1
    776e:	6f 01       	movw	r12, r30
    7770:	c6 01       	movw	r24, r12
    7772:	03 96       	adiw	r24, 0x03	; 3
    7774:	e2 fe       	sbrs	r14, 2
    7776:	0a c0       	rjmp	.+20     	; 0x778c <dtoa_prf+0xb6>
    7778:	3e e4       	ldi	r19, 0x4E	; 78
    777a:	d6 01       	movw	r26, r12
    777c:	3c 93       	st	X, r19
    777e:	41 e4       	ldi	r20, 0x41	; 65
    7780:	11 96       	adiw	r26, 0x01	; 1
    7782:	4c 93       	st	X, r20
    7784:	11 97       	sbiw	r26, 0x01	; 1
    7786:	12 96       	adiw	r26, 0x02	; 2
    7788:	3c 93       	st	X, r19
    778a:	06 c0       	rjmp	.+12     	; 0x7798 <dtoa_prf+0xc2>
    778c:	3e e6       	ldi	r19, 0x6E	; 110
    778e:	f6 01       	movw	r30, r12
    7790:	30 83       	st	Z, r19
    7792:	41 e6       	ldi	r20, 0x61	; 97
    7794:	41 83       	std	Z+1, r20	; 0x01
    7796:	32 83       	std	Z+2, r19	; 0x02
    7798:	fc 01       	movw	r30, r24
    779a:	32 2f       	mov	r19, r18
    779c:	40 e2       	ldi	r20, 0x20	; 32
    779e:	33 23       	and	r19, r19
    77a0:	09 f4       	brne	.+2      	; 0x77a4 <dtoa_prf+0xce>
    77a2:	42 c0       	rjmp	.+132    	; 0x7828 <dtoa_prf+0x152>
    77a4:	41 93       	st	Z+, r20
    77a6:	31 50       	subi	r19, 0x01	; 1
    77a8:	fa cf       	rjmp	.-12     	; 0x779e <dtoa_prf+0xc8>
    77aa:	42 ff       	sbrs	r20, 2
    77ac:	44 c0       	rjmp	.+136    	; 0x7836 <dtoa_prf+0x160>
    77ae:	91 11       	cpse	r25, r1
    77b0:	02 c0       	rjmp	.+4      	; 0x77b6 <dtoa_prf+0xe0>
    77b2:	83 e0       	ldi	r24, 0x03	; 3
    77b4:	01 c0       	rjmp	.+2      	; 0x77b8 <dtoa_prf+0xe2>
    77b6:	84 e0       	ldi	r24, 0x04	; 4
    77b8:	81 17       	cp	r24, r17
    77ba:	18 f4       	brcc	.+6      	; 0x77c2 <dtoa_prf+0xec>
    77bc:	21 2f       	mov	r18, r17
    77be:	28 1b       	sub	r18, r24
    77c0:	01 c0       	rjmp	.+2      	; 0x77c4 <dtoa_prf+0xee>
    77c2:	20 e0       	ldi	r18, 0x00	; 0
    77c4:	51 11       	cpse	r21, r1
    77c6:	0b c0       	rjmp	.+22     	; 0x77de <dtoa_prf+0x108>
    77c8:	f6 01       	movw	r30, r12
    77ca:	82 2f       	mov	r24, r18
    77cc:	30 e2       	ldi	r19, 0x20	; 32
    77ce:	88 23       	and	r24, r24
    77d0:	19 f0       	breq	.+6      	; 0x77d8 <dtoa_prf+0x102>
    77d2:	31 93       	st	Z+, r19
    77d4:	81 50       	subi	r24, 0x01	; 1
    77d6:	fb cf       	rjmp	.-10     	; 0x77ce <dtoa_prf+0xf8>
    77d8:	c2 0e       	add	r12, r18
    77da:	d1 1c       	adc	r13, r1
    77dc:	20 e0       	ldi	r18, 0x00	; 0
    77de:	99 23       	and	r25, r25
    77e0:	29 f0       	breq	.+10     	; 0x77ec <dtoa_prf+0x116>
    77e2:	d6 01       	movw	r26, r12
    77e4:	9c 93       	st	X, r25
    77e6:	f6 01       	movw	r30, r12
    77e8:	31 96       	adiw	r30, 0x01	; 1
    77ea:	6f 01       	movw	r12, r30
    77ec:	c6 01       	movw	r24, r12
    77ee:	03 96       	adiw	r24, 0x03	; 3
    77f0:	e2 fe       	sbrs	r14, 2
    77f2:	0b c0       	rjmp	.+22     	; 0x780a <dtoa_prf+0x134>
    77f4:	39 e4       	ldi	r19, 0x49	; 73
    77f6:	d6 01       	movw	r26, r12
    77f8:	3c 93       	st	X, r19
    77fa:	3e e4       	ldi	r19, 0x4E	; 78
    77fc:	11 96       	adiw	r26, 0x01	; 1
    77fe:	3c 93       	st	X, r19
    7800:	11 97       	sbiw	r26, 0x01	; 1
    7802:	36 e4       	ldi	r19, 0x46	; 70
    7804:	12 96       	adiw	r26, 0x02	; 2
    7806:	3c 93       	st	X, r19
    7808:	07 c0       	rjmp	.+14     	; 0x7818 <dtoa_prf+0x142>
    780a:	39 e6       	ldi	r19, 0x69	; 105
    780c:	f6 01       	movw	r30, r12
    780e:	30 83       	st	Z, r19
    7810:	3e e6       	ldi	r19, 0x6E	; 110
    7812:	31 83       	std	Z+1, r19	; 0x01
    7814:	36 e6       	ldi	r19, 0x66	; 102
    7816:	32 83       	std	Z+2, r19	; 0x02
    7818:	fc 01       	movw	r30, r24
    781a:	32 2f       	mov	r19, r18
    781c:	40 e2       	ldi	r20, 0x20	; 32
    781e:	33 23       	and	r19, r19
    7820:	19 f0       	breq	.+6      	; 0x7828 <dtoa_prf+0x152>
    7822:	41 93       	st	Z+, r20
    7824:	31 50       	subi	r19, 0x01	; 1
    7826:	fb cf       	rjmp	.-10     	; 0x781e <dtoa_prf+0x148>
    7828:	fc 01       	movw	r30, r24
    782a:	e2 0f       	add	r30, r18
    782c:	f1 1d       	adc	r31, r1
    782e:	10 82       	st	Z, r1
    7830:	8e ef       	ldi	r24, 0xFE	; 254
    7832:	9f ef       	ldi	r25, 0xFF	; 255
    7834:	a6 c0       	rjmp	.+332    	; 0x7982 <dtoa_prf+0x2ac>
    7836:	21 e0       	ldi	r18, 0x01	; 1
    7838:	30 e0       	ldi	r19, 0x00	; 0
    783a:	91 11       	cpse	r25, r1
    783c:	02 c0       	rjmp	.+4      	; 0x7842 <dtoa_prf+0x16c>
    783e:	20 e0       	ldi	r18, 0x00	; 0
    7840:	30 e0       	ldi	r19, 0x00	; 0
    7842:	16 16       	cp	r1, r22
    7844:	17 06       	cpc	r1, r23
    7846:	1c f4       	brge	.+6      	; 0x784e <dtoa_prf+0x178>
    7848:	fb 01       	movw	r30, r22
    784a:	31 96       	adiw	r30, 0x01	; 1
    784c:	02 c0       	rjmp	.+4      	; 0x7852 <dtoa_prf+0x17c>
    784e:	e1 e0       	ldi	r30, 0x01	; 1
    7850:	f0 e0       	ldi	r31, 0x00	; 0
    7852:	2e 0f       	add	r18, r30
    7854:	3f 1f       	adc	r19, r31
    7856:	bb 20       	and	r11, r11
    7858:	21 f0       	breq	.+8      	; 0x7862 <dtoa_prf+0x18c>
    785a:	eb 2d       	mov	r30, r11
    785c:	f0 e0       	ldi	r31, 0x00	; 0
    785e:	31 96       	adiw	r30, 0x01	; 1
    7860:	02 c0       	rjmp	.+4      	; 0x7866 <dtoa_prf+0x190>
    7862:	e0 e0       	ldi	r30, 0x00	; 0
    7864:	f0 e0       	ldi	r31, 0x00	; 0
    7866:	2e 0f       	add	r18, r30
    7868:	3f 1f       	adc	r19, r31
    786a:	e1 2f       	mov	r30, r17
    786c:	f0 e0       	ldi	r31, 0x00	; 0
    786e:	2e 17       	cp	r18, r30
    7870:	3f 07       	cpc	r19, r31
    7872:	1c f4       	brge	.+6      	; 0x787a <dtoa_prf+0x1a4>
    7874:	12 1b       	sub	r17, r18
    7876:	21 2f       	mov	r18, r17
    7878:	01 c0       	rjmp	.+2      	; 0x787c <dtoa_prf+0x1a6>
    787a:	20 e0       	ldi	r18, 0x00	; 0
    787c:	8e 2d       	mov	r24, r14
    787e:	88 71       	andi	r24, 0x18	; 24
    7880:	59 f4       	brne	.+22     	; 0x7898 <dtoa_prf+0x1c2>
    7882:	f6 01       	movw	r30, r12
    7884:	82 2f       	mov	r24, r18
    7886:	30 e2       	ldi	r19, 0x20	; 32
    7888:	88 23       	and	r24, r24
    788a:	19 f0       	breq	.+6      	; 0x7892 <dtoa_prf+0x1bc>
    788c:	31 93       	st	Z+, r19
    788e:	81 50       	subi	r24, 0x01	; 1
    7890:	fb cf       	rjmp	.-10     	; 0x7888 <dtoa_prf+0x1b2>
    7892:	c2 0e       	add	r12, r18
    7894:	d1 1c       	adc	r13, r1
    7896:	20 e0       	ldi	r18, 0x00	; 0
    7898:	99 23       	and	r25, r25
    789a:	29 f0       	breq	.+10     	; 0x78a6 <dtoa_prf+0x1d0>
    789c:	d6 01       	movw	r26, r12
    789e:	9c 93       	st	X, r25
    78a0:	f6 01       	movw	r30, r12
    78a2:	31 96       	adiw	r30, 0x01	; 1
    78a4:	6f 01       	movw	r12, r30
    78a6:	51 11       	cpse	r21, r1
    78a8:	0b c0       	rjmp	.+22     	; 0x78c0 <dtoa_prf+0x1ea>
    78aa:	f6 01       	movw	r30, r12
    78ac:	82 2f       	mov	r24, r18
    78ae:	90 e3       	ldi	r25, 0x30	; 48
    78b0:	88 23       	and	r24, r24
    78b2:	19 f0       	breq	.+6      	; 0x78ba <dtoa_prf+0x1e4>
    78b4:	91 93       	st	Z+, r25
    78b6:	81 50       	subi	r24, 0x01	; 1
    78b8:	fb cf       	rjmp	.-10     	; 0x78b0 <dtoa_prf+0x1da>
    78ba:	c2 0e       	add	r12, r18
    78bc:	d1 1c       	adc	r13, r1
    78be:	20 e0       	ldi	r18, 0x00	; 0
    78c0:	0f 2d       	mov	r16, r15
    78c2:	06 0f       	add	r16, r22
    78c4:	9a 81       	ldd	r25, Y+2	; 0x02
    78c6:	34 2f       	mov	r19, r20
    78c8:	30 71       	andi	r19, 0x10	; 16
    78ca:	44 ff       	sbrs	r20, 4
    78cc:	03 c0       	rjmp	.+6      	; 0x78d4 <dtoa_prf+0x1fe>
    78ce:	91 33       	cpi	r25, 0x31	; 49
    78d0:	09 f4       	brne	.+2      	; 0x78d4 <dtoa_prf+0x1fe>
    78d2:	01 50       	subi	r16, 0x01	; 1
    78d4:	10 16       	cp	r1, r16
    78d6:	24 f4       	brge	.+8      	; 0x78e0 <dtoa_prf+0x20a>
    78d8:	09 30       	cpi	r16, 0x09	; 9
    78da:	18 f0       	brcs	.+6      	; 0x78e2 <dtoa_prf+0x20c>
    78dc:	08 e0       	ldi	r16, 0x08	; 8
    78de:	01 c0       	rjmp	.+2      	; 0x78e2 <dtoa_prf+0x20c>
    78e0:	01 e0       	ldi	r16, 0x01	; 1
    78e2:	ab 01       	movw	r20, r22
    78e4:	77 ff       	sbrs	r23, 7
    78e6:	02 c0       	rjmp	.+4      	; 0x78ec <dtoa_prf+0x216>
    78e8:	40 e0       	ldi	r20, 0x00	; 0
    78ea:	50 e0       	ldi	r21, 0x00	; 0
    78ec:	fb 01       	movw	r30, r22
    78ee:	e4 1b       	sub	r30, r20
    78f0:	f5 0b       	sbc	r31, r21
    78f2:	a1 e0       	ldi	r26, 0x01	; 1
    78f4:	b0 e0       	ldi	r27, 0x00	; 0
    78f6:	ac 0f       	add	r26, r28
    78f8:	bd 1f       	adc	r27, r29
    78fa:	ea 0f       	add	r30, r26
    78fc:	fb 1f       	adc	r31, r27
    78fe:	8e e2       	ldi	r24, 0x2E	; 46
    7900:	a8 2e       	mov	r10, r24
    7902:	4b 01       	movw	r8, r22
    7904:	80 1a       	sub	r8, r16
    7906:	91 08       	sbc	r9, r1
    7908:	0b 2d       	mov	r16, r11
    790a:	10 e0       	ldi	r17, 0x00	; 0
    790c:	11 95       	neg	r17
    790e:	01 95       	neg	r16
    7910:	11 09       	sbc	r17, r1
    7912:	4f 3f       	cpi	r20, 0xFF	; 255
    7914:	bf ef       	ldi	r27, 0xFF	; 255
    7916:	5b 07       	cpc	r21, r27
    7918:	21 f4       	brne	.+8      	; 0x7922 <dtoa_prf+0x24c>
    791a:	d6 01       	movw	r26, r12
    791c:	ac 92       	st	X, r10
    791e:	11 96       	adiw	r26, 0x01	; 1
    7920:	6d 01       	movw	r12, r26
    7922:	64 17       	cp	r22, r20
    7924:	75 07       	cpc	r23, r21
    7926:	2c f0       	brlt	.+10     	; 0x7932 <dtoa_prf+0x25c>
    7928:	84 16       	cp	r8, r20
    792a:	95 06       	cpc	r9, r21
    792c:	14 f4       	brge	.+4      	; 0x7932 <dtoa_prf+0x25c>
    792e:	81 81       	ldd	r24, Z+1	; 0x01
    7930:	01 c0       	rjmp	.+2      	; 0x7934 <dtoa_prf+0x25e>
    7932:	80 e3       	ldi	r24, 0x30	; 48
    7934:	41 50       	subi	r20, 0x01	; 1
    7936:	51 09       	sbc	r21, r1
    7938:	31 96       	adiw	r30, 0x01	; 1
    793a:	d6 01       	movw	r26, r12
    793c:	11 96       	adiw	r26, 0x01	; 1
    793e:	7d 01       	movw	r14, r26
    7940:	40 17       	cp	r20, r16
    7942:	51 07       	cpc	r21, r17
    7944:	24 f0       	brlt	.+8      	; 0x794e <dtoa_prf+0x278>
    7946:	d6 01       	movw	r26, r12
    7948:	8c 93       	st	X, r24
    794a:	67 01       	movw	r12, r14
    794c:	e2 cf       	rjmp	.-60     	; 0x7912 <dtoa_prf+0x23c>
    794e:	64 17       	cp	r22, r20
    7950:	75 07       	cpc	r23, r21
    7952:	39 f4       	brne	.+14     	; 0x7962 <dtoa_prf+0x28c>
    7954:	96 33       	cpi	r25, 0x36	; 54
    7956:	20 f4       	brcc	.+8      	; 0x7960 <dtoa_prf+0x28a>
    7958:	95 33       	cpi	r25, 0x35	; 53
    795a:	19 f4       	brne	.+6      	; 0x7962 <dtoa_prf+0x28c>
    795c:	31 11       	cpse	r19, r1
    795e:	01 c0       	rjmp	.+2      	; 0x7962 <dtoa_prf+0x28c>
    7960:	81 e3       	ldi	r24, 0x31	; 49
    7962:	f6 01       	movw	r30, r12
    7964:	80 83       	st	Z, r24
    7966:	f7 01       	movw	r30, r14
    7968:	82 2f       	mov	r24, r18
    796a:	90 e2       	ldi	r25, 0x20	; 32
    796c:	88 23       	and	r24, r24
    796e:	19 f0       	breq	.+6      	; 0x7976 <dtoa_prf+0x2a0>
    7970:	91 93       	st	Z+, r25
    7972:	81 50       	subi	r24, 0x01	; 1
    7974:	fb cf       	rjmp	.-10     	; 0x796c <dtoa_prf+0x296>
    7976:	f7 01       	movw	r30, r14
    7978:	e2 0f       	add	r30, r18
    797a:	f1 1d       	adc	r31, r1
    797c:	10 82       	st	Z, r1
    797e:	80 e0       	ldi	r24, 0x00	; 0
    7980:	90 e0       	ldi	r25, 0x00	; 0
    7982:	29 96       	adiw	r28, 0x09	; 9
    7984:	ec e0       	ldi	r30, 0x0C	; 12
    7986:	0c 94 10 3f 	jmp	0x7e20	; 0x7e20 <__epilogue_restores__+0xc>

0000798a <__ftoa_engine>:
    798a:	28 30       	cpi	r18, 0x08	; 8
    798c:	08 f0       	brcs	.+2      	; 0x7990 <__ftoa_engine+0x6>
    798e:	27 e0       	ldi	r18, 0x07	; 7
    7990:	33 27       	eor	r19, r19
    7992:	da 01       	movw	r26, r20
    7994:	99 0f       	add	r25, r25
    7996:	31 1d       	adc	r19, r1
    7998:	87 fd       	sbrc	r24, 7
    799a:	91 60       	ori	r25, 0x01	; 1
    799c:	00 96       	adiw	r24, 0x00	; 0
    799e:	61 05       	cpc	r22, r1
    79a0:	71 05       	cpc	r23, r1
    79a2:	39 f4       	brne	.+14     	; 0x79b2 <__ftoa_engine+0x28>
    79a4:	32 60       	ori	r19, 0x02	; 2
    79a6:	2e 5f       	subi	r18, 0xFE	; 254
    79a8:	3d 93       	st	X+, r19
    79aa:	30 e3       	ldi	r19, 0x30	; 48
    79ac:	2a 95       	dec	r18
    79ae:	e1 f7       	brne	.-8      	; 0x79a8 <__ftoa_engine+0x1e>
    79b0:	08 95       	ret
    79b2:	9f 3f       	cpi	r25, 0xFF	; 255
    79b4:	30 f0       	brcs	.+12     	; 0x79c2 <__ftoa_engine+0x38>
    79b6:	80 38       	cpi	r24, 0x80	; 128
    79b8:	71 05       	cpc	r23, r1
    79ba:	61 05       	cpc	r22, r1
    79bc:	09 f0       	breq	.+2      	; 0x79c0 <__ftoa_engine+0x36>
    79be:	3c 5f       	subi	r19, 0xFC	; 252
    79c0:	3c 5f       	subi	r19, 0xFC	; 252
    79c2:	3d 93       	st	X+, r19
    79c4:	91 30       	cpi	r25, 0x01	; 1
    79c6:	08 f0       	brcs	.+2      	; 0x79ca <__ftoa_engine+0x40>
    79c8:	80 68       	ori	r24, 0x80	; 128
    79ca:	91 1d       	adc	r25, r1
    79cc:	df 93       	push	r29
    79ce:	cf 93       	push	r28
    79d0:	1f 93       	push	r17
    79d2:	0f 93       	push	r16
    79d4:	ff 92       	push	r15
    79d6:	ef 92       	push	r14
    79d8:	19 2f       	mov	r17, r25
    79da:	98 7f       	andi	r25, 0xF8	; 248
    79dc:	96 95       	lsr	r25
    79de:	e9 2f       	mov	r30, r25
    79e0:	96 95       	lsr	r25
    79e2:	96 95       	lsr	r25
    79e4:	e9 0f       	add	r30, r25
    79e6:	ff 27       	eor	r31, r31
    79e8:	e0 50       	subi	r30, 0x00	; 0
    79ea:	fe 4f       	sbci	r31, 0xFE	; 254
    79ec:	99 27       	eor	r25, r25
    79ee:	33 27       	eor	r19, r19
    79f0:	ee 24       	eor	r14, r14
    79f2:	ff 24       	eor	r15, r15
    79f4:	a7 01       	movw	r20, r14
    79f6:	e7 01       	movw	r28, r14
    79f8:	05 90       	lpm	r0, Z+
    79fa:	08 94       	sec
    79fc:	07 94       	ror	r0
    79fe:	28 f4       	brcc	.+10     	; 0x7a0a <__ftoa_engine+0x80>
    7a00:	36 0f       	add	r19, r22
    7a02:	e7 1e       	adc	r14, r23
    7a04:	f8 1e       	adc	r15, r24
    7a06:	49 1f       	adc	r20, r25
    7a08:	51 1d       	adc	r21, r1
    7a0a:	66 0f       	add	r22, r22
    7a0c:	77 1f       	adc	r23, r23
    7a0e:	88 1f       	adc	r24, r24
    7a10:	99 1f       	adc	r25, r25
    7a12:	06 94       	lsr	r0
    7a14:	a1 f7       	brne	.-24     	; 0x79fe <__ftoa_engine+0x74>
    7a16:	05 90       	lpm	r0, Z+
    7a18:	07 94       	ror	r0
    7a1a:	28 f4       	brcc	.+10     	; 0x7a26 <__ftoa_engine+0x9c>
    7a1c:	e7 0e       	add	r14, r23
    7a1e:	f8 1e       	adc	r15, r24
    7a20:	49 1f       	adc	r20, r25
    7a22:	56 1f       	adc	r21, r22
    7a24:	c1 1d       	adc	r28, r1
    7a26:	77 0f       	add	r23, r23
    7a28:	88 1f       	adc	r24, r24
    7a2a:	99 1f       	adc	r25, r25
    7a2c:	66 1f       	adc	r22, r22
    7a2e:	06 94       	lsr	r0
    7a30:	a1 f7       	brne	.-24     	; 0x7a1a <__ftoa_engine+0x90>
    7a32:	05 90       	lpm	r0, Z+
    7a34:	07 94       	ror	r0
    7a36:	28 f4       	brcc	.+10     	; 0x7a42 <__ftoa_engine+0xb8>
    7a38:	f8 0e       	add	r15, r24
    7a3a:	49 1f       	adc	r20, r25
    7a3c:	56 1f       	adc	r21, r22
    7a3e:	c7 1f       	adc	r28, r23
    7a40:	d1 1d       	adc	r29, r1
    7a42:	88 0f       	add	r24, r24
    7a44:	99 1f       	adc	r25, r25
    7a46:	66 1f       	adc	r22, r22
    7a48:	77 1f       	adc	r23, r23
    7a4a:	06 94       	lsr	r0
    7a4c:	a1 f7       	brne	.-24     	; 0x7a36 <__ftoa_engine+0xac>
    7a4e:	05 90       	lpm	r0, Z+
    7a50:	07 94       	ror	r0
    7a52:	20 f4       	brcc	.+8      	; 0x7a5c <__ftoa_engine+0xd2>
    7a54:	49 0f       	add	r20, r25
    7a56:	56 1f       	adc	r21, r22
    7a58:	c7 1f       	adc	r28, r23
    7a5a:	d8 1f       	adc	r29, r24
    7a5c:	99 0f       	add	r25, r25
    7a5e:	66 1f       	adc	r22, r22
    7a60:	77 1f       	adc	r23, r23
    7a62:	88 1f       	adc	r24, r24
    7a64:	06 94       	lsr	r0
    7a66:	a9 f7       	brne	.-22     	; 0x7a52 <__ftoa_engine+0xc8>
    7a68:	84 91       	lpm	r24, Z
    7a6a:	10 95       	com	r17
    7a6c:	17 70       	andi	r17, 0x07	; 7
    7a6e:	41 f0       	breq	.+16     	; 0x7a80 <__ftoa_engine+0xf6>
    7a70:	d6 95       	lsr	r29
    7a72:	c7 95       	ror	r28
    7a74:	57 95       	ror	r21
    7a76:	47 95       	ror	r20
    7a78:	f7 94       	ror	r15
    7a7a:	e7 94       	ror	r14
    7a7c:	1a 95       	dec	r17
    7a7e:	c1 f7       	brne	.-16     	; 0x7a70 <__ftoa_engine+0xe6>
    7a80:	e6 ea       	ldi	r30, 0xA6	; 166
    7a82:	f1 e0       	ldi	r31, 0x01	; 1
    7a84:	68 94       	set
    7a86:	15 90       	lpm	r1, Z+
    7a88:	15 91       	lpm	r17, Z+
    7a8a:	35 91       	lpm	r19, Z+
    7a8c:	65 91       	lpm	r22, Z+
    7a8e:	95 91       	lpm	r25, Z+
    7a90:	05 90       	lpm	r0, Z+
    7a92:	7f e2       	ldi	r23, 0x2F	; 47
    7a94:	73 95       	inc	r23
    7a96:	e1 18       	sub	r14, r1
    7a98:	f1 0a       	sbc	r15, r17
    7a9a:	43 0b       	sbc	r20, r19
    7a9c:	56 0b       	sbc	r21, r22
    7a9e:	c9 0b       	sbc	r28, r25
    7aa0:	d0 09       	sbc	r29, r0
    7aa2:	c0 f7       	brcc	.-16     	; 0x7a94 <__ftoa_engine+0x10a>
    7aa4:	e1 0c       	add	r14, r1
    7aa6:	f1 1e       	adc	r15, r17
    7aa8:	43 1f       	adc	r20, r19
    7aaa:	56 1f       	adc	r21, r22
    7aac:	c9 1f       	adc	r28, r25
    7aae:	d0 1d       	adc	r29, r0
    7ab0:	7e f4       	brtc	.+30     	; 0x7ad0 <__ftoa_engine+0x146>
    7ab2:	70 33       	cpi	r23, 0x30	; 48
    7ab4:	11 f4       	brne	.+4      	; 0x7aba <__ftoa_engine+0x130>
    7ab6:	8a 95       	dec	r24
    7ab8:	e6 cf       	rjmp	.-52     	; 0x7a86 <__ftoa_engine+0xfc>
    7aba:	e8 94       	clt
    7abc:	01 50       	subi	r16, 0x01	; 1
    7abe:	30 f0       	brcs	.+12     	; 0x7acc <__ftoa_engine+0x142>
    7ac0:	08 0f       	add	r16, r24
    7ac2:	0a f4       	brpl	.+2      	; 0x7ac6 <__ftoa_engine+0x13c>
    7ac4:	00 27       	eor	r16, r16
    7ac6:	02 17       	cp	r16, r18
    7ac8:	08 f4       	brcc	.+2      	; 0x7acc <__ftoa_engine+0x142>
    7aca:	20 2f       	mov	r18, r16
    7acc:	23 95       	inc	r18
    7ace:	02 2f       	mov	r16, r18
    7ad0:	7a 33       	cpi	r23, 0x3A	; 58
    7ad2:	28 f0       	brcs	.+10     	; 0x7ade <__ftoa_engine+0x154>
    7ad4:	79 e3       	ldi	r23, 0x39	; 57
    7ad6:	7d 93       	st	X+, r23
    7ad8:	2a 95       	dec	r18
    7ada:	e9 f7       	brne	.-6      	; 0x7ad6 <__ftoa_engine+0x14c>
    7adc:	10 c0       	rjmp	.+32     	; 0x7afe <__ftoa_engine+0x174>
    7ade:	7d 93       	st	X+, r23
    7ae0:	2a 95       	dec	r18
    7ae2:	89 f6       	brne	.-94     	; 0x7a86 <__ftoa_engine+0xfc>
    7ae4:	06 94       	lsr	r0
    7ae6:	97 95       	ror	r25
    7ae8:	67 95       	ror	r22
    7aea:	37 95       	ror	r19
    7aec:	17 95       	ror	r17
    7aee:	17 94       	ror	r1
    7af0:	e1 18       	sub	r14, r1
    7af2:	f1 0a       	sbc	r15, r17
    7af4:	43 0b       	sbc	r20, r19
    7af6:	56 0b       	sbc	r21, r22
    7af8:	c9 0b       	sbc	r28, r25
    7afa:	d0 09       	sbc	r29, r0
    7afc:	98 f0       	brcs	.+38     	; 0x7b24 <__ftoa_engine+0x19a>
    7afe:	23 95       	inc	r18
    7b00:	7e 91       	ld	r23, -X
    7b02:	73 95       	inc	r23
    7b04:	7a 33       	cpi	r23, 0x3A	; 58
    7b06:	08 f0       	brcs	.+2      	; 0x7b0a <__ftoa_engine+0x180>
    7b08:	70 e3       	ldi	r23, 0x30	; 48
    7b0a:	7c 93       	st	X, r23
    7b0c:	20 13       	cpse	r18, r16
    7b0e:	b8 f7       	brcc	.-18     	; 0x7afe <__ftoa_engine+0x174>
    7b10:	7e 91       	ld	r23, -X
    7b12:	70 61       	ori	r23, 0x10	; 16
    7b14:	7d 93       	st	X+, r23
    7b16:	30 f0       	brcs	.+12     	; 0x7b24 <__ftoa_engine+0x19a>
    7b18:	83 95       	inc	r24
    7b1a:	71 e3       	ldi	r23, 0x31	; 49
    7b1c:	7d 93       	st	X+, r23
    7b1e:	70 e3       	ldi	r23, 0x30	; 48
    7b20:	2a 95       	dec	r18
    7b22:	e1 f7       	brne	.-8      	; 0x7b1c <__ftoa_engine+0x192>
    7b24:	11 24       	eor	r1, r1
    7b26:	ef 90       	pop	r14
    7b28:	ff 90       	pop	r15
    7b2a:	0f 91       	pop	r16
    7b2c:	1f 91       	pop	r17
    7b2e:	cf 91       	pop	r28
    7b30:	df 91       	pop	r29
    7b32:	99 27       	eor	r25, r25
    7b34:	87 fd       	sbrc	r24, 7
    7b36:	90 95       	com	r25
    7b38:	08 95       	ret

00007b3a <strnlen_P>:
    7b3a:	fc 01       	movw	r30, r24
    7b3c:	05 90       	lpm	r0, Z+
    7b3e:	61 50       	subi	r22, 0x01	; 1
    7b40:	70 40       	sbci	r23, 0x00	; 0
    7b42:	01 10       	cpse	r0, r1
    7b44:	d8 f7       	brcc	.-10     	; 0x7b3c <strnlen_P+0x2>
    7b46:	80 95       	com	r24
    7b48:	90 95       	com	r25
    7b4a:	8e 0f       	add	r24, r30
    7b4c:	9f 1f       	adc	r25, r31
    7b4e:	08 95       	ret

00007b50 <strnlen>:
    7b50:	fc 01       	movw	r30, r24
    7b52:	61 50       	subi	r22, 0x01	; 1
    7b54:	70 40       	sbci	r23, 0x00	; 0
    7b56:	01 90       	ld	r0, Z+
    7b58:	01 10       	cpse	r0, r1
    7b5a:	d8 f7       	brcc	.-10     	; 0x7b52 <strnlen+0x2>
    7b5c:	80 95       	com	r24
    7b5e:	90 95       	com	r25
    7b60:	8e 0f       	add	r24, r30
    7b62:	9f 1f       	adc	r25, r31
    7b64:	08 95       	ret

00007b66 <fputc>:
    7b66:	0f 93       	push	r16
    7b68:	1f 93       	push	r17
    7b6a:	cf 93       	push	r28
    7b6c:	df 93       	push	r29
    7b6e:	fb 01       	movw	r30, r22
    7b70:	23 81       	ldd	r18, Z+3	; 0x03
    7b72:	21 fd       	sbrc	r18, 1
    7b74:	03 c0       	rjmp	.+6      	; 0x7b7c <fputc+0x16>
    7b76:	8f ef       	ldi	r24, 0xFF	; 255
    7b78:	9f ef       	ldi	r25, 0xFF	; 255
    7b7a:	2c c0       	rjmp	.+88     	; 0x7bd4 <fputc+0x6e>
    7b7c:	22 ff       	sbrs	r18, 2
    7b7e:	16 c0       	rjmp	.+44     	; 0x7bac <fputc+0x46>
    7b80:	46 81       	ldd	r20, Z+6	; 0x06
    7b82:	57 81       	ldd	r21, Z+7	; 0x07
    7b84:	24 81       	ldd	r18, Z+4	; 0x04
    7b86:	35 81       	ldd	r19, Z+5	; 0x05
    7b88:	42 17       	cp	r20, r18
    7b8a:	53 07       	cpc	r21, r19
    7b8c:	44 f4       	brge	.+16     	; 0x7b9e <fputc+0x38>
    7b8e:	a0 81       	ld	r26, Z
    7b90:	b1 81       	ldd	r27, Z+1	; 0x01
    7b92:	9d 01       	movw	r18, r26
    7b94:	2f 5f       	subi	r18, 0xFF	; 255
    7b96:	3f 4f       	sbci	r19, 0xFF	; 255
    7b98:	20 83       	st	Z, r18
    7b9a:	31 83       	std	Z+1, r19	; 0x01
    7b9c:	8c 93       	st	X, r24
    7b9e:	26 81       	ldd	r18, Z+6	; 0x06
    7ba0:	37 81       	ldd	r19, Z+7	; 0x07
    7ba2:	2f 5f       	subi	r18, 0xFF	; 255
    7ba4:	3f 4f       	sbci	r19, 0xFF	; 255
    7ba6:	26 83       	std	Z+6, r18	; 0x06
    7ba8:	37 83       	std	Z+7, r19	; 0x07
    7baa:	14 c0       	rjmp	.+40     	; 0x7bd4 <fputc+0x6e>
    7bac:	8b 01       	movw	r16, r22
    7bae:	ec 01       	movw	r28, r24
    7bb0:	fb 01       	movw	r30, r22
    7bb2:	00 84       	ldd	r0, Z+8	; 0x08
    7bb4:	f1 85       	ldd	r31, Z+9	; 0x09
    7bb6:	e0 2d       	mov	r30, r0
    7bb8:	09 95       	icall
    7bba:	89 2b       	or	r24, r25
    7bbc:	e1 f6       	brne	.-72     	; 0x7b76 <fputc+0x10>
    7bbe:	d8 01       	movw	r26, r16
    7bc0:	16 96       	adiw	r26, 0x06	; 6
    7bc2:	8d 91       	ld	r24, X+
    7bc4:	9c 91       	ld	r25, X
    7bc6:	17 97       	sbiw	r26, 0x07	; 7
    7bc8:	01 96       	adiw	r24, 0x01	; 1
    7bca:	16 96       	adiw	r26, 0x06	; 6
    7bcc:	8d 93       	st	X+, r24
    7bce:	9c 93       	st	X, r25
    7bd0:	17 97       	sbiw	r26, 0x07	; 7
    7bd2:	ce 01       	movw	r24, r28
    7bd4:	df 91       	pop	r29
    7bd6:	cf 91       	pop	r28
    7bd8:	1f 91       	pop	r17
    7bda:	0f 91       	pop	r16
    7bdc:	08 95       	ret

00007bde <__ultoa_invert>:
    7bde:	fa 01       	movw	r30, r20
    7be0:	aa 27       	eor	r26, r26
    7be2:	28 30       	cpi	r18, 0x08	; 8
    7be4:	51 f1       	breq	.+84     	; 0x7c3a <__ultoa_invert+0x5c>
    7be6:	20 31       	cpi	r18, 0x10	; 16
    7be8:	81 f1       	breq	.+96     	; 0x7c4a <__ultoa_invert+0x6c>
    7bea:	e8 94       	clt
    7bec:	6f 93       	push	r22
    7bee:	6e 7f       	andi	r22, 0xFE	; 254
    7bf0:	6e 5f       	subi	r22, 0xFE	; 254
    7bf2:	7f 4f       	sbci	r23, 0xFF	; 255
    7bf4:	8f 4f       	sbci	r24, 0xFF	; 255
    7bf6:	9f 4f       	sbci	r25, 0xFF	; 255
    7bf8:	af 4f       	sbci	r26, 0xFF	; 255
    7bfa:	b1 e0       	ldi	r27, 0x01	; 1
    7bfc:	3e d0       	rcall	.+124    	; 0x7c7a <__ultoa_invert+0x9c>
    7bfe:	b4 e0       	ldi	r27, 0x04	; 4
    7c00:	3c d0       	rcall	.+120    	; 0x7c7a <__ultoa_invert+0x9c>
    7c02:	67 0f       	add	r22, r23
    7c04:	78 1f       	adc	r23, r24
    7c06:	89 1f       	adc	r24, r25
    7c08:	9a 1f       	adc	r25, r26
    7c0a:	a1 1d       	adc	r26, r1
    7c0c:	68 0f       	add	r22, r24
    7c0e:	79 1f       	adc	r23, r25
    7c10:	8a 1f       	adc	r24, r26
    7c12:	91 1d       	adc	r25, r1
    7c14:	a1 1d       	adc	r26, r1
    7c16:	6a 0f       	add	r22, r26
    7c18:	71 1d       	adc	r23, r1
    7c1a:	81 1d       	adc	r24, r1
    7c1c:	91 1d       	adc	r25, r1
    7c1e:	a1 1d       	adc	r26, r1
    7c20:	20 d0       	rcall	.+64     	; 0x7c62 <__ultoa_invert+0x84>
    7c22:	09 f4       	brne	.+2      	; 0x7c26 <__ultoa_invert+0x48>
    7c24:	68 94       	set
    7c26:	3f 91       	pop	r19
    7c28:	2a e0       	ldi	r18, 0x0A	; 10
    7c2a:	26 9f       	mul	r18, r22
    7c2c:	11 24       	eor	r1, r1
    7c2e:	30 19       	sub	r19, r0
    7c30:	30 5d       	subi	r19, 0xD0	; 208
    7c32:	31 93       	st	Z+, r19
    7c34:	de f6       	brtc	.-74     	; 0x7bec <__ultoa_invert+0xe>
    7c36:	cf 01       	movw	r24, r30
    7c38:	08 95       	ret
    7c3a:	46 2f       	mov	r20, r22
    7c3c:	47 70       	andi	r20, 0x07	; 7
    7c3e:	40 5d       	subi	r20, 0xD0	; 208
    7c40:	41 93       	st	Z+, r20
    7c42:	b3 e0       	ldi	r27, 0x03	; 3
    7c44:	0f d0       	rcall	.+30     	; 0x7c64 <__ultoa_invert+0x86>
    7c46:	c9 f7       	brne	.-14     	; 0x7c3a <__ultoa_invert+0x5c>
    7c48:	f6 cf       	rjmp	.-20     	; 0x7c36 <__ultoa_invert+0x58>
    7c4a:	46 2f       	mov	r20, r22
    7c4c:	4f 70       	andi	r20, 0x0F	; 15
    7c4e:	40 5d       	subi	r20, 0xD0	; 208
    7c50:	4a 33       	cpi	r20, 0x3A	; 58
    7c52:	18 f0       	brcs	.+6      	; 0x7c5a <__ultoa_invert+0x7c>
    7c54:	49 5d       	subi	r20, 0xD9	; 217
    7c56:	31 fd       	sbrc	r19, 1
    7c58:	40 52       	subi	r20, 0x20	; 32
    7c5a:	41 93       	st	Z+, r20
    7c5c:	02 d0       	rcall	.+4      	; 0x7c62 <__ultoa_invert+0x84>
    7c5e:	a9 f7       	brne	.-22     	; 0x7c4a <__ultoa_invert+0x6c>
    7c60:	ea cf       	rjmp	.-44     	; 0x7c36 <__ultoa_invert+0x58>
    7c62:	b4 e0       	ldi	r27, 0x04	; 4
    7c64:	a6 95       	lsr	r26
    7c66:	97 95       	ror	r25
    7c68:	87 95       	ror	r24
    7c6a:	77 95       	ror	r23
    7c6c:	67 95       	ror	r22
    7c6e:	ba 95       	dec	r27
    7c70:	c9 f7       	brne	.-14     	; 0x7c64 <__ultoa_invert+0x86>
    7c72:	00 97       	sbiw	r24, 0x00	; 0
    7c74:	61 05       	cpc	r22, r1
    7c76:	71 05       	cpc	r23, r1
    7c78:	08 95       	ret
    7c7a:	9b 01       	movw	r18, r22
    7c7c:	ac 01       	movw	r20, r24
    7c7e:	0a 2e       	mov	r0, r26
    7c80:	06 94       	lsr	r0
    7c82:	57 95       	ror	r21
    7c84:	47 95       	ror	r20
    7c86:	37 95       	ror	r19
    7c88:	27 95       	ror	r18
    7c8a:	ba 95       	dec	r27
    7c8c:	c9 f7       	brne	.-14     	; 0x7c80 <__ultoa_invert+0xa2>
    7c8e:	62 0f       	add	r22, r18
    7c90:	73 1f       	adc	r23, r19
    7c92:	84 1f       	adc	r24, r20
    7c94:	95 1f       	adc	r25, r21
    7c96:	a0 1d       	adc	r26, r0
    7c98:	08 95       	ret

00007c9a <eeprom_read_block>:
    7c9a:	60 50       	subi	r22, 0x00	; 0
    7c9c:	7c 4e       	sbci	r23, 0xEC	; 236
    7c9e:	0c 94 22 3f 	jmp	0x7e44	; 0x7e44 <memcpy>

00007ca2 <eeprom_read_byte>:
    7ca2:	03 d0       	rcall	.+6      	; 0x7caa <eeprom_mapen>
    7ca4:	80 81       	ld	r24, Z
    7ca6:	99 27       	eor	r25, r25
    7ca8:	08 95       	ret

00007caa <eeprom_mapen>:
    7caa:	fc 01       	movw	r30, r24
    7cac:	e0 50       	subi	r30, 0x00	; 0
    7cae:	fc 4e       	sbci	r31, 0xEC	; 236
    7cb0:	08 95       	ret

00007cb2 <eeprom_read_dword>:
    7cb2:	0e 94 55 3e 	call	0x7caa	; 0x7caa <eeprom_mapen>
    7cb6:	60 81       	ld	r22, Z
    7cb8:	71 81       	ldd	r23, Z+1	; 0x01
    7cba:	82 81       	ldd	r24, Z+2	; 0x02
    7cbc:	93 81       	ldd	r25, Z+3	; 0x03
    7cbe:	08 95       	ret

00007cc0 <eeprom_read_word>:
    7cc0:	0e 94 55 3e 	call	0x7caa	; 0x7caa <eeprom_mapen>
    7cc4:	80 81       	ld	r24, Z
    7cc6:	91 81       	ldd	r25, Z+1	; 0x01
    7cc8:	08 95       	ret

00007cca <eeprom_update_block>:
    7cca:	dc 01       	movw	r26, r24
    7ccc:	a4 0f       	add	r26, r20
    7cce:	b5 1f       	adc	r27, r21
    7cd0:	41 50       	subi	r20, 0x01	; 1
    7cd2:	50 40       	sbci	r21, 0x00	; 0
    7cd4:	48 f0       	brcs	.+18     	; 0x7ce8 <eeprom_update_block+0x1e>
    7cd6:	cb 01       	movw	r24, r22
    7cd8:	84 0f       	add	r24, r20
    7cda:	95 1f       	adc	r25, r21
    7cdc:	2e 91       	ld	r18, -X
    7cde:	0e 94 76 3e 	call	0x7cec	; 0x7cec <eeprom_update_r18>
    7ce2:	41 50       	subi	r20, 0x01	; 1
    7ce4:	50 40       	sbci	r21, 0x00	; 0
    7ce6:	d0 f7       	brcc	.-12     	; 0x7cdc <eeprom_update_block+0x12>
    7ce8:	08 95       	ret

00007cea <eeprom_update_byte>:
    7cea:	26 2f       	mov	r18, r22

00007cec <eeprom_update_r18>:
    7cec:	0e 94 55 3e 	call	0x7caa	; 0x7caa <eeprom_mapen>
    7cf0:	00 80       	ld	r0, Z
    7cf2:	02 16       	cp	r0, r18
    7cf4:	19 f0       	breq	.+6      	; 0x7cfc <eeprom_update_r18+0x10>
    7cf6:	0e 94 93 3e 	call	0x7d26	; 0x7d26 <eeprom_write_r18>
    7cfa:	01 97       	sbiw	r24, 0x01	; 1
    7cfc:	01 97       	sbiw	r24, 0x01	; 1
    7cfe:	08 95       	ret

00007d00 <eeprom_update_dword>:
    7d00:	03 96       	adiw	r24, 0x03	; 3
    7d02:	27 2f       	mov	r18, r23
    7d04:	0e 94 76 3e 	call	0x7cec	; 0x7cec <eeprom_update_r18>
    7d08:	0e 94 75 3e 	call	0x7cea	; 0x7cea <eeprom_update_byte>
    7d0c:	25 2f       	mov	r18, r21
    7d0e:	0e 94 76 3e 	call	0x7cec	; 0x7cec <eeprom_update_r18>
    7d12:	24 2f       	mov	r18, r20
    7d14:	0c 94 76 3e 	jmp	0x7cec	; 0x7cec <eeprom_update_r18>

00007d18 <eeprom_update_word>:
    7d18:	01 96       	adiw	r24, 0x01	; 1
    7d1a:	27 2f       	mov	r18, r23
    7d1c:	0e 94 76 3e 	call	0x7cec	; 0x7cec <eeprom_update_r18>
    7d20:	0c 94 75 3e 	jmp	0x7cea	; 0x7cea <eeprom_update_byte>

00007d24 <eeprom_write_byte>:
    7d24:	26 2f       	mov	r18, r22

00007d26 <eeprom_write_r18>:
    7d26:	af 93       	push	r26
    7d28:	bf 93       	push	r27
    7d2a:	e0 e0       	ldi	r30, 0x00	; 0
    7d2c:	f0 e1       	ldi	r31, 0x10	; 16
    7d2e:	32 81       	ldd	r19, Z+2	; 0x02
    7d30:	31 fd       	sbrc	r19, 1
    7d32:	fd cf       	rjmp	.-6      	; 0x7d2e <eeprom_write_r18+0x8>
    7d34:	3d e9       	ldi	r19, 0x9D	; 157
    7d36:	34 bf       	out	0x34, r19	; 52
    7d38:	33 e1       	ldi	r19, 0x13	; 19
    7d3a:	30 83       	st	Z, r19
    7d3c:	dc 01       	movw	r26, r24
    7d3e:	a0 50       	subi	r26, 0x00	; 0
    7d40:	bc 4e       	sbci	r27, 0xEC	; 236
    7d42:	2c 93       	st	X, r18
    7d44:	3d e9       	ldi	r19, 0x9D	; 157
    7d46:	34 bf       	out	0x34, r19	; 52
    7d48:	20 e0       	ldi	r18, 0x00	; 0
    7d4a:	20 83       	st	Z, r18
    7d4c:	01 96       	adiw	r24, 0x01	; 1
    7d4e:	bf 91       	pop	r27
    7d50:	af 91       	pop	r26
    7d52:	08 95       	ret

00007d54 <__udivmodhi4>:
    7d54:	aa 1b       	sub	r26, r26
    7d56:	bb 1b       	sub	r27, r27
    7d58:	51 e1       	ldi	r21, 0x11	; 17
    7d5a:	07 c0       	rjmp	.+14     	; 0x7d6a <__udivmodhi4_ep>

00007d5c <__udivmodhi4_loop>:
    7d5c:	aa 1f       	adc	r26, r26
    7d5e:	bb 1f       	adc	r27, r27
    7d60:	a6 17       	cp	r26, r22
    7d62:	b7 07       	cpc	r27, r23
    7d64:	10 f0       	brcs	.+4      	; 0x7d6a <__udivmodhi4_ep>
    7d66:	a6 1b       	sub	r26, r22
    7d68:	b7 0b       	sbc	r27, r23

00007d6a <__udivmodhi4_ep>:
    7d6a:	88 1f       	adc	r24, r24
    7d6c:	99 1f       	adc	r25, r25
    7d6e:	5a 95       	dec	r21
    7d70:	a9 f7       	brne	.-22     	; 0x7d5c <__udivmodhi4_loop>
    7d72:	80 95       	com	r24
    7d74:	90 95       	com	r25
    7d76:	bc 01       	movw	r22, r24
    7d78:	cd 01       	movw	r24, r26
    7d7a:	08 95       	ret

00007d7c <__divmodhi4>:
    7d7c:	97 fb       	bst	r25, 7
    7d7e:	07 2e       	mov	r0, r23
    7d80:	16 f4       	brtc	.+4      	; 0x7d86 <__divmodhi4+0xa>
    7d82:	00 94       	com	r0
    7d84:	07 d0       	rcall	.+14     	; 0x7d94 <__divmodhi4_neg1>
    7d86:	77 fd       	sbrc	r23, 7
    7d88:	09 d0       	rcall	.+18     	; 0x7d9c <__divmodhi4_neg2>
    7d8a:	0e 94 aa 3e 	call	0x7d54	; 0x7d54 <__udivmodhi4>
    7d8e:	07 fc       	sbrc	r0, 7
    7d90:	05 d0       	rcall	.+10     	; 0x7d9c <__divmodhi4_neg2>
    7d92:	3e f4       	brtc	.+14     	; 0x7da2 <__divmodhi4_exit>

00007d94 <__divmodhi4_neg1>:
    7d94:	90 95       	com	r25
    7d96:	81 95       	neg	r24
    7d98:	9f 4f       	sbci	r25, 0xFF	; 255
    7d9a:	08 95       	ret

00007d9c <__divmodhi4_neg2>:
    7d9c:	70 95       	com	r23
    7d9e:	61 95       	neg	r22
    7da0:	7f 4f       	sbci	r23, 0xFF	; 255

00007da2 <__divmodhi4_exit>:
    7da2:	08 95       	ret

00007da4 <__divmodsi4>:
    7da4:	05 2e       	mov	r0, r21
    7da6:	97 fb       	bst	r25, 7
    7da8:	1e f4       	brtc	.+6      	; 0x7db0 <__divmodsi4+0xc>
    7daa:	00 94       	com	r0
    7dac:	0e 94 e9 3e 	call	0x7dd2	; 0x7dd2 <__negsi2>
    7db0:	57 fd       	sbrc	r21, 7
    7db2:	07 d0       	rcall	.+14     	; 0x7dc2 <__divmodsi4_neg2>
    7db4:	0e 94 36 37 	call	0x6e6c	; 0x6e6c <__udivmodsi4>
    7db8:	07 fc       	sbrc	r0, 7
    7dba:	03 d0       	rcall	.+6      	; 0x7dc2 <__divmodsi4_neg2>
    7dbc:	4e f4       	brtc	.+18     	; 0x7dd0 <__divmodsi4_exit>
    7dbe:	0c 94 e9 3e 	jmp	0x7dd2	; 0x7dd2 <__negsi2>

00007dc2 <__divmodsi4_neg2>:
    7dc2:	50 95       	com	r21
    7dc4:	40 95       	com	r20
    7dc6:	30 95       	com	r19
    7dc8:	21 95       	neg	r18
    7dca:	3f 4f       	sbci	r19, 0xFF	; 255
    7dcc:	4f 4f       	sbci	r20, 0xFF	; 255
    7dce:	5f 4f       	sbci	r21, 0xFF	; 255

00007dd0 <__divmodsi4_exit>:
    7dd0:	08 95       	ret

00007dd2 <__negsi2>:
    7dd2:	90 95       	com	r25
    7dd4:	80 95       	com	r24
    7dd6:	70 95       	com	r23
    7dd8:	61 95       	neg	r22
    7dda:	7f 4f       	sbci	r23, 0xFF	; 255
    7ddc:	8f 4f       	sbci	r24, 0xFF	; 255
    7dde:	9f 4f       	sbci	r25, 0xFF	; 255
    7de0:	08 95       	ret

00007de2 <__prologue_saves__>:
    7de2:	2f 92       	push	r2
    7de4:	3f 92       	push	r3
    7de6:	4f 92       	push	r4
    7de8:	5f 92       	push	r5
    7dea:	6f 92       	push	r6
    7dec:	7f 92       	push	r7
    7dee:	8f 92       	push	r8
    7df0:	9f 92       	push	r9
    7df2:	af 92       	push	r10
    7df4:	bf 92       	push	r11
    7df6:	cf 92       	push	r12
    7df8:	df 92       	push	r13
    7dfa:	ef 92       	push	r14
    7dfc:	ff 92       	push	r15
    7dfe:	0f 93       	push	r16
    7e00:	1f 93       	push	r17
    7e02:	cf 93       	push	r28
    7e04:	df 93       	push	r29
    7e06:	cd b7       	in	r28, 0x3d	; 61
    7e08:	de b7       	in	r29, 0x3e	; 62
    7e0a:	ca 1b       	sub	r28, r26
    7e0c:	db 0b       	sbc	r29, r27
    7e0e:	cd bf       	out	0x3d, r28	; 61
    7e10:	de bf       	out	0x3e, r29	; 62
    7e12:	09 94       	ijmp

00007e14 <__epilogue_restores__>:
    7e14:	2a 88       	ldd	r2, Y+18	; 0x12
    7e16:	39 88       	ldd	r3, Y+17	; 0x11
    7e18:	48 88       	ldd	r4, Y+16	; 0x10
    7e1a:	5f 84       	ldd	r5, Y+15	; 0x0f
    7e1c:	6e 84       	ldd	r6, Y+14	; 0x0e
    7e1e:	7d 84       	ldd	r7, Y+13	; 0x0d
    7e20:	8c 84       	ldd	r8, Y+12	; 0x0c
    7e22:	9b 84       	ldd	r9, Y+11	; 0x0b
    7e24:	aa 84       	ldd	r10, Y+10	; 0x0a
    7e26:	b9 84       	ldd	r11, Y+9	; 0x09
    7e28:	c8 84       	ldd	r12, Y+8	; 0x08
    7e2a:	df 80       	ldd	r13, Y+7	; 0x07
    7e2c:	ee 80       	ldd	r14, Y+6	; 0x06
    7e2e:	fd 80       	ldd	r15, Y+5	; 0x05
    7e30:	0c 81       	ldd	r16, Y+4	; 0x04
    7e32:	1b 81       	ldd	r17, Y+3	; 0x03
    7e34:	aa 81       	ldd	r26, Y+2	; 0x02
    7e36:	b9 81       	ldd	r27, Y+1	; 0x01
    7e38:	ce 0f       	add	r28, r30
    7e3a:	d1 1d       	adc	r29, r1
    7e3c:	cd bf       	out	0x3d, r28	; 61
    7e3e:	de bf       	out	0x3e, r29	; 62
    7e40:	ed 01       	movw	r28, r26
    7e42:	08 95       	ret

00007e44 <memcpy>:
    7e44:	fb 01       	movw	r30, r22
    7e46:	dc 01       	movw	r26, r24
    7e48:	02 c0       	rjmp	.+4      	; 0x7e4e <memcpy+0xa>
    7e4a:	01 90       	ld	r0, Z+
    7e4c:	0d 92       	st	X+, r0
    7e4e:	41 50       	subi	r20, 0x01	; 1
    7e50:	50 40       	sbci	r21, 0x00	; 0
    7e52:	d8 f7       	brcc	.-10     	; 0x7e4a <memcpy+0x6>
    7e54:	08 95       	ret

00007e56 <_exit>:
    7e56:	f8 94       	cli

00007e58 <__stop_program>:
    7e58:	ff cf       	rjmp	.-2      	; 0x7e58 <__stop_program>
